MPASM  5.20                               A.S   4-11-2009  7:15:23         PAGE  1


LOC  OBJECT CODE     LINE SOURCE TEXT
  VALUE


                      00002         LIST
                      00003 ;{
                      00004 ;FILE F1 = C:\RFID FILES HOME\V4 RFID 2ND GENERATION\AD TEST.BAS
                      00005 ;FILE F2 = C:\RFID FILES HOME\V4 RFID 2ND GENERATION\AD TEST.PRP
                      00006 ;FILE F3 = C:\RFID FILES HOME\V4 RFID 2ND GENERATION\AD TEST_FWD.PBP
                      00007 ;FILE F4 = C:\RFID FILES HOME\V4 RFID 2ND GENERATION\INC\GOSLEEP.INC
                      00008 ;}
                      00009 ;[Variable Listing]
                      00010 ;VAR1,0011,DT_WORD,2
                      00011 ;SD_CS,0F82.2,DT_BIT
                      00012 ;SD_DI,0F82.5,DT_BIT
                      00013 ;SD_CLK,0F82.3,DT_BIT
                      00014 ;SD_DO,0F82.4,DT_BIT
                      00015 ;SD_DETECT,0F80.1,DT_BIT
                      00016 ;RFIDENABLE,0F83.4,DT_BIT
                      00017 ;GIE,0FF2.7,DT_BIT
                      00018 ;[End Listing]
                      00019 ;[TOTAL VARS] 19

                      00021 #DEFINE CONFIG_REQ 1
MESSAGE[308]: WARNING LEVEL SUPERSEDED BY COMMAND LINE VALUE. (2)
                      00022  LIST  P = 18F4525, F = INHX32, W = 2, X = ON, R = DEC, MM = ON, N = 0, C = 255
  00000F80            00023 PORTA EQU 0X0F80
  00000F81            00024 PORTB EQU 0X0F81
  00000F82            00025 PORTC EQU 0X0F82
  00000F83            00026 PORTD EQU 0X0F83
  00000F84            00027 PORTE EQU 0X0F84
  00000F89            00028 LATA EQU 0X0F89
  00000F8A            00029 LATB EQU 0X0F8A
  00000F8B            00030 LATC EQU 0X0F8B
  00000F8C            00031 LATD EQU 0X0F8C
  00000F8D            00032 LATE EQU 0X0F8D
  00000F92            00033 DDRA EQU 0X0F92
  00000F92            00034 TRISA EQU 0X0F92
  00000F93            00035 DDRB EQU 0X0F93
  00000F93            00036 TRISB EQU 0X0F93
  00000F94            00037 DDRC EQU 0X0F94
  00000F94            00038 TRISC EQU 0X0F94
  00000F95            00039 DDRD EQU 0X0F95
  00000F95            00040 TRISD EQU 0X0F95
  00000F96            00041 DDRE EQU 0X0F96
  00000F96            00042 TRISE EQU 0X0F96
  00000F9B            00043 OSCTUNE EQU 0X0F9B
  00000F9D            00044 PIE1 EQU 0X0F9D
  00000F9E            00045 PIR1 EQU 0X0F9E
  00000F9F            00046 IPR1 EQU 0X0F9F
  00000FA0            00047 PIE2 EQU 0X0FA0
  00000FA1            00048 PIR2 EQU 0X0FA1
  00000FA2            00049 IPR2 EQU 0X0FA2
  00000FA6            00050 EECON1 EQU 0X0FA6
  00000FA7            00051 EECON2 EQU 0X0FA7
  00000FA8            00052 EEDATL EQU 0X0FA8
  00000FA8            00053 EEDATA EQU 0X0FA8
  00000FA9            00054 EEADR EQU 0X0FA9
  00000FAA            00055 EEADRH EQU 0X0FAA
  00000FAB            00056 RCSTA EQU 0X0FAB
  00000FAC            00057 TXSTA EQU 0X0FAC
  00000FAD            00058 TXREG EQU 0X0FAD
  00000FAE            00059 RCREG EQU 0X0FAE
  00000FAF            00060 SPBRG EQU 0X0FAF
  00000FB0            00061 SPBRGH EQU 0X0FB0
  00000FB1            00062 T3CON EQU 0X0FB1
  00000FB2            00063 TMR3L EQU 0X0FB2
  00000FB3            00064 TMR3LH EQU 0X0FB3
  00000FB3            00065 TMR3H EQU 0X0FB3
  00000FB4            00066 CMCON EQU 0X0FB4
  00000FB5            00067 CVRCON EQU 0X0FB5
  00000FB6            00068 ECCP1AS EQU 0X0FB6
  00000FB6            00069 ECCPAS EQU 0X0FB6
  00000FB7            00070 PWM1CON EQU 0X0FB7
  00000FB8            00071 BAUDCON EQU 0X0FB8
  00000FB8            00072 BAUDCTL EQU 0X0FB8
  00000FBA            00073 CCP2CON EQU 0X0FBA
  00000FBB            00074 CCPR2 EQU 0X0FBB
  00000FBB            00075 CCPR2L EQU 0X0FBB
  00000FBC            00076 CCPR2LH EQU 0X0FBC
  00000FBC            00077 CCPR2H EQU 0X0FBC
  00000FBD            00078 CCP1CON EQU 0X0FBD
  00000FBE            00079 CCPR1 EQU 0X0FBE
  00000FBE            00080 CCPR1L EQU 0X0FBE
  00000FBF            00081 CCPR1LH EQU 0X0FBF
  00000FBF            00082 CCPR1H EQU 0X0FBF
  00000FC0            00083 ADCON2 EQU 0X0FC0
  00000FC1            00084 ADCON1 EQU 0X0FC1
  00000FC2            00085 ADCON0 EQU 0X0FC2
  00000FC3            00086 ADRES EQU 0X0FC3
  00000FC3            00087 ADRESL EQU 0X0FC3
  00000FC4            00088 ADRESLH EQU 0X0FC4
  00000FC4            00089 ADRESH EQU 0X0FC4
  00000FC5            00090 SSPCON2 EQU 0X0FC5
  00000FC6            00091 SSPCON1 EQU 0X0FC6
  00000FC7            00092 SSPSTAT EQU 0X0FC7
  00000FC8            00093 SSPADD EQU 0X0FC8
  00000FC9            00094 SSPBUF EQU 0X0FC9
  00000FCA            00095 T2CON EQU 0X0FCA
  00000FCB            00096 PR2 EQU 0X0FCB
  00000FCC            00097 TMR2 EQU 0X0FCC
  00000FCD            00098 T1CON EQU 0X0FCD
  00000FCE            00099 TMR1L EQU 0X0FCE
  00000FCF            00100 TMR1LH EQU 0X0FCF
  00000FCF            00101 TMR1H EQU 0X0FCF
  00000FD0            00102 RCON EQU 0X0FD0
  00000FD1            00103 WDTCON EQU 0X0FD1
  00000FD2            00104 HLVDCON EQU 0X0FD2
  00000FD2            00105 LVDCON EQU 0X0FD2
  00000FD3            00106 OSCCON EQU 0X0FD3
  00000FD4            00107 DEBUG EQU 0X0FD4
  00000FD5            00108 T0CON EQU 0X0FD5
  00000FD6            00109 TMR0L EQU 0X0FD6
  00000FD7            00110 TMR0LH EQU 0X0FD7
  00000FD7            00111 TMR0H EQU 0X0FD7
  00000FD8            00112 STATUS EQU 0X0FD8
  00000FD9            00113 FSR2L EQU 0X0FD9
  00000FDA            00114 FSR2LH EQU 0X0FDA
  00000FDA            00115 FSR2H EQU 0X0FDA
  00000FDB            00116 PLUSW2 EQU 0X0FDB
  00000FDC            00117 PREINC2 EQU 0X0FDC
  00000FDD            00118 POSTDEC2 EQU 0X0FDD
  00000FDE            00119 POSTINC2 EQU 0X0FDE
  00000FDF            00120 INDF2 EQU 0X0FDF
  00000FE0            00121 BSR EQU 0X0FE0
  00000FE1            00122 FSR1L EQU 0X0FE1
  00000FE2            00123 FSR1LH EQU 0X0FE2
  00000FE2            00124 FSR1H EQU 0X0FE2
  00000FE3            00125 PLUSW1 EQU 0X0FE3
  00000FE4            00126 PREINC1 EQU 0X0FE4
  00000FE5            00127 POSTDEC1 EQU 0X0FE5
  00000FE6            00128 POSTINC1 EQU 0X0FE6
  00000FE7            00129 INDF1 EQU 0X0FE7
  00000FE8            00130 WREG EQU 0X0FE8
  00000FE9            00131 FSR0L EQU 0X0FE9
  00000FEA            00132 FSR0LH EQU 0X0FEA
  00000FEA            00133 FSR0H EQU 0X0FEA
  00000FEB            00134 PLUSW0 EQU 0X0FEB
  00000FEC            00135 PREINC0 EQU 0X0FEC
  00000FED            00136 POSTDEC0 EQU 0X0FED
  00000FEE            00137 POSTINC0 EQU 0X0FEE
  00000FEF            00138 INDF0 EQU 0X0FEF
  00000FF0            00139 INTCON3 EQU 0X0FF0
  00000FF1            00140 INTCON2 EQU 0X0FF1
  00000FF2            00141 INTCON EQU 0X0FF2
  00000FF3            00142 PRODL EQU 0X0FF3
  00000FF4            00143 PRODLH EQU 0X0FF4
  00000FF4            00144 PRODH EQU 0X0FF4
  00000FF5            00145 TABLAT EQU 0X0FF5
  00000FF6            00146 TBLPTRL EQU 0X0FF6
  00000FF7            00147 TBLPTRLH EQU 0X0FF7
  00000FF7            00148 TBLPTRH EQU 0X0FF7
  00000FF8            00149 TBLPTRU EQU 0X0FF8
  00000FF8            00150 TBLPTRLHH EQU 0X0FF8
  00000FF9            00151 PC EQU 0X0FF9
  00000FF9            00152 PCL EQU 0X0FF9
  00000FFA            00153 PCLATH EQU 0X0FFA
  00000FFB            00154 PCLATU EQU 0X0FFB
  00000FFC            00155 STKPTR EQU 0X0FFC
  00000FFD            00156 TOS EQU 0X0FFD
  00000FFD            00157 TOSL EQU 0X0FFD
  00000FFE            00158 TOSLH EQU 0X0FFE
  00000FFE            00159 TOSH EQU 0X0FFE
  00000FFF            00160 TOSU EQU 0X0FFF
  00000F94            00161 _I2C_SCL_PORT = TRISC
  00000003            00162 _I2C_SCL_PIN = 3
  00000F94            00163 _I2C_SDA_PORT = TRISC
  00000004            00164 _I2C_SDA_PIN = 4
  00000000            00165 RA0=0
  00000001            00166 RA1=1
  00000002            00167 RA2=2
  00000003            00168 RA3=3
  00000004            00169 RA4=4
  00000005            00170 RA5=5
  00000006            00171 RA6=6
  00000007            00172 RA7=7
  00000004            00173 T0CKI=4
  00000005            00174 AN4=5
  00000005            00175 SS=5
  00000005            00176 NOT_SS=5
  00000005            00177 LVDIN=5
  00000005            00178 HLVDIN=5
  00000000            00179 RB0=0
  00000001            00180 RB1=1
  00000002            00181 RB2=2
  00000003            00182 RB3=3
  00000004            00183 RB4=4
  00000005            00184 RB5=5
  00000006            00185 RB6=6
  00000007            00186 RB7=7
  00000000            00187 INT0=0
  00000001            00188 INT1=1
  00000002            00189 INT2=2
  00000003            00190 CCP2_PORTB=3
  00000004            00191 KBI0=4
  00000005            00192 KBI1=5
  00000006            00193 KBI2=6
  00000007            00194 KBI3=7
  00000000            00195 AN12=0
  00000001            00196 AN10=1
  00000002            00197 AN8=2
  00000003            00198 AN9=3
  00000004            00199 AN11=4
  00000005            00200 PGM=5
  00000006            00201 PGC=6
  00000007            00202 PGD=7
  00000000            00203 RC0=0
  00000001            00204 RC1=1
  00000002            00205 RC2=2
  00000003            00206 RC3=3
  00000004            00207 RC4=4
  00000005            00208 RC5=5
  00000006            00209 RC6=6
  00000007            00210 RC7=7
  00000000            00211 T1OSO=0
  00000001            00212 T1OSI=1
  00000002            00213 CCP1=2
  00000003            00214 SCK=3
  00000004            00215 SDI=4
  00000005            00216 SDO=5
  00000006            00217 TX=6
  00000007            00218 RX=7
  00000000            00219 T13CKI=0
  00000001            00220 CCP2_PORTC=1
  00000003            00221 SCL=3
  00000004            00222 SDA=4
  00000006            00223 CK=6
  00000000            00224 T1CKI=0
  00000000            00225 RD0=0
  00000001            00226 RD1=1
  00000002            00227 RD2=2
  00000003            00228 RD3=3
  00000004            00229 RD4=4
  00000005            00230 RD5=5
  00000006            00231 RD6=6
  00000007            00232 RD7=7
  00000000            00233 PSP0=0
  00000001            00234 PSP1=1
  00000002            00235 PSP2=2
  00000003            00236 PSP3=3
  00000004            00237 PSP4=4
  00000005            00238 PSP5=5
  00000006            00239 PSP6=6
  00000007            00240 PSP7=7
  00000005            00241 P1B=5
  00000006            00242 P1C=6
  00000007            00243 P1D=7
  00000000            00244 RE0=0
  00000001            00245 RE1=1
  00000002            00246 RE2=2
  00000003            00247 RE3=3
  00000000            00248 RD=0
  00000000            00249 PP_RD=0
  00000001            00250 WR=1
  00000001            00251 PP_WR=1
  00000002            00252 CS=2
  00000003            00253 MCLR=3
  00000000            00254 NOT_RD=0
  00000001            00255 NOT_WR=1
  00000002            00256 NOT_CS=2
  00000003            00257 NOT_MCLR=3
  00000000            00258 AN5=0
  00000001            00259 AN6=1
  00000002            00260 AN7=2
  00000003            00261 VPP=3
  00000000            00262 LATA0=0
  00000001            00263 LATA1=1
  00000002            00264 LATA2=2
  00000003            00265 LATA3=3
  00000004            00266 LATA4=4
  00000005            00267 LATA5=5
  00000006            00268 LATA6=6
  00000007            00269 LATA7=7
  00000000            00270 LATB0=0
  00000001            00271 LATB1=1
  00000002            00272 LATB2=2
  00000003            00273 LATB3=3
  00000004            00274 LATB4=4
  00000005            00275 LATB5=5
  00000006            00276 LATB6=6
  00000007            00277 LATB7=7
  00000000            00278 LATC0=0
  00000001            00279 LATC1=1
  00000002            00280 LATC2=2
  00000003            00281 LATC3=3
  00000004            00282 LATC4=4
  00000005            00283 LATC5=5
  00000006            00284 LATC6=6
  00000007            00285 LATC7=7
  00000000            00286 LATD0=0
  00000001            00287 LATD1=1
  00000002            00288 LATD2=2
  00000003            00289 LATD3=3
  00000004            00290 LATD4=4
  00000005            00291 LATD5=5
  00000006            00292 LATD6=6
  00000007            00293 LATD7=7
  00000000            00294 LATE0=0
  00000001            00295 LATE1=1
  00000002            00296 LATE2=2
  00000000            00297 RA0=0
  00000001            00298 RA1=1
  00000002            00299 RA2=2
  00000003            00300 RA3=3
  00000004            00301 RA4=4
  00000005            00302 RA5=5
  00000006            00303 RA6=6
  00000007            00304 RA7=7
  00000000            00305 TRISA0=0
  00000001            00306 TRISA1=1
  00000002            00307 TRISA2=2
  00000003            00308 TRISA3=3
  00000004            00309 TRISA4=4
  00000005            00310 TRISA5=5
  00000006            00311 TRISA6=6
  00000007            00312 TRISA7=7
  00000000            00313 RB0=0
  00000001            00314 RB1=1
  00000002            00315 RB2=2
  00000003            00316 RB3=3
  00000004            00317 RB4=4
  00000005            00318 RB5=5
  00000006            00319 RB6=6
  00000007            00320 RB7=7
  00000000            00321 TRISB0=0
  00000001            00322 TRISB1=1
  00000002            00323 TRISB2=2
  00000003            00324 TRISB3=3
  00000004            00325 TRISB4=4
  00000005            00326 TRISB5=5
  00000006            00327 TRISB6=6
  00000007            00328 TRISB7=7
  00000000            00329 RC0=0
  00000001            00330 RC1=1
  00000002            00331 RC2=2
  00000003            00332 RC3=3
  00000004            00333 RC4=4
  00000005            00334 RC5=5
  00000006            00335 RC6=6
  00000007            00336 RC7=7
  00000000            00337 TRISC0=0
  00000001            00338 TRISC1=1
  00000002            00339 TRISC2=2
  00000003            00340 TRISC3=3
  00000004            00341 TRISC4=4
  00000005            00342 TRISC5=5
  00000006            00343 TRISC6=6
  00000007            00344 TRISC7=7
  00000000            00345 RD0=0
  00000001            00346 RD1=1
  00000002            00347 RD2=2
  00000003            00348 RD3=3
  00000004            00349 RD4=4
  00000005            00350 RD5=5
  00000006            00351 RD6=6
  00000007            00352 RD7=7
  00000000            00353 TRISD0=0
  00000001            00354 TRISD1=1
  00000002            00355 TRISD2=2
  00000003            00356 TRISD3=3
  00000004            00357 TRISD4=4
  00000005            00358 TRISD5=5
  00000006            00359 TRISD6=6
  00000007            00360 TRISD7=7
  00000000            00361 RE0=0
  00000001            00362 RE1=1
  00000002            00363 RE2=2
  00000003            00364 RE3=3
  00000000            00365 TRISE0=0
  00000001            00366 TRISE1=1
  00000002            00367 TRISE2=2
  00000004            00368 TRISE4=4
  00000005            00369 TRISE5=5
  00000006            00370 TRISE6=6
  00000007            00371 TRISE7=7
  00000004            00372 PSPMODE=4
  00000005            00373 IBOV=5
  00000006            00374 OBF=6
  00000007            00375 IBF=7
  00000000            00376 TUN0=0
  00000001            00377 TUN1=1
  00000002            00378 TUN2=2
  00000003            00379 TUN3=3
  00000004            00380 TUN4=4
  00000006            00381 PLLEN=6
  00000007            00382 INTSRC=7
  00000000            00383 TMR1IE=0
  00000001            00384 TMR2IE=1
  00000002            00385 CCP1IE=2
  00000003            00386 SSPIE=3
  00000004            00387 TXIE=4
  00000005            00388 RCIE=5
  00000006            00389 ADIE=6
  00000007            00390 PSPIE=7
  00000000            00391 TMR1IF=0
  00000001            00392 TMR2IF=1
  00000002            00393 CCP1IF=2
  00000003            00394 SSPIF=3
  00000004            00395 TXIF=4
  00000004            00396 PP_TXIF=4
  00000005            00397 RCIF=5
  00000005            00398 PP_RCIF=5
  00000006            00399 ADIF=6
  00000007            00400 PSPIF=7
  00000000            00401 TMR1IP=0
  00000001            00402 TMR2IP=1
  00000002            00403 CCP1IP=2
  00000003            00404 SSPIP=3
  00000004            00405 TXIP=4
  00000005            00406 RCIP=5
  00000006            00407 ADIP=6
  00000007            00408 PSPIP=7
  00000000            00409 CCP2IE=0
  00000001            00410 TMR3IE=1
  00000002            00411 LVDIE=2
  00000003            00412 BCLIE=3
  00000004            00413 EEIE=4
  00000006            00414 CMIE=6
  00000007            00415 OSCFIE=7
  00000002            00416 HLVDIE=2
  00000000            00417 CCP2IF=0
  00000001            00418 TMR3IF=1
  00000002            00419 LVDIF=2
  00000003            00420 BCLIF=3
  00000004            00421 EEIF=4
  00000006            00422 CMIF=6
  00000007            00423 OSCFIF=7
  00000002            00424 HLVDIF=2
  00000000            00425 CCP2IP=0
  00000001            00426 TMR3IP=1
  00000002            00427 LVDIP=2
  00000003            00428 BCLIP=3
  00000004            00429 EEIP=4
  00000006            00430 CMIP=6
  00000007            00431 OSCFIP=7
  00000002            00432 HLVDIP=2
  00000000            00433 RD=0
  00000000            00434 PP_RD=0
  00000001            00435 WR=1
  00000001            00436 PP_WR=1
  00000002            00437 WREN=2
  00000002            00438 PP_WREN=2
  00000003            00439 WRERR=3
  00000004            00440 FREE=4
  00000006            00441 CFGS=6
  00000007            00442 EEPGD=7
  00000007            00443 PP_EEPGD=7
  00000000            00444 RX9D=0
  00000001            00445 OERR=1
  00000001            00446 PP_OERR=1
  00000002            00447 FERR=2
  00000003            00448 ADEN=3
  00000004            00449 CREN=4
  00000004            00450 PP_CREN=4
  00000005            00451 SREN=5
  00000006            00452 RX9=6
  00000007            00453 SPEN=7
  00000003            00454 ADDEN=3
  00000000            00455 TX9D=0
  00000001            00456 TRMT=1
  00000002            00457 BRGH=2
  00000003            00458 SENDB=3
  00000004            00459 SYNC=4
  00000005            00460 TXEN=5
  00000006            00461 TX9=6
  00000007            00462 CSRC=7
  00000000            00463 TMR3ON=0
  00000001            00464 TMR3CS=1
  00000002            00465 T3SYNC=2
  00000003            00466 T3CCP1=3
  00000004            00467 T3CKPS0=4
  00000005            00468 T3CKPS1=5
  00000006            00469 T3CCP2=6
  00000007            00470 RD16=7
  00000002            00471 NOT_T3SYNC=2
  00000000            00472 CM0=0
  00000001            00473 CM1=1
  00000002            00474 CM2=2
  00000003            00475 CIS=3
  00000004            00476 C1INV=4
  00000005            00477 C2INV=5
  00000006            00478 C1OUT=6
  00000007            00479 C2OUT=7
  00000000            00480 CVR0=0
  00000001            00481 CVR1=1
  00000002            00482 CVR2=2
  00000003            00483 CVR3=3
  00000004            00484 CVRSS=4
  00000005            00485 CVRR=5
  00000006            00486 CVROE=6
  00000007            00487 CVREN=7
  00000000            00488 PSSBD0=0
  00000001            00489 PSSBD1=1
  00000002            00490 PSSAC0=2
  00000003            00491 PSSAC1=3
  00000004            00492 ECCPAS0=4
  00000005            00493 ECCPAS1=5
  00000006            00494 ECCPAS2=6
  00000007            00495 ECCPASE=7
  00000000            00496 PSSBD0=0
  00000001            00497 PSSBD1=1
  00000002            00498 PSSAC0=2
  00000003            00499 PSSAC1=3
  00000004            00500 ECCPAS0=4
  00000005            00501 ECCPAS1=5
  00000006            00502 ECCPAS2=6
  00000007            00503 ECCPASE=7
  00000000            00504 PDC0=0
  00000001            00505 PDC1=1
  00000002            00506 PDC2=2
  00000003            00507 PDC3=3
  00000004            00508 PDC4=4
  00000005            00509 PDC5=5
  00000006            00510 PDC6=6
  00000007            00511 PRSEN=7
  00000000            00512 ABDEN=0
  00000001            00513 WUE=1
  00000003            00514 BRG16=3
  00000004            00515 SCKP=4
  00000006            00516 RCIDL=6
  00000007            00517 ABDOVF=7
  00000006            00518 RCMT=6
  00000000            00519 ABDEN=0
  00000001            00520 WUE=1
  00000003            00521 BRG16=3
  00000004            00522 SCKP=4
  00000006            00523 RCIDL=6
  00000007            00524 ABDOVF=7
  00000006            00525 RCMT=6
  00000000            00526 CCP2M0=0
  00000001            00527 CCP2M1=1
  00000002            00528 CCP2M2=2
  00000003            00529 CCP2M3=3
  00000004            00530 CCP2Y=4
  00000005            00531 CCP2X=5
  00000004            00532 DC2B0=4
  00000005            00533 DC2B1=5
  00000000            00534 CCP1M0=0
  00000001            00535 CCP1M1=1
  00000002            00536 CCP1M2=2
  00000003            00537 CCP1M3=3
  00000004            00538 CCP1Y=4
  00000005            00539 CCP1X=5
  00000004            00540 DC1B0=4
  00000005            00541 DC1B1=5
  00000006            00542 P1M0=6
  00000007            00543 P1M1=7
  00000000            00544 ADCS0=0
  00000001            00545 ADCS1=1
  00000002            00546 ADCS2=2
  00000003            00547 ACQT0=3
  00000004            00548 ACQT1=4
  00000005            00549 ACQT2=5
  00000007            00550 ADFM=7
  00000000            00551 PCFG0=0
  00000001            00552 PCFG1=1
  00000002            00553 PCFG2=2
  00000003            00554 PCFG3=3
  00000004            00555 VCFG0=4
  00000005            00556 VCFG1=5
  00000000            00557 ADON=0
  00000000            00558 PP_ADON=0
  00000001            00559 GO=1
  00000002            00560 CHS0=2
  00000003            00561 CHS1=3
  00000004            00562 CHS2=4
  00000005            00563 CHS3=5
  00000001            00564 DONE=1
  00000001            00565 NOT_DONE=1
  00000001            00566 GO_DONE=1
  00000001            00567 PP_GO_DONE=1
  00000000            00568 SEN=0
  00000000            00569 PP_SEN=0
  00000001            00570 RSEN=1
  00000001            00571 PP_RSEN=1
  00000002            00572 PEN=2
  00000002            00573 PP_PEN=2
  00000003            00574 RCEN=3
  00000003            00575 PP_RCEN=3
  00000004            00576 ACKEN=4
  00000004            00577 PP_ACKEN=4
  00000005            00578 ACKDT=5
  00000006            00579 ACKSTAT=6
  00000007            00580 GCEN=7
  00000000            00581 SSPM0=0
  00000001            00582 SSPM1=1
  00000002            00583 SSPM2=2
  00000003            00584 SSPM3=3
  00000004            00585 CKP=4
  00000005            00586 SSPEN=5
  00000006            00587 SSPOV=6
  00000007            00588 WCOL=7
  00000000            00589 BF=0
  00000001            00590 UA=1
  00000002            00591 R=2
  00000003            00592 S=3
  00000004            00593 P=4
  00000005            00594 D=5
  00000006            00595 CKE=6
  00000007            00596 SMP=7
  00000002            00597 NOT_W=2
  00000005            00598 NOT_A=5
  00000002            00599 R_W=2
  00000002            00600 PP_R_W=2
  00000005            00601 D_A=5
  00000002            00602 NOT_WRITE=2
  00000005            00603 NOT_ADDRESS=5
  00000000            00604 T2CKPS0=0
  00000000            00605 PP_T2CKPS0=0
  00000001            00606 T2CKPS1=1
  00000001            00607 PP_T2CKPS1=1
  00000002            00608 TMR2ON=2
  00000002            00609 PP_TMR2ON=2
  00000003            00610 T2OUTPS0=3
  00000004            00611 T2OUTPS1=4
  00000005            00612 T2OUTPS2=5
  00000006            00613 T2OUTPS3=6
  00000003            00614 TOUTPS0=3
  00000004            00615 TOUTPS1=4
  00000005            00616 TOUTPS2=5
  00000006            00617 TOUTPS3=6
  00000000            00618 TMR1ON=0
  00000001            00619 TMR1CS=1
  00000002            00620 T1SYNC=2
  00000003            00621 T1OSCEN=3
  00000004            00622 T1CKPS0=4
  00000005            00623 T1CKPS1=5
  00000006            00624 T1RUN=6
  00000007            00625 RD16=7
  00000002            00626 NOT_T1SYNC=2
  00000000            00627 BOR=0
  00000001            00628 POR=1
  00000002            00629 PD=2
  00000003            00630 TO=3
  00000004            00631 RI=4
  00000006            00632 SBOREN=6
  00000007            00633 IPEN=7
  00000000            00634 NOT_BOR=0
  00000001            00635 NOT_POR=1
  00000002            00636 NOT_PD=2
  00000003            00637 NOT_TO=3
  00000004            00638 NOT_RI=4
  00000000            00639 SWDTEN=0
  00000000            00640 SWDTE=0
  00000000            00641 LVDL0=0
  00000001            00642 LVDL1=1
  00000002            00643 LVDL2=2
  00000003            00644 LVDL3=3
  00000004            00645 LVDEN=4
  00000005            00646 IRVST=5
  00000000            00647 LVV0=0
  00000001            00648 LVV1=1
  00000002            00649 LVV2=2
  00000003            00650 LVV3=3
  00000005            00651 BGST=5
  00000000            00652 HLVDL0=0
  00000001            00653 HLVDL1=1
  00000002            00654 HLVDL2=2
  00000003            00655 HLVDL3=3
  00000004            00656 HLVDEN=4
  00000007            00657 VDIRMAG=7
  00000005            00658 IVRST=5
  00000000            00659 SCS0=0
  00000001            00660 SCS1=1
  00000002            00661 IOFS=2
  00000003            00662 OSTS=3
  00000004            00663 IRCF0=4
  00000005            00664 IRCF1=5
  00000006            00665 IRCF2=6
  00000007            00666 IDLEN=7
  00000002            00667 FLTS=2
  00000000            00668 T0PS0=0
  00000001            00669 T0PS1=1
  00000002            00670 T0PS2=2
  00000003            00671 PSA=3
  00000004            00672 T0SE=4
  00000005            00673 T0CS=5
  00000006            00674 T016BIT=6
  00000007            00675 TMR0ON=7
  00000006            00676 T08BIT=6
  00000000            00677 C=0
  00000001            00678 DC=1
  00000002            00679 Z=2
  00000003            00680 OV=3
  00000004            00681 N=4
  00000000            00682 INT1F=0
  00000001            00683 INT2F=1
  00000003            00684 INT1E=3
  00000004            00685 INT2E=4
  00000006            00686 INT1P=6
  00000007            00687 INT2P=7
  00000000            00688 INT1IF=0
  00000001            00689 INT2IF=1
  00000003            00690 INT1IE=3
  00000004            00691 INT2IE=4
  00000006            00692 INT1IP=6
  00000007            00693 INT2IP=7
  00000000            00694 RBIP=0
  00000002            00695 TMR0IP=2
  00000004            00696 INTEDG2=4
  00000005            00697 INTEDG1=5
  00000006            00698 INTEDG0=6
  00000007            00699 RBPU=7
  00000007            00700 NOT_RBPU=7
  00000000            00701 RBIF=0
  00000001            00702 INT0F=1
  00000002            00703 TMR0IF=2
  00000003            00704 RBIE=3
  00000004            00705 INT0E=4
  00000005            00706 TMR0IE=5
  00000006            00707 PEIE=6
  00000007            00708 GIE=7
  00000001            00709 INT0IF=1
  00000002            00710 T0IF=2
  00000004            00711 INT0IE=4
  00000005            00712 T0IE=5
  00000006            00713 GIEL=6
  00000007            00714 GIEH=7
  00000000            00715 STKPTR0=0
  00000001            00716 STKPTR1=1
  00000002            00717 STKPTR2=2
  00000003            00718 STKPTR3=3
  00000004            00719 STKPTR4=4
  00000006            00720 STKUNF=6
  00000007            00721 STKOVF=7
  00000000            00722 SP0=0
  00000001            00723 SP1=1
  00000002            00724 SP2=2
  00000003            00725 SP3=3
  00000004            00726 SP4=4
  00000007            00727 STKFUL=7
  00000FFF            00728   __MAXRAM  0X0FFF
                      00729   __BADRAM  0X0F85-0X0F88
                      00730   __BADRAM  0X0F8E-0X0F91
                      00731   __BADRAM  0X0F97-0X0F9A
                      00732   __BADRAM  0X0F9C
                      00733   __BADRAM  0X0FA3-0X0FA5
                      00734   __BADRAM  0X0FB9
  00300001            00735 CONFIG1H EQU 0X300001
  00300002            00736 CONFIG2L EQU 0X300002
  00300003            00737 CONFIG2H EQU 0X300003
  00300005            00738 CONFIG3H EQU 0X300005
  00300006            00739 CONFIG4L EQU 0X300006
  00300008            00740 CONFIG5L EQU 0X300008
  00300009            00741 CONFIG5H EQU 0X300009
  0030000A            00742 CONFIG6L EQU 0X30000A
  0030000B            00743 CONFIG6H EQU 0X30000B
  0030000C            00744 CONFIG7L EQU 0X30000C
  0030000D            00745 CONFIG7H EQU 0X30000D
  000000F0            00746 OSC_LP_1 EQU 0XF0
  000000F1            00747 OSC_XT_1 EQU 0XF1
  000000F2            00748 OSC_HS_1 EQU 0XF2
  000000F3            00749 OSC_RC_1 EQU 0XF3
  000000F4            00750 OSC_EC_1 EQU 0XF4
  000000F5            00751 OSC_ECIO6_1 EQU 0XF5
  000000F6            00752 OSC_HSPLL_1 EQU 0XF6
  000000F7            00753 OSC_RCIO6_1 EQU 0XF7
  000000F8            00754 OSC_INTIO67_1 EQU 0XF8
  000000F9            00755 OSC_INTIO7_1 EQU 0XF9
  000000BF            00756 FCMEN_OFF_1 EQU 0XBF
  000000FF            00757 FCMEN_ON_1 EQU 0XFF
  0000007F            00758 IESO_OFF_1 EQU 0X7F
  000000FF            00759 IESO_ON_1 EQU 0XFF
  000000FE            00760 PWRT_ON_2 EQU 0XFE
  000000FF            00761 PWRT_OFF_2 EQU 0XFF
  000000F9            00762 BOREN_OFF_2 EQU 0XF9
  000000FB            00763 BOREN_ON_2 EQU 0XFB
  000000FD            00764 BOREN_NOSLP_2 EQU 0XFD
  000000FF            00765 BOREN_SBORDIS_2 EQU 0XFF
  000000E7            00766 BORV_0_2 EQU 0XE7
  000000EF            00767 BORV_1_2 EQU 0XEF
  000000F7            00768 BORV_2_2 EQU 0XF7
  000000FF            00769 BORV_3_2 EQU 0XFF
  000000FE            00770 WDT_OFF_2 EQU 0XFE
  000000FF            00771 WDT_ON_2 EQU 0XFF
  000000E1            00772 WDTPS_1_2 EQU 0XE1
  000000E3            00773 WDTPS_2_2 EQU 0XE3
  000000E5            00774 WDTPS_4_2 EQU 0XE5
  000000E7            00775 WDTPS_8_2 EQU 0XE7
  000000E9            00776 WDTPS_16_2 EQU 0XE9
  000000EB            00777 WDTPS_32_2 EQU 0XEB
  000000ED            00778 WDTPS_64_2 EQU 0XED
  000000EF            00779 WDTPS_128_2 EQU 0XEF
  000000F1            00780 WDTPS_256_2 EQU 0XF1
  000000F3            00781 WDTPS_512_2 EQU 0XF3
  000000F5            00782 WDTPS_1024_2 EQU 0XF5
  000000F7            00783 WDTPS_2048_2 EQU 0XF7
  000000F9            00784 WDTPS_4096_2 EQU 0XF9
  000000FB            00785 WDTPS_8192_2 EQU 0XFB
  000000FD            00786 WDTPS_16384_2 EQU 0XFD
  000000FF            00787 WDTPS_32768_2 EQU 0XFF
  0000007F            00788 MCLRE_OFF_3 EQU 0X7F
  000000FF            00789 MCLRE_ON_3 EQU 0XFF
  000000FB            00790 LPT1OSC_OFF_3 EQU 0XFB
  000000FF            00791 LPT1OSC_ON_3 EQU 0XFF
  000000FD            00792 PBADEN_OFF_3 EQU 0XFD
  000000FF            00793 PBADEN_ON_3 EQU 0XFF
  000000FE            00794 CCP2MX_PORTBE_3 EQU 0XFE
  000000FF            00795 CCP2MX_PORTC_3 EQU 0XFF
  000000FE            00796 STVREN_OFF_4 EQU 0XFE
  000000FF            00797 STVREN_ON_4 EQU 0XFF
  000000FB            00798 LVP_OFF_4 EQU 0XFB
  000000FF            00799 LVP_ON_4 EQU 0XFF
  000000BF            00800 XINST_OFF_4 EQU 0XBF
  000000FF            00801 XINST_ON_4 EQU 0XFF
  0000007F            00802 DEBUG_ON_4 EQU 0X7F
  000000FF            00803 DEBUG_OFF_4 EQU 0XFF
  000000FE            00804 CP0_ON_5 EQU 0XFE
  000000FF            00805 CP0_OFF_5 EQU 0XFF
  000000FD            00806 CP1_ON_5 EQU 0XFD
  000000FF            00807 CP1_OFF_5 EQU 0XFF
  000000FB            00808 CP2_ON_5 EQU 0XFB
  000000FF            00809 CP2_OFF_5 EQU 0XFF
  000000BF            00810 CPB_ON_5 EQU 0XBF
  000000FF            00811 CPB_OFF_5 EQU 0XFF
  0000007F            00812 CPD_ON_5 EQU 0X7F
  000000FF            00813 CPD_OFF_5 EQU 0XFF
  000000FE            00814 WRT0_ON_6 EQU 0XFE
  000000FF            00815 WRT0_OFF_6 EQU 0XFF
  000000FD            00816 WRT1_ON_6 EQU 0XFD
  000000FF            00817 WRT1_OFF_6 EQU 0XFF
  000000FB            00818 WRT2_ON_6 EQU 0XFB
  000000FF            00819 WRT2_OFF_6 EQU 0XFF
  000000BF            00820 WRTB_ON_6 EQU 0XBF
  000000FF            00821 WRTB_OFF_6 EQU 0XFF
  000000DF            00822 WRTC_ON_6 EQU 0XDF
  000000FF            00823 WRTC_OFF_6 EQU 0XFF
  0000007F            00824 WRTD_ON_6 EQU 0X7F
  000000FF            00825 WRTD_OFF_6 EQU 0XFF
  000000FE            00826 EBTR0_ON_7 EQU 0XFE
  000000FF            00827 EBTR0_OFF_7 EQU 0XFF
  000000FD            00828 EBTR1_ON_7 EQU 0XFD
  000000FF            00829 EBTR1_OFF_7 EQU 0XFF
  000000FB            00830 EBTR2_ON_7 EQU 0XFB
  000000FF            00831 EBTR2_OFF_7 EQU 0XFF
  000000BF            00832 EBTRB_ON_7 EQU 0XBF
  000000FF            00833 EBTRB_OFF_7 EQU 0XFF
  003FFFFE            00834 DEVID1 EQU 0X3FFFFE
  003FFFFF            00835 DEVID2 EQU 0X3FFFFF
  00200000            00836 IDLOC0 EQU 0X200000
  00200000            00837 __IDLOC0 EQU 0X200000
  00200001            00838 IDLOC1 EQU 0X200001
  00200001            00839 __IDLOC1 EQU 0X200001
  00200002            00840 IDLOC2 EQU 0X200002
  00200002            00841 __IDLOC2 EQU 0X200002
  00200003            00842 IDLOC3 EQU 0X200003
  00200003            00843 __IDLOC3 EQU 0X200003
  00200004            00844 IDLOC4 EQU 0X200004
  00200004            00845 __IDLOC4 EQU 0X200004
  00200005            00846 IDLOC5 EQU 0X200005
  00200005            00847 __IDLOC5 EQU 0X200005
  00200006            00848 IDLOC6 EQU 0X200006
  00200006            00849 __IDLOC6 EQU 0X200006
  00200007            00850 IDLOC7 EQU 0X200007
  00200007            00851 __IDLOC7 EQU 0X200007
                      00902 #DEFINE __18F4525 1
                      00903 #DEFINE XTAL 4
                      00904 #DEFINE _CORE 16
                      00905 #DEFINE _MAXRAM 3968
                      00906 #DEFINE _RAM_END 3968
                      00907 #DEFINE _MAXMEM 49152
                      00908 #DEFINE _ADC 13
                      00909 #DEFINE _ADC_RES 10
                      00910 #DEFINE _EEPROM 1024
                      00911 #DEFINE RAM_BANKS 15
                      00912 #DEFINE _USART 1
                      00913 #DEFINE _USB 0
                      00914 #DEFINE _FLASH 1
                      00915 #DEFINE _CWRITE_BLOCK 8
                      00916 #DEFINE BANK0_START 128
                      00917 #DEFINE BANK0_END 255
                      00918 #DEFINE BANK1_START 256
                      00919 #DEFINE BANK1_END 511
                      00920 #DEFINE BANK2_START 512
                      00921 #DEFINE BANK2_END 767
                      00922 #DEFINE BANK3_START 768
                      00923 #DEFINE BANK3_END 1023
                      00924 #DEFINE BANK4_START 1024
                      00925 #DEFINE BANK4_END 1279
                      00926 #DEFINE BANK5_START 1280
                      00927 #DEFINE BANK5_END 1535
                      00928 #DEFINE BANK6_START 1536
                      00929 #DEFINE BANK6_END 1791
                      00930 #DEFINE BANK7_START 1792
                      00931 #DEFINE BANK7_END 2047
                      00932 #DEFINE BANK8_START 2048
                      00933 #DEFINE BANK8_END 2303
                      00934 #DEFINE BANK9_START 2304
                      00935 #DEFINE BANK9_END 2559
                      00936 #DEFINE BANK10_START 2560
                      00937 #DEFINE BANK10_END 2815
                      00938 #DEFINE BANK11_START 2816
                      00939 #DEFINE BANK11_END 3071
                      00940 #DEFINE BANK12_START 3072
                      00941 #DEFINE BANK12_END 3327
                      00942 #DEFINE BANK13_START 3328
                      00943 #DEFINE BANK13_END 3583
                      00944 #DEFINE BANK14_START 3584
                      00945 #DEFINE BANK14_END 3839
                      00946 #DEFINE BANKA_START 0
                      00947 #DEFINE BANKA_END 127
                      00948 #DEFINE _SYSTEM_VARIABLE_COUNT 17
  00000000            00949 RAM_BANK = 0
                      00950 #DEFINE LCD#DTPORT PORTD
                      00951 #DEFINE LCD#DTPIN 0
                      00952 #DEFINE LCD#RSPORT PORTD
                      00953 #DEFINE LCD#RSPIN 7
                      00954 #DEFINE LCD#ENPORT PORTD
                      00955 #DEFINE LCD#ENPIN 6
                      00956 #DEFINE LCD#INTERFACE 4
                      00957 #DEFINE LCD#LINES 2
                      00958 #DEFINE LCD#TYPE 0
                      00970 #DEFINE CLRW CLRF WREG
                      00971 #DEFINE NEGW NEGF WREG
                      00972 #DEFINE SKPC BTFSS STATUS,0
                      00973 #DEFINE SKPNC BTFSC STATUS,0
                      00974 #DEFINE CLRC BCF STATUS,0
                      00975 #DEFINE SETC BSF STATUS,0
                      00976 #DEFINE SKPZ BTFSS STATUS,2
                      00977 #DEFINE SKPNZ BTFSC STATUS,2
                      00978 #DEFINE CLRZ BCF STATUS,2
                      00979 #DEFINE SETZ BSF STATUS,2
                      00980 MOVFW MACRO M#VARIN
                      00981         MOVF M#VARIN,W
                      00982         ENDM
                      00983 RLF MACRO M#VARIN,M#DEST
                      00984         RLCF M#VARIN,M#DEST
                      00985         ENDM
                      00986 RRF MACRO M#VARIN,M#DEST
                      00987         RRCF M#VARIN,M#DEST
                      00988         ENDM
                      00989 JUMP MACRO LABEL
                      00990         GOTO LABEL
                      00991         ENDM
                      00992 F@CALL MACRO M#DEST
                      00993 IF (M#DEST < 1)
                      00994         CALL M#DEST
                      00995 ELSE
                      00996 IF (M#DEST > $)
                      00997         CALL M#DEST
                      00998 ELSE
                      00999 IF (M#DEST < ($ - 0X03FF))
                      01000         CALL M#DEST
                      01001 ELSE
                      01002         RCALL M#DEST
                      01003 ENDIF
                      01004 ENDIF
                      01005 ENDIF
                      01006         ENDM
                      01007 F@JUMP MACRO M#DEST
                      01008 IFDEF WATCHDOG_REQ
                      01009 IF ($ == M#DEST)
                      01010         CLRWDT
                      01011 ENDIF
                      01012 ENDIF
                      01013 IF (M#DEST < 1)
                      01014         GOTO M#DEST
                      01015 ELSE
                      01016 IF ((M#DEST) > $)
                      01017         GOTO M#DEST
                      01018 ELSE
                      01019 IF ((M#DEST) < ($ - 0X03FF))
                      01020         GOTO M#DEST
                      01021 ELSE
                      01022         BRA M#DEST
                      01023 ENDIF
                      01024 ENDIF
                      01025 ENDIF
                      01026         ENDM
                      01027 IFDEF WATCHDOG_REQ
                      01028         CHK@SLF MACRO M#DEST
                      01029 IF ($ == M#DEST)
                      01030         CLRWDT
                      01031 ENDIF
                      01032         ENDM
                      01033 ENDIF
                      01034 G@OTO MACRO M#DEST
                      01035 IF (M#DEST < 1)
                      01036         BTFSC STATUS,OV
                      01037         GOTO M#DEST
                      01038 ELSE
                      01039 IF (M#DEST > $)
                      01040         BTFSC STATUS,OV
                      01041         GOTO M#DEST
                      01042 ELSE
                      01043 IF (M#DEST < ($ - 127))
                      01044         BTFSC STATUS,OV
                      01045         GOTO M#DEST
                      01046 ELSE
                      01047         BOV M#DEST
                      01048 ENDIF
                      01049 ENDIF
                      01050 ENDIF
                      01051         ENDM
                      01052 GO@TO MACRO M#DEST
                      01053 IF (M#DEST < 1)
                      01054         GOTO M#DEST
                      01055 ELSE
                      01056 IF (M#DEST > $)
                      01057         GOTO M#DEST
                      01058 ELSE
                      01059 IF (M#DEST < ($ - 0X03FF))
                      01060         GOTO M#DEST
                      01061 ELSE
                      01062         BRA M#DEST
                      01063 ENDIF
                      01064 ENDIF
                      01065 ENDIF
                      01066         ENDM
                      01067 S@B MACRO M#VARIN
                      01068 IF ((M#VARIN > BANKA_END) & (M#VARIN < 0X0F80))
                      01069 IF ((M#VARIN & 0X0F00) != (RAM_BANK << 8))
                      01070         MOVLB HIGH (M#VARIN)
                      01071         RAM_BANK = (M#VARIN >> 8)
                      01072 ENDIF
                      01073 ENDIF
                      01074         ENDM
                      01075 R@B MACRO
                      01076 IF(RAM_BANK != 0)
                      01077         MOVLB 0
                      01078         RAM_BANK = 0
                      01079 ENDIF
                      01080         ENDM
                      01081 WREG_BYTE MACRO M#BYTEOUT
                      01082         MOVFF WREG,M#BYTEOUT
                      01083         ENDM
                      01084 WREG_BIT MACRO M#VAROUT,M#BITOUT
                      01085         S@B M#VAROUT
                      01086         BTFSC WREG,0
                      01087         BSF M#VAROUT,M#BITOUT
                      01088         BTFSS WREG,0
                      01089         BCF M#VAROUT,M#BITOUT
                      01090         R@B
                      01091         ENDM
                      01092 WREG_WORD MACRO M#WORDOUT
                      01093         MOVFF WREG,M#WORDOUT
                      01094         MOVLW 0
                      01095         MOVFF WREG,M#WORDOUT + 1
                      01096         ENDM
                      01097 WREG_DWORD MACRO M#DWORDOUT
                      01098         MOVFF WREG,M#DWORDOUT
                      01099         MOVLW 0
                      01100         MOVFF WREG,M#DWORDOUT + 3
                      01101         MOVFF WREG,M#DWORDOUT + 2
                      01102         MOVFF WREG,M#DWORDOUT + 1
                      01103         ENDM
                      01104 BYTE_WREG MACRO M#BYTEIN
                      01105         MOVFF M#BYTEIN,WREG
                      01106         ENDM
                      01107 NUM_WREG MACRO M#NUMIN
                      01108         MOVLW (M#NUMIN & 255)
                      01109         ENDM
                      01110 NUM_BYTE MACRO M#NUMIN,M#BYTEOUT
                      01111         MOVLW (M#NUMIN & 255)
                      01112         MOVFF WREG,M#BYTEOUT
                      01113         ENDM
                      01114 NUM_BIT MACRO M#NUMIN,M#VAROUT,M#BITOUT
                      01115         S@B M#VAROUT
                      01116 IF((M#NUMIN & 1) == 1)
                      01117         BSF M#VAROUT,M#BITOUT
                      01118 ELSE
                      01119         BCF M#VAROUT,M#BITOUT
                      01120 ENDIF
                      01121         R@B
                      01122         ENDM
                      01123 NUM_WORD MACRO M#NUMIN,M#WORDOUT
                      01124 IFDEF _USELFSR
                      01125 IF(M#WORDOUT == FSR0L)
                      01126         LFSR 0,M#NUMIN
                      01127         EXITM
                      01128 ENDIF
                      01129 IF(M#WORDOUT == FSR1L)
                      01130         LFSR 1,M#NUMIN
                      01131         EXITM
                      01132 ENDIF
                      01133 IF(M#WORDOUT == FSR2L)
                      01134         LFSR 2,M#NUMIN
                      01135         EXITM
                      01136 ENDIF
                      01137 ENDIF
                      01138         S@B M#WORDOUT
                      01139         MOVLW (M#NUMIN & 255)
                      01140         MOVWF M#WORDOUT
                      01141         S@B M#WORDOUT + 1
                      01142         MOVLW HIGH (M#NUMIN)
                      01143         MOVWF M#WORDOUT + 1
                      01144         R@B
                      01145         ENDM
                      01146 NUM_DWORD MACRO M#NUMIN,M#DWORDOUT
                      01147         S@B M#DWORDOUT
                      01148         MOVLW LOW (M#NUMIN)
                      01149         MOVWF M#DWORDOUT
                      01150         S@B M#DWORDOUT + 1
                      01151         MOVLW HIGH (M#NUMIN)
                      01152         MOVWF M#DWORDOUT + 1
                      01153         S@B M#DWORDOUT + 2
                      01154         MOVLW ((M#NUMIN >> 16) & 255)
                      01155         MOVWF M#DWORDOUT + 2
                      01156         S@B M#DWORDOUT + 3
                      01157         MOVLW ((M#NUMIN >> 24) & 255)
                      01158         MOVWF M#DWORDOUT + 3
                      01159         R@B
                      01160         ENDM
                      01161 BIT_WREG MACRO M#VARIN,M#BITIN
                      01162         S@B M#VARIN
                      01163         CLRW
                      01164         BTFSC M#VARIN,M#BITIN
                      01165         MOVLW 1
                      01166         R@B
                      01167         ENDM
                      01168 BIT_BYTE MACRO M#VARIN,M#BITIN,M#BYTEOUT
                      01169         S@B M#VARIN
                      01170         CLRW
                      01171         BTFSC M#VARIN,M#BITIN
                      01172         MOVLW 1
                      01173         S@B M#BYTEOUT
                      01174         MOVWF M#BYTEOUT
                      01175         R@B
                      01176         ENDM
                      01177 BIT_BIT MACRO M#VARIN,M#BITIN,M#VAROUT,M#BITOUT
                      01178 IF ((M#VARIN & 0X0F00) == (M#VAROUT & 0X0F00))
                      01179         S@B M#VARIN
                      01180         BTFSC M#VARIN,M#BITIN
                      01181         BSF M#VAROUT,M#BITOUT
                      01182         BTFSS M#VARIN,M#BITIN
                      01183         BCF M#VAROUT,M#BITOUT
                      01184 ELSE
                      01185 IF ((M#VARIN <= BANKA_END) | (M#VARIN >= 0X0F80))
                      01186         S@B M#VAROUT
                      01187         BTFSC M#VARIN,M#BITIN
                      01188         BSF M#VAROUT,M#BITOUT
                      01189         BTFSS M#VARIN,M#BITIN
                      01190         BCF M#VAROUT,M#BITOUT
                      01191 ELSE
                      01192 IF ((M#VAROUT <= BANKA_END) | (M#VAROUT >= 0X0F80))
                      01193         S@B M#VARIN
                      01194         BTFSC M#VARIN,M#BITIN
                      01195         BSF M#VAROUT,M#BITOUT
                      01196         BTFSS M#VARIN,M#BITIN
                      01197         BCF M#VAROUT,M#BITOUT
                      01198 ELSE
                      01199         S@B M#VARIN
                      01200         CLRDC
                      01201         BTFSC M#VARIN,M#BITIN
                      01202         SETDC
                      01203         S@B M#VAROUT
                      01204         SKPNDC
                      01205         BSF M#VAROUT,M#BITOUT
                      01206         SKPDC
                      01207         BCF M#VAROUT,M#BITOUT
                      01208 ENDIF
                      01209 ENDIF
                      01210 ENDIF
                      01211         R@B
                      01212         ENDM
                      01213 BIT_WORD MACRO M#VARIN,M#BITIN,M#WORDOUT
                      01214         S@B M#WORDOUT + 1
                      01215         CLRF M#WORDOUT + 1
                      01216         BIT_BYTE M#VARIN,M#BITIN,M#WORDOUT
                      01217         ENDM
                      01218 BIT_DWORD MACRO M#VARIN,M#BITIN,M#DWORDOUT
                      01219         S@B M#DWORDOUT + 3
                      01220         CLRF M#DWORDOUT + 3
                      01221         S@B M#DWORDOUT + 2
                      01222         CLRF M#DWORDOUT + 2
                      01223         S@B M#DWORDOUT + 1
                      01224         CLRF M#DWORDOUT + 1
                      01225         BIT_BYTE M#VARIN,M#BITIN,M#DWORDOUT
                      01226         ENDM
                      01227 WORD_WREG MACRO M#WORDIN
                      01228         BYTE_WREG M#WORDIN
                      01229         ENDM
                      01230 WORD_BYTE MACRO M#WORDIN,M#BYTEOUT
                      01231         BYTE_BYTE M#WORDIN,M#BYTEOUT
                      01232         ENDM
                      01233 WORD_BIT MACRO M#WORDIN,M#VAROUT,M#BITOUT
                      01234         BYTE_BIT M#WORDIN, M#VAROUT, M#BITOUT
                      01235         ENDM
                      01236 WORD_WORD MACRO M#WORDIN,M#WORDOUT
                      01237         MOVFF M#WORDIN + 1,M#WORDOUT + 1
                      01238         MOVFF M#WORDIN,M#WORDOUT
                      01239         ENDM
                      01240 WORD_DWORD MACRO M#WORDIN,M#DWORDOUT
                      01241         MOVLW 0
                      01242         MOVFF WREG,M#DWORDOUT + 3
                      01243         MOVFF WREG,M#DWORDOUT + 2
                      01244         WORD_WORD M#WORDIN,M#DWORDOUT
                      01245         ENDM
                      01246 BYTE_BYTE MACRO M#BYTEIN,M#BYTEOUT
                      01247         MOVFF M#BYTEIN,M#BYTEOUT
                      01248         ENDM
                      01249 BYTE_WORD MACRO M#BYTEIN,M#WORDOUT
                      01250         MOVLW 0
                      01251         MOVFF WREG,M#WORDOUT + 1
                      01252         BYTE_BYTE M#BYTEIN,M#WORDOUT
                      01253         ENDM
                      01254 BYTE_DWORD MACRO M#BYTEIN,M#DWORDOUT
                      01255         MOVLW 0
                      01256         MOVFF WREG,M#DWORDOUT + 3
                      01257         MOVFF WREG,M#DWORDOUT + 2
                      01258         MOVFF WREG,M#DWORDOUT + 1
                      01259         BYTE_BYTE M#BYTEIN,M#DWORDOUT
                      01260         ENDM
                      01261 BYTE_BIT MACRO M#BYTEIN,M#VAROUT,M#BITOUT
                      01262 IF ((M#BYTEIN & 0X0F00) == (M#VAROUT & 0X0F00))
                      01263         S@B M#BYTEIN
                      01264         BTFSC M#BYTEIN,0
                      01265         BSF M#VAROUT,M#BITOUT
                      01266         BTFSS M#BYTEIN,0
                      01267         BCF M#VAROUT,M#BITOUT
                      01268 ELSE
                      01269 IF ((M#BYTEIN <= BANKA_END) | (M#BYTEIN >= 0X0F80))
                      01270         S@B M#VAROUT
                      01271         BTFSC M#BYTEIN,0
                      01272         BSF M#VAROUT,M#BITOUT
                      01273         BTFSS M#BYTEIN,0
                      01274         BCF M#VAROUT,M#BITOUT
                      01275 ELSE
                      01276 IF ((M#VAROUT <= BANKA_END) | (M#VAROUT >= 0X0F80))
                      01277         S@B M#BYTEIN
                      01278         BTFSC M#BYTEIN,0
                      01279         BSF M#VAROUT,M#BITOUT
                      01280         BTFSS M#BYTEIN,0
                      01281         BCF M#VAROUT,M#BITOUT
                      01282 ELSE
                      01283         S@B M#BYTEIN
                      01284         RRF M#BYTEIN,W
                      01285         S@B M#VAROUT
                      01286         SKPNC
                      01287         BSF M#VAROUT,M#BITOUT
                      01288         SKPC
                      01289         BCF M#VAROUT,M#BITOUT
                      01290 ENDIF
                      01291 ENDIF
                      01292 ENDIF
                      01293         R@B
                      01294         ENDM
                      01295 DWORD_WREG MACRO M#DWORDIN
                      01296         BYTE_WREG M#DWORDIN
                      01297         ENDM
                      01298 DWORD_BYTE MACRO M#DWORDIN,M#BYTEOUT
                      01299         BYTE_BYTE M#DWORDIN,M#BYTEOUT
                      01300         ENDM
                      01301 DWORD_WORD MACRO M#DWORDIN,M#WORDOUT
                      01302         MOVFF M#DWORDIN + 1,M#WORDOUT + 1
                      01303         MOVFF M#DWORDIN,M#WORDOUT
                      01304         ENDM
                      01305 DWORD_DWORD MACRO M#DWORDIN,M#DWORDOUT
                      01306         MOVFF M#DWORDIN + 3,M#DWORDOUT + 3
                      01307         MOVFF M#DWORDIN + 2,M#DWORDOUT + 2
                      01308         MOVFF M#DWORDIN + 1,M#DWORDOUT + 1
                      01309         MOVFF M#DWORDIN,M#DWORDOUT
                      01310         ENDM
                      01311 DWORD_BIT MACRO M#DWORDIN,M#VAROUT,M#BITOUT
                      01312         BYTE_BIT M#DWORDIN,M#VAROUT,M#BITOUT
                      01313         ENDM
                      01314 NUM_FLOAT MACRO M#NUMIN,FLOATOUT
                      01315         NUM_BYTE M#NUMIN,FLOATOUT + 3
                      01316         NUM_BYTE ((M#NUMIN >> 8) & 255),FLOATOUT + 2
                      01317         NUM_BYTE ((M#NUMIN >> 16) & 255),FLOATOUT + 1
                      01318         NUM_BYTE ((M#NUMIN >> 24) & 255),FLOATOUT
                      01319         ENDM
                      01320 WREG_FLOAT MACRO FLOATOUT
                      01321         CALL FLO@0832U
                      01322         MOVFF PBP_AARG,FLOATOUT
                      01323         MOVFF PBP_AARGH,FLOATOUT + 1
                      01324         MOVFF PBP_AARGHH,FLOATOUT + 2
                      01325         MOVFF PBP_AARGHHH,FLOATOUT + 3
                      01326         ENDM
                      01327 BIT_FLOAT MACRO M#VARIN,M#BITIN,FLOATOUT
                      01328         BIT_WREG M#VARIN,M#BITIN
                      01329         CALL FLO@0832U
                      01330         MOVFF PBP_AARG,FLOATOUT
                      01331         MOVFF PBP_AARGH,FLOATOUT + 1
                      01332         MOVFF PBP_AARGHH,FLOATOUT + 2
                      01333         MOVFF PBP_AARGHHH,FLOATOUT + 3
                      01334         ENDM
                      01335 BYTE_FLOAT MACRO M#BYTEIN,FLOATOUT
                      01336         BYTE_WREG M#BYTEIN
                      01337         CALL FLO@0832U
                      01338         MOVFF PBP_AARG,FLOATOUT
                      01339         MOVFF PBP_AARGH,FLOATOUT + 1
                      01340         MOVFF PBP_AARGHH,FLOATOUT + 2
                      01341         MOVFF PBP_AARGHHH,FLOATOUT + 3
                      01342         ENDM
                      01343 WORD_FLOAT MACRO M#WORDIN,FLOATOUT
                      01344         BYTE_BYTE M#WORDIN,PBP_AARG
                      01345         BYTE_BYTE M#WORDIN + 1,PBP_AARGH
                      01346         CALL FLO@1632U
                      01347         MOVFF PBP_AARG,FLOATOUT
                      01348         MOVFF PBP_AARGH,FLOATOUT + 1
                      01349         MOVFF PBP_AARGHH,FLOATOUT + 2
                      01350         MOVFF PBP_AARGHHH,FLOATOUT + 3
                      01351         ENDM
                      01352 DWORD_FLOAT MACRO M#DWORDIN,FLOATOUT
                      01353         MOVFF M#DWORDIN,PBP_AARG
                      01354         MOVFF M#DWORDIN + 1,PBP_AARGH
                      01355         MOVFF M#DWORDIN + 2,PBP_AARGHH
                      01356         MOVFF M#DWORDIN + 3,PBP_AARGHHH
                      01357         CALL FLO@3232S
                      01358         MOVFF PBP_AARG,FLOATOUT
                      01359         MOVFF PBP_AARGH,FLOATOUT + 1
                      01360         MOVFF PBP_AARGHH,FLOATOUT + 2
                      01361         MOVFF PBP_AARGHHH,FLOATOUT + 3
                      01362         ENDM
                      01363 FLOAT_FLOAT MACRO FLOATIN,FLOATOUT
                      01364         MOVFF FLOATIN,FLOATOUT
                      01365         MOVFF FLOATIN + 1,FLOATOUT + 1
                      01366         MOVFF FLOATIN + 2,FLOATOUT + 2
                      01367         MOVFF FLOATIN + 3,FLOATOUT + 3
                      01368         ENDM
                      01369 FLOAT_WREG MACRO FLOATIN
                      01370         FLOAT_FLOAT FLOATIN,PBP_AARG
                      01371         CALL INT@3232
                      01372         ENDM
                      01373 FLOAT_BIT MACRO FLOATIN,M#VAROUT,M#BITOUT
                      01374         FLOAT_FLOAT FLOATIN,PBP_AARG
                      01375         CALL INT@3232
                      01376         WREG_BIT M#VAROUT,M#BITOUT
                      01377         ENDM
                      01378 FLOAT_BYTE MACRO FLOATIN,M#BYTEOUT
                      01379         FLOAT_FLOAT FLOATIN,PBP_AARG
                      01380         CALL INT@3232
                      01381         WREG_BYTE M#BYTEOUT
                      01382         ENDM
                      01383 FLOAT_WORD MACRO FLOATIN,M#WORDOUT
                      01384         FLOAT_FLOAT FLOATIN,PBP_AARG
                      01385         CALL INT@3232
                      01386         MOVFF PBP_AARGHHH,M#WORDOUT
                      01387         MOVFF PBP_AARGHH,M#WORDOUT + 1
                      01388         ENDM
                      01389 FLOAT_DWORD MACRO FLOATIN,M#DWORDOUT
                      01390         FLOAT_FLOAT FLOATIN,PBP_AARG
                      01391         CALL INT@3232
                      01392         MOVFF PBP_AARGHHH,M#DWORDOUT
                      01393         MOVFF PBP_AARGHH,M#DWORDOUT + 1
                      01394         MOVFF PBP_AARGH,M#DWORDOUT + 2
                      01395         MOVFF PBP_AARG,M#DWORDOUT + 3
                      01396         ENDM
                      01397 NUM_FSR0 MACRO M#NUMIN
                      01398         LFSR 0, M#NUMIN
                      01399         ENDM
                      01400 NUM_FSR1 MACRO M#NUMIN
                      01401         LFSR 1, M#NUMIN
                      01402         ENDM
                      01403 NUM_FSR2 MACRO M#NUMIN
                      01404         LFSR 2, M#NUMIN
                      01405         ENDM
                      01406 LABEL_WORD MACRO LABELIN,M#WORDOUT
                      01407         MOVLW LOW (LABELIN)
                      01408         MOVFF WREG, M#WORDOUT
                      01409         MOVLW HIGH (LABELIN)
                      01410         MOVFF WREG, M#WORDOUT + 1
                      01411         ENDM
  00000000            01413 BPF = 0
  00000001            01414 BPFH = 1
  00000002            01415 GEN = 2
  00000003            01416 GEN4 = 3
  00000004            01417 GEN4H = 4
  00000005            01418 PP0 = 5
  00000006            01419 PP0H = 6
  00000007            01420 PP1 = 7
  00000008            01421 PP1H = 8
  00000009            01422 PP2 = 9
  0000000A            01423 PP2H = 10
  0000000B            01424 PP3 = 11
  0000000C            01425 PP3H = 12
  0000000D            01426 PP4 = 13
  0000000E            01427 PP5 = 14
  0000000F            01428 PP7 = 15
  00000010            01429 PP7H = 16
  00000011            01430 VAR1 = 17
  00000012            01431 VAR1H = 18
                      01432 #DEFINE SD_CS PORTC,2
                      01433 #DEFINE SD_DI PORTC,5
                      01434 #DEFINE SD_CLK PORTC,3
                      01435 #DEFINE SD_DO PORTC,4
                      01436 #DEFINE __KEYPAD_PORT PORTB
                      01437 #DEFINE __LCD_DTPORT PORTD
                      01438 #DEFINE __LCD_ENPORT PORTD
                      01439 #DEFINE __LCD_RSPORT PORTD
                      01440 #DEFINE SD_DETECT PORTA,1
                      01441 #DEFINE RFIDENABLE PORTD,4
                      01442 #DEFINE GIE INTCON,7
                      01443 #DEFINE __XTAL 4
                      01444 #DEFINE __LCD_TYPE 0
                      01445 #DEFINE __LCD_DTPIN 0
                      01446 #DEFINE __LCD_ENPIN 6
                      01447 #DEFINE __LCD_RSPIN 7
                      01448 #DEFINE __LCD_INTERFACE 4
                      01449 #DEFINE __LCD_LINES 2
                      01450 #DEFINE __HSERIAL_BAUD 9600
                      01451 #DEFINE __HSERIAL_RCSTA 144
                      01452 #DEFINE __HSERIAL_TXSTA 32
                      01453 #DEFINE __ADIN_RES 10
                      01454 #DEFINE __ADIN_DELAY 50
000000                01455 PROTON#CODE#START
000000                01456         ORG 0
000000 EF07 F001      01457         GOTO PROTON#MAIN#START
000008                01458         ORG 8
000008                01459 LCD@CLS
000008 0E80           01460         MOVLW 128
00000A 6E01           01461         MOVWF 1
00000C                01462 CLS
00000C 0EFE           01463         MOVLW 254
00000E ECA4 F000      01464         CALL CH@SND
000012 0E01           01465         MOVLW 1
000014 ECA4 F000      01466         CALL CH@SND
000018 0E75           01467         MOVLW 117
00001A 6E06           01468         MOVWF 6
00001C 0E30           01469         MOVLW 48
00001E EFCB F000      01470         GOTO DLUS@W
000022                01471 LCD@CRS
000022 6A01           01472         CLRF 1
000024 8E01           01473         BSF 1,7
000026                01474 CURS@
000026 6E0E           01475         MOVWF 14
000028 0EFE           01476         MOVLW 254
00002A ECA4 F000      01477         CALL CH@SND
00002E 500E           01478         MOVF 14,W
000030 EFA4 F000      01479         GOTO CH@SND
000034                01480 OUT@DEC
000034 9600           01481         BCF 0,3
000036 5004           01482         MOVF 4,W
000038 B4D8           01483         BTFSC 4056,2
00003A 8600           01484         BSF 0,3
00003C 0E05           01485         MOVLW 5
00003E 6E03           01486         MOVWF 3
000040 0E27           01487         MOVLW 39
000042 6E08           01488         MOVWF 8
000044 0E10           01489         MOVLW 16
000046 D80C           01490         RCALL D@DIG
000048 0E03           01491         MOVLW 3
00004A 6E08           01492         MOVWF 8
00004C 0EE8           01493         MOVLW 232
00004E D808           01494         RCALL D@DIG
000050 6A08           01495         CLRF 8
000052 0E64           01496         MOVLW 100
000054 D805           01497         RCALL D@DIG
000056 6A08           01498         CLRF 8
000058 0E0A           01499         MOVLW 10
00005A D802           01500         RCALL D@DIG
00005C 5009           01501         MOVF 9,W
00005E D008           01502         BRA SEND@IT
000060                01503 D@DIG
000060 6E07           01504         MOVWF 7
000062 500A           01505         MOVF 10,W
000064 6E06           01506         MOVWF 6
000066 5009           01507         MOVF 9,W
000068 6E05           01508         MOVWF 5
00006A ECDE F000      01509         CALL D@VD
00006E 5005           01510         MOVF 5,W
000070                01511 SEND@IT
000070 6E05           01512         MOVWF 5
000072 4E03           01513         DCFSNZ 3,F
000074 9600           01514         BCF 0,3
000076 5004           01515         MOVF 4,W
000078 E003           01516         BZ $ + 8
00007A 5C03           01517         SUBWF 3,W
00007C B0D8           01518         BTFSC 4056,0
00007E D008           01519         BRA EX@SEND@IT
000080 5005           01520         MOVF 5,W
000082 A4D8           01521         BTFSS 4056,2
000084 9600           01522         BCF 0,3
000086 B600           01523         BTFSC 0,3
000088 D003           01524         BRA EX@SEND@IT
00008A 0F30           01525         ADDLW 48
00008C EFA4 F000      01526         GOTO CH@SND
000090                01527 EX@SEND@IT
000090 0012           01528         RETURN
000092                01529 PRINT@MSTR
000092                01530 PRINT@MSTRL
000092 6AA6           01531         CLRF 4006
000094 8EA6           01532         BSF 4006,PP_EEPGD
000096                01533 PRT@MTL1
000096 0009           01534         TBLRD*+
000098 50F5           01535         MOVF 4085,W
00009A E002           01536         BZ PRT@MTEXT
00009C D802           01537         RCALL PRINT
00009E D7FB           01538         BRA PRT@MTL1
0000A0                01539 PRT@MTEXT
0000A0 0012           01540         RETURN
0000A2                01541 PRINT
0000A2 6E0C           01542         MOVWF 12
0000A4 9C8C           01543         BCF LATD,6
0000A6 0000           01544         NOP
0000A8 9E8C           01545         BCF LATD,7
0000AA 9C95           01546         BCF TRISD,6
0000AC 9E95           01547         BCF TRISD,7
0000AE 0EF0           01548         MOVLW 240
0000B0 1695           01549         ANDWF TRISD,F
0000B2 500C           01550         MOVF 12,W
0000B4 B200           01551         BTFSC 0,1
0000B6 EF7F F000      01552         GOTO PRT@1
0000BA 0E3A           01553         MOVLW 58
0000BC 6E06           01554         MOVWF 6
0000BE 0E98           01555         MOVLW 152
0000C0 ECCB F000      01556         CALL DLUS@W
0000C4 0E33           01557         MOVLW 51
0000C6 6E0B           01558         MOVWF 11
0000C8 D82E           01559         RCALL PR@LP
0000CA 0E13           01560         MOVLW 19
0000CC 6E06           01561         MOVWF 6
0000CE 0E88           01562         MOVLW 136
0000D0 ECCB F000      01563         CALL DLUS@W
0000D4 D828           01564         RCALL PR@LP
0000D6 0E64           01565         MOVLW 100
0000D8 ECCA F000      01566         CALL DL@US
0000DC D824           01567         RCALL PR@LP
0000DE 0E64           01568         MOVLW 100
0000E0 ECCA F000      01569         CALL DL@US
0000E4 0E22           01570         MOVLW 34
0000E6 6E0B           01571         MOVWF 11
0000E8 D81E           01572         RCALL PR@LP
0000EA 0E28           01573         MOVLW 40
0000EC D807           01574         RCALL PR@CM
0000EE 0E0C           01575         MOVLW 12
0000F0 D805           01576         RCALL PR@CM
0000F2 0E06           01577         MOVLW 6
0000F4 D803           01578         RCALL PR@CM
0000F6 8200           01579         BSF 0,1
0000F8 500C           01580         MOVF 12,W
0000FA D001           01581         BRA PRT@1
0000FC                01582 PR@CM
0000FC 8000           01583         BSF 0,0
0000FE                01584 PRT@1
0000FE 6E0B           01585         MOVWF 11
000100 A000           01586         BTFSS 0,0
000102 D00B           01587         BRA PR@CC
000104 9E8C           01588         BCF LATD,7
000106 0803           01589         SUBLW 3
000108 E30C           01590         BNC PR@SD
00010A D80B           01591         RCALL PR@SD
00010C 0E07           01592         MOVLW 7
00010E 6E06           01593         MOVWF 6
000110 0ED0           01594         MOVLW 208
000112 ECCB F000      01595         CALL DLUS@W
000116 80D8           01596         BSF 4056,0
000118 0012           01597         RETURN
00011A                01598 PR@CC
00011A 8000           01599         BSF 0,0
00011C 08FE           01600         SUBLW 254
00011E E012           01601         BZ PR@EX
000120 8E8C           01602         BSF LATD,7
000122                01603 PR@SD
000122 3A0B           01604         SWAPF 11,F
000124 A000           01605         BTFSS 0,0
000126                01606 PR@LP
000126 9000           01607         BCF 0,0
000128 8C8C           01608         BSF LATD,6
00012A 0EF0           01609         MOVLW 240
00012C 1683           01610         ANDWF PORTD,F
00012E 500B           01611         MOVF 11,W
000130 0B0F           01612         ANDLW 15
000132 1283           01613         IORWF PORTD,F
000134 9C8C           01614         BCF LATD,6
000136 3A0B           01615         SWAPF 11,F
000138 B000           01616         BTFSC 0,0
00013A D7F5           01617         BRA PR@LP
00013C 0E32           01618         MOVLW 50
00013E ECCA F000      01619         CALL DL@US
000142 80D8           01620         BSF 4056,0
000144                01621 PR@EX
000144 500C           01622         MOVF 12,W
000146 0012           01623         RETURN
000148                01624 CH@SND
000148 BE01           01625         BTFSC 1,7
00014A EF51 F000      01626         GOTO PRINT
  00000032            01627 ADIN_STIME = 50
  00000003            01628 ADIN_TAD = 3
  0000000A            01629 ADIN_RES = 10
00014E                01630 RD@AD
00014E 36E8           01631         RLCF 4072,F
000150 36E8           01632         RLCF 4072,F
000152 0B3C           01633         ANDLW 60
000154 0901           01634         IORLW 1
000156 12C2           01635         IORWF 4034,F
000158 09C0           01636         IORLW 192
00015A 16C2           01637         ANDWF 4034,F
00015C 50C0           01638         MOVF 4032,W
00015E 0BF8           01639         ANDLW 248
000160 0903           01640         IORLW 3
000162 6EC0           01641         MOVWF 4032
000164 0E32           01642         MOVLW 50
000166 ECCA F000      01643         CALL DL@US
00016A 82C2           01644         BSF 4034,PP_GO_DONE
00016C B2C2           01645         BTFSC 4034,PP_GO_DONE
00016E D7FE           01646         BRA $ - 2
000170 CFC4 F010      01647         MOVFF 4036,16
000174 50C3           01648         MOVF 4035,W
000176 6E0F           01649         MOVWF 15
000178 0012           01650         RETURN
00017A                01651 DL@MS
00017A 6A08           01652         CLRF 8
00017C                01653 DLY@W
00017C 6E07           01654         MOVWF 7
00017E                01655 DLY@P
00017E 0EFF           01656         MOVLW 255
000180 2607           01657         ADDWF 7,F
000182 2208           01658         ADDWFC 8,F
000184 D000           01659         BRA $ + 2
000186 A0D8           01660         BTFSS 4056,0
000188 0012           01661         RETURN
00018A 0E03           01662         MOVLW 3
00018C 6E06           01663         MOVWF 6
00018E 0EDF           01664         MOVLW 223
000190 D802           01665         RCALL DLUS@W
000192 D7F5           01666         BRA DLY@P
000194                01667 DL@US
000194 6A06           01668         CLRF 6
000196                01669 DLUS@W
000196 0FE9           01670         ADDLW 233
000198 6E05           01671         MOVWF 5
00019A 0EFC           01672         MOVLW 252
00019C E305           01673         BNC $ + 12
00019E 0000           01674         NOP
0001A0 0000           01675         NOP
0001A2 2605           01676         ADDWF 5,F
0001A4 E2FD           01677         BC $ - 4
0001A6 0000           01678         NOP
0001A8 2605           01679         ADDWF 5,F
0001AA 0606           01680         DECF 6,F
0001AC E2F9           01681         BC $ - 12
0001AE B005           01682         BTFSC 5,0
0001B0 D000           01683         BRA $ + 2
0001B2 A205           01684         BTFSS 5,1
0001B4 D002           01685         BRA $ + 6
0001B6 D000           01686         BRA $ + 2
0001B8 0000           01687         NOP
0001BA 0012           01688         RETURN
0001BC                01689 D@VD
0001BC 6A0A           01690         CLRF 10
0001BE 6A09           01691         CLRF 9
0001C0                01692 D@VD2
0001C0 0E10           01693         MOVLW 16
0001C2 6EF3           01694         MOVWF 4083
0001C4                01695 DV@LP
0001C4 3406           01696         RLCF 6,W
0001C6 3609           01697         RLCF 9,F
0001C8 360A           01698         RLCF 10,F
0001CA 5007           01699         MOVF 7,W
0001CC 5C09           01700         SUBWF 9,W
0001CE 5008           01701         MOVF 8,W
0001D0 580A           01702         SUBWFB 10,W
0001D2 E305           01703         BNC D@K
0001D4 5007           01704         MOVF 7,W
0001D6 5E09           01705         SUBWF 9,F
0001D8 5008           01706         MOVF 8,W
0001DA 5A0A           01707         SUBWFB 10,F
0001DC 80D8           01708         BSF 4056,0
0001DE                01709 D@K
0001DE 3605           01710         RLCF 5,F
0001E0 3606           01711         RLCF 6,F
0001E2 2EF3           01712         DECFSZ 4083,F
0001E4 D7EF           01713         BRA DV@LP
0001E6 5005           01714         MOVF 5,W
0001E8 0012           01715         RETURN
0001EA                01716 STR@LB1
0001EA 6F47 6E69 2067 01717         DB 71,111,105,110,103,32,116,111,32,115,108,101,101,112,46,46,0
       6F74 7320 656C 
       7065 2E2E 0000 
0001FC                01718 STR@LB2
0001FC 2049 756A 7473 01719         DB 73,32,106,117,115,116,32,119,111,107,101,32,117,112,33,33,0
       7720 6B6F 2065 
       7075 2121 0000 
00020E                01720 PROTON#MAIN#START
00020E 6AF8           01721         CLRF 4088
000210 6A00           01722         CLRF 0
000212 6AAB           01723         CLRF 4011
  00000214            01725 F2_SOF EQU $ ; AD TEST.PRP
  00000214            01726 F3_SOF EQU $ ; AD TEST_FWD.PBP
  00000214            01727 F3_EOF EQU $ ; AD TEST_FWD.PBP
  00000214            01728 F2_EOF EQU $ ; AD TEST.PRP
  00000214            01729 F1_SOF EQU $ ; AD TEST.BAS
  00000214            01730 F1_000036 EQU $ ; IN [AD TEST.BAS] ALL_DIGITAL = TRUE
000214 0E07           01731         MOVLW 7
000216 6EB4           01732         MOVWF CMCON,0
000218 0E0F           01733         MOVLW 15
00021A 6EC1           01734         MOVWF ADCON1,0
  0000021C            01735 F1_000054 EQU $ ; IN [AD TEST.BAS] INTCON2.6 = 1        'SET TO ALLOW PORTB.0 TO DETECT A LOW TO HIGH PULSE
00021C 8CF1           01736         BSF INTCON2,6,0
  0000021E            01737 F1_000056 EQU $ ; IN [AD TEST.BAS] PORTB_PULLUPS = TRUE           ' ENABLE PORTB PULLUPS
00021E 9EF1           01738         BCF INTCON2,7,0
  00000220            01739 F1_000057 EQU $ ; IN [AD TEST.BAS] INTCON.4 = 0             'SET WAKEUP ON PORTB.0 TO OFF
000220 98F2           01740         BCF INTCON,4,0
  00000222            01741 F1_000058 EQU $ ; IN [AD TEST.BAS] INTCON.1 = 0  'CLEAR THE INTERRUPT FLAG FOR PORTB.0
000222 92F2           01742         BCF INTCON,1,0
  00000224            01743 F1_000065 EQU $ ; IN [AD TEST.BAS] TRISA = %00000011         ' CONFIGURE AN0 AND AN1(PORTA.0 AND PORTA.1) AS AN INPUT
000224 0E03           01744         MOVLW 3
000226 6E92           01745         MOVWF TRISA,0
  00000228            01746 F1_000066 EQU $ ; IN [AD TEST.BAS] ADCON1 = %10001110        ' SET ANALOGUE INPUT ON PORTA.0
000228 0E8E           01747         MOVLW 142
00022A 6EC1           01748         MOVWF ADCON1,0
00022C                01749 START
  0000022C            01750 F1_000070 EQU $ ; IN [AD TEST.BAS] GIE = 0      ' TURN OFF GLOBAL INTERRUPTS
00022C 9EF2           01751         BCF INTCON,7,0
  0000022E            01752 F1_000071 EQU $ ; IN [AD TEST.BAS] WHILE GIE = 1 : GIE = 0 : WEND  ' AND MAKE SURE THEY ARE OFF
00022E                01753 BC@LL1
00022E AEF2           01754         BTFSS INTCON,7,0
                      01755         GO@TO BC@LL2
000234 9EF2           01756         BCF INTCON,7,0
                      01757         F@JUMP BC@LL1
000238                01758 BC@LL2
  00000238            01759 F1_000073 EQU $ ; IN [AD TEST.BAS] GOTO GOSLEEP
                      01760         F@JUMP GOSLEEP
00023C                01761 AGAIN
  0000023C            01762 F1_000075 EQU $ ; IN [AD TEST.BAS] VAR1 = ADIN 0             ' PLACE THE CONVERSION INTO VARIABLE VAR1
00023C 0E00           01763         MOVLW 0
                      01764         F@CALL RD@AD
000240 6E11           01765         MOVWF VAR1,0
000242 C010 F012      01766         MOVFF PP7H,VAR1H
  00000246            01767 F1_000076 EQU $ ; IN [AD TEST.BAS] PAUSE 100
000246 0E64           01768         MOVLW 100
                      01769         F@CALL DL@MS
  0000024A            01770 F1_000077 EQU $ ; IN [AD TEST.BAS] PRINT AT 1,1, DEC VAR1
00024A 0E80           01771         MOVLW 128
00024C 6E01           01772         MOVWF BPFH,0
                      01773         F@CALL LCD@CRS
000250 6A04           01774         CLRF GEN4H,0
000252 C012 F00A      01775         MOVFF VAR1H,PP2H
000256 C011 F009      01776         MOVFF VAR1,PP2
                      01777         F@CALL OUT@DEC
  0000025C            01778 F1_000078 EQU $ ; IN [AD TEST.BAS] GOTO AGAIN
                      01779         F@JUMP AGAIN
  0000025E            01780 F4_SOF EQU $ ; GOSLEEP.INC
00025E                01781 GOSLEEP
  0000025E            01782 F4_000003 EQU $ ; IN [GOSLEEP.INC] CLS
                      01783         F@CALL LCD@CLS
  00000260            01784 F4_000004 EQU $ ; IN [GOSLEEP.INC] PRINT AT 1,1, "GOING TO SLEEP.."
000260 0E80           01785         MOVLW 128
000262 6E01           01786         MOVWF BPFH,0
                      01787         F@CALL LCD@CRS
000266 0E01           01788         MOVLW HIGH (STR@LB1)
000268 6EF7           01789         MOVWF TBLPTRLH,0
00026A 0EEA           01790         MOVLW LOW (STR@LB1)
00026C 6EF6           01791         MOVWF TBLPTRL,0
                      01792         F@CALL PRINT@MSTR
  00000270            01793 F4_000005 EQU $ ; IN [GOSLEEP.INC] PAUSE 2000
000270 0E07           01794         MOVLW 7
000272 6E08           01795         MOVWF PP1H,0
000274 0ED0           01796         MOVLW 208
                      01797         F@CALL DLY@W
  00000278            01798 F4_000006 EQU $ ; IN [GOSLEEP.INC] INTCON.4 = 1 'ALLOW A THE PULSE ON PORTB.0 TO WAKE PROGRAM FROM SLEEP
000278 88F2           01799         BSF INTCON,4,0
  0000027A            01800 F4_000007 EQU $ ; IN [GOSLEEP.INC] INTCON.1 = 0  'CLEAR THE INTERRUPT FLAG FOR PORTB.0
00027A 92F2           01801         BCF INTCON,1,0
  0000027C            01802 F4_000010 EQU $ ; IN [GOSLEEP.INC] SLEEP    'CHIP GOES INTO LOW POWER UNTIL IT IS TRIGGERED BY A HIGH TO LOW PULSE ON PORTB.0
00027C 0003           01803         SLEEP
  0000027E            01804 F4_000011 EQU $ ; IN [GOSLEEP.INC] INTCON.4 = 0 'STOP ANY PULSE FROM WAKING UP PROGRAM CAUSE WE JUST WOKE UP
00027E 98F2           01805         BCF INTCON,4,0
  00000280            01806 F4_000012 EQU $ ; IN [GOSLEEP.INC] CLS
                      01807         F@CALL LCD@CLS
  00000282            01808 F4_000013 EQU $ ; IN [GOSLEEP.INC] PRINT AT 1,1, "I JUST WOKE UP!!"
000282 0E80           01809         MOVLW 128
000284 6E01           01810         MOVWF BPFH,0
                      01811         F@CALL LCD@CRS
000288 0E01           01812         MOVLW HIGH (STR@LB2)
00028A 6EF7           01813         MOVWF TBLPTRLH,0
00028C 0EFC           01814         MOVLW LOW (STR@LB2)
00028E 6EF6           01815         MOVWF TBLPTRL,0
                      01816         F@CALL PRINT@MSTR
  00000292            01817 F4_000018 EQU $ ; IN [GOSLEEP.INC] PAUSE 2000
000292 0E07           01818         MOVLW 7
000294 6E08           01819         MOVWF PP1H,0
000296 0ED0           01820         MOVLW 208
                      01821         F@CALL DLY@W
  0000029A            01822 F4_000026 EQU $ ; IN [GOSLEEP.INC] GOTO GOSLEEP      'GO BACK TO SLEEP
                      01823         F@JUMP GOSLEEP
  0000029C            01824 F4_EOF EQU $ ; GOSLEEP.INC
  0000029C            01825 F1_EOF EQU $ ; AD TEST.BAS
00029C                01826 PB@LB4
00029C D7FF           01827         BRA PB@LB4
00029E                01829 __EOF
01 18 1F 81 84 0F C0 001830 CONFIG OSC = XT
       F E0 0F 40 
                      01831 CONFIG PWRT = ON
                      01832 CONFIG BOREN = OFF
                      01833 CONFIG MCLRE = ON
                      01834 CONFIG PBADEN = OFF
                      01835 CONFIG STVREN = OFF
                      01836 CONFIG LVP = ON
                      01837         END
MPASM  5.20                               A.S   4-11-2009  7:15:23         PAGE  2


SYMBOL TABLE
  LABEL                             VALUE 

ABDEN                             00000000
ABDOVF                            00000007
ACKDT                             00000005
ACKEN                             00000004
ACKSTAT                           00000006
ACQT0                             00000003
ACQT1                             00000004
ACQT2                             00000005
ADCON0                            00000FC2
ADCON1                            00000FC1
ADCON2                            00000FC0
ADCS0                             00000000
ADCS1                             00000001
ADCS2                             00000002
ADDEN                             00000003
ADEN                              00000003
ADFM                              00000007
ADIE                              00000006
ADIF                              00000006
ADIN_RES                          0000000A
ADIN_STIME                        00000032
ADIN_TAD                          00000003
ADIP                              00000006
ADON                              00000000
ADRES                             00000FC3
ADRESH                            00000FC4
ADRESL                            00000FC3
ADRESLH                           00000FC4
AGAIN                             0000023C
AN10                              00000001
AN11                              00000004
AN12                              00000000
AN4                               00000005
AN5                               00000000
AN6                               00000001
AN7                               00000002
AN8                               00000002
AN9                               00000003
BANK0_END                         255
BANK0_START                       128
BANK10_END                        2815
BANK10_START                      2560
BANK11_END                        3071
BANK11_START                      2816
BANK12_END                        3327
BANK12_START                      3072
BANK13_END                        3583
BANK13_START                      3328
BANK14_END                        3839
BANK14_START                      3584
BANK1_END                         511
BANK1_START                       256
BANK2_END                         767
BANK2_START                       512
BANK3_END                         1023
BANK3_START                       768
BANK4_END                         1279
BANK4_START                       1024
BANK5_END                         1535
BANK5_START                       1280
BANK6_END                         1791
BANK6_START                       1536
BANK7_END                         2047
BANK7_START                       1792
BANK8_END                         2303
BANK8_START                       2048
BANK9_END                         2559
BANK9_START                       2304
BANKA_END                         127
BANKA_START                       0
BAUDCON                           00000FB8
BAUDCTL                           00000FB8
BC@LL1                            0000022E
BC@LL2                            00000238
BCLIE                             00000003
BCLIF                             00000003
BCLIP                             00000003
BF                                00000000
BGST                              00000005
BIT_BIT                           
BIT_BYTE                          
BIT_DWORD                         
BIT_FLOAT                         
BIT_WORD                          
BIT_WREG                          
BOR                               00000000
BOREN_NOSLP_2                     000000FD
BOREN_OFF_2                       000000F9
BOREN_ON_2                        000000FB
BOREN_SBORDIS_2                   000000FF
BORV_0_2                          000000E7
BORV_1_2                          000000EF
BORV_2_2                          000000F7
BORV_3_2                          000000FF
BPF                               00000000
BPFH                              00000001
BRG16                             00000003
BRGH                              00000002
BSR                               00000FE0
BYTE_BIT                          
BYTE_BYTE                         
BYTE_DWORD                        
BYTE_FLOAT                        
BYTE_WORD                         
BYTE_WREG                         
C                                 00000000
C1INV                             00000004
C1OUT                             00000006
C2INV                             00000005
C2OUT                             00000007
CCP1                              00000002
CCP1CON                           00000FBD
CCP1IE                            00000002
CCP1IF                            00000002
CCP1IP                            00000002
CCP1M0                            00000000
CCP1M1                            00000001
CCP1M2                            00000002
CCP1M3                            00000003
CCP1X                             00000005
CCP1Y                             00000004
CCP2CON                           00000FBA
CCP2IE                            00000000
CCP2IF                            00000000
CCP2IP                            00000000
CCP2M0                            00000000
CCP2M1                            00000001
CCP2M2                            00000002
CCP2M3                            00000003
CCP2MX_PORTBE_3                   000000FE
CCP2MX_PORTC_3                    000000FF
CCP2X                             00000005
CCP2Y                             00000004
CCP2_PORTB                        00000003
CCP2_PORTC                        00000001
CCPR1                             00000FBE
CCPR1H                            00000FBF
CCPR1L                            00000FBE
CCPR1LH                           00000FBF
CCPR2                             00000FBB
CCPR2H                            00000FBC
CCPR2L                            00000FBB
CCPR2LH                           00000FBC
CFGS                              00000006
CH@SND                            00000148
CHS0                              00000002
CHS1                              00000003
CHS2                              00000004
CHS3                              00000005
CIS                               00000003
CK                                00000006
CKE                               00000006
CKP                               00000004
CLRC                              BCF STATUS,0
CLRW                              CLRF WREG
CLRZ                              BCF STATUS,2
CLS                               0000000C
CM0                               00000000
CM1                               00000001
CM2                               00000002
CMCON                             00000FB4
CMIE                              00000006
CMIF                              00000006
CMIP                              00000006
CONFIG1H                          00300001
CONFIG2H                          00300003
CONFIG2L                          00300002
CONFIG3H                          00300005
CONFIG4L                          00300006
CONFIG5H                          00300009
CONFIG5L                          00300008
CONFIG6H                          0030000B
CONFIG6L                          0030000A
CONFIG7H                          0030000D
CONFIG7L                          0030000C
CONFIG_REQ                        1
CP0_OFF_5                         000000FF
CP0_ON_5                          000000FE
CP1_OFF_5                         000000FF
CP1_ON_5                          000000FD
CP2_OFF_5                         000000FF
CP2_ON_5                          000000FB
CPB_OFF_5                         000000FF
CPB_ON_5                          000000BF
CPD_OFF_5                         000000FF
CPD_ON_5                          0000007F
CREN                              00000004
CS                                00000002
CSRC                              00000007
CURS@                             00000026
CVR0                              00000000
CVR1                              00000001
CVR2                              00000002
CVR3                              00000003
CVRCON                            00000FB5
CVREN                             00000007
CVROE                             00000006
CVRR                              00000005
CVRSS                             00000004
D                                 00000005
D@DIG                             00000060
D@K                               000001DE
D@VD                              000001BC
D@VD2                             000001C0
DC                                00000001
DC1B0                             00000004
DC1B1                             00000005
DC2B0                             00000004
DC2B1                             00000005
DDRA                              00000F92
DDRB                              00000F93
DDRC                              00000F94
DDRD                              00000F95
DDRE                              00000F96
DEBUG                             00000FD4
DEBUG_OFF_4                       000000FF
DEBUG_ON_4                        0000007F
DEVID1                            003FFFFE
DEVID2                            003FFFFF
DL@MS                             0000017A
DL@US                             00000194
DLUS@W                            00000196
DLY@P                             0000017E
DLY@W                             0000017C
DONE                              00000001
DV@LP                             000001C4
DWORD_BIT                         
DWORD_BYTE                        
DWORD_DWORD                       
DWORD_FLOAT                       
DWORD_WORD                        
DWORD_WREG                        
D_A                               00000005
EBTR0_OFF_7                       000000FF
EBTR0_ON_7                        000000FE
EBTR1_OFF_7                       000000FF
EBTR1_ON_7                        000000FD
EBTR2_OFF_7                       000000FF
EBTR2_ON_7                        000000FB
EBTRB_OFF_7                       000000FF
EBTRB_ON_7                        000000BF
ECCP1AS                           00000FB6
ECCPAS                            00000FB6
ECCPAS0                           00000004
ECCPAS1                           00000005
ECCPAS2                           00000006
ECCPASE                           00000007
EEADR                             00000FA9
EEADRH                            00000FAA
EECON1                            00000FA6
EECON2                            00000FA7
EEDATA                            00000FA8
EEDATL                            00000FA8
EEIE                              00000004
EEIF                              00000004
EEIP                              00000004
EEPGD                             00000007
EX@SEND@IT                        00000090
F1_000036                         00000214
F1_000054                         0000021C
F1_000056                         0000021E
F1_000057                         00000220
F1_000058                         00000222
F1_000065                         00000224
F1_000066                         00000228
F1_000070                         0000022C
F1_000071                         0000022E
F1_000073                         00000238
F1_000075                         0000023C
F1_000076                         00000246
F1_000077                         0000024A
F1_000078                         0000025C
F1_EOF                            0000029C
F1_SOF                            00000214
F2_EOF                            00000214
F2_SOF                            00000214
F3_EOF                            00000214
F3_SOF                            00000214
F4_000003                         0000025E
F4_000004                         00000260
F4_000005                         00000270
F4_000006                         00000278
F4_000007                         0000027A
F4_000010                         0000027C
F4_000011                         0000027E
F4_000012                         00000280
F4_000013                         00000282
F4_000018                         00000292
F4_000026                         0000029A
F4_EOF                            0000029C
F4_SOF                            0000025E
F@CALL                            
F@JUMP                            
FCMEN_OFF_1                       000000BF
FCMEN_ON_1                        000000FF
FERR                              00000002
FLOAT_BIT                         
FLOAT_BYTE                        
FLOAT_DWORD                       
FLOAT_FLOAT                       
FLOAT_WORD                        
FLOAT_WREG                        
FLTS                              00000002
FREE                              00000004
FSR0H                             00000FEA
FSR0L                             00000FE9
FSR0LH                            00000FEA
FSR1H                             00000FE2
FSR1L                             00000FE1
FSR1LH                            00000FE2
FSR2H                             00000FDA
FSR2L                             00000FD9
FSR2LH                            00000FDA
G@OTO                             
GCEN                              00000007
GEN                               00000002
GEN4                              00000003
GEN4H                             00000004
GIE                               INTCON,7
GIEH                              00000007
GIEL                              00000006
GO                                00000001
GO@TO                             
GOSLEEP                           0000025E
GO_DONE                           00000001
HLVDCON                           00000FD2
HLVDEN                            00000004
HLVDIE                            00000002
HLVDIF                            00000002
HLVDIN                            00000005
HLVDIP                            00000002
HLVDL0                            00000000
HLVDL1                            00000001
HLVDL2                            00000002
HLVDL3                            00000003
IBF                               00000007
IBOV                              00000005
IDLEN                             00000007
IDLOC0                            00200000
IDLOC1                            00200001
IDLOC2                            00200002
IDLOC3                            00200003
IDLOC4                            00200004
IDLOC5                            00200005
IDLOC6                            00200006
IDLOC7                            00200007
IESO_OFF_1                        0000007F
IESO_ON_1                         000000FF
INDF0                             00000FEF
INDF1                             00000FE7
INDF2                             00000FDF
INT0                              00000000
INT0E                             00000004
INT0F                             00000001
INT0IE                            00000004
INT0IF                            00000001
INT1                              00000001
INT1E                             00000003
INT1F                             00000000
INT1IE                            00000003
INT1IF                            00000000
INT1IP                            00000006
INT1P                             00000006
INT2                              00000002
INT2E                             00000004
INT2F                             00000001
INT2IE                            00000004
INT2IF                            00000001
INT2IP                            00000007
INT2P                             00000007
INTCON                            00000FF2
INTCON2                           00000FF1
INTCON3                           00000FF0
INTEDG0                           00000006
INTEDG1                           00000005
INTEDG2                           00000004
INTSRC                            00000007
IOFS                              00000002
IPEN                              00000007
IPR1                              00000F9F
IPR2                              00000FA2
IRCF0                             00000004
IRCF1                             00000005
IRCF2                             00000006
IRVST                             00000005
IVRST                             00000005
JUMP                              
KBI0                              00000004
KBI1                              00000005
KBI2                              00000006
KBI3                              00000007
LABEL_WORD                        
LATA                              00000F89
LATA0                             00000000
LATA1                             00000001
LATA2                             00000002
LATA3                             00000003
LATA4                             00000004
LATA5                             00000005
LATA6                             00000006
LATA7                             00000007
LATB                              00000F8A
LATB0                             00000000
LATB1                             00000001
LATB2                             00000002
LATB3                             00000003
LATB4                             00000004
LATB5                             00000005
LATB6                             00000006
LATB7                             00000007
LATC                              00000F8B
LATC0                             00000000
LATC1                             00000001
LATC2                             00000002
LATC3                             00000003
LATC4                             00000004
LATC5                             00000005
LATC6                             00000006
LATC7                             00000007
LATD                              00000F8C
LATD0                             00000000
LATD1                             00000001
LATD2                             00000002
LATD3                             00000003
LATD4                             00000004
LATD5                             00000005
LATD6                             00000006
LATD7                             00000007
LATE                              00000F8D
LATE0                             00000000
LATE1                             00000001
LATE2                             00000002
LCD#DTPIN                         0
LCD#DTPORT                        PORTD
LCD#ENPIN                         6
LCD#ENPORT                        PORTD
LCD#INTERFACE                     4
LCD#LINES                         2
LCD#RSPIN                         7
LCD#RSPORT                        PORTD
LCD#TYPE                          0
LCD@CLS                           00000008
LCD@CRS                           00000022
LPT1OSC_OFF_3                     000000FB
LPT1OSC_ON_3                      000000FF
LVDCON                            00000FD2
LVDEN                             00000004
LVDIE                             00000002
LVDIF                             00000002
LVDIN                             00000005
LVDIP                             00000002
LVDL0                             00000000
LVDL1                             00000001
LVDL2                             00000002
LVDL3                             00000003
LVP_OFF_4                         000000FB
LVP_ON_4                          000000FF
LVV0                              00000000
LVV1                              00000001
LVV2                              00000002
LVV3                              00000003
MCLR                              00000003
MCLRE_OFF_3                       0000007F
MCLRE_ON_3                        000000FF
MOVFW                             
N                                 00000004
NEGW                              NEGF WREG
NOT_A                             00000005
NOT_ADDRESS                       00000005
NOT_BOR                           00000000
NOT_CS                            00000002
NOT_DONE                          00000001
NOT_MCLR                          00000003
NOT_PD                            00000002
NOT_POR                           00000001
NOT_RBPU                          00000007
NOT_RD                            00000000
NOT_RI                            00000004
NOT_SS                            00000005
NOT_T1SYNC                        00000002
NOT_T3SYNC                        00000002
NOT_TO                            00000003
NOT_W                             00000002
NOT_WR                            00000001
NOT_WRITE                         00000002
NUM_BIT                           
NUM_BYTE                          
NUM_DWORD                         
NUM_FLOAT                         
NUM_FSR0                          
NUM_FSR1                          
NUM_FSR2                          
NUM_WORD                          
NUM_WREG                          
OBF                               00000006
OERR                              00000001
OSCCON                            00000FD3
OSCFIE                            00000007
OSCFIF                            00000007
OSCFIP                            00000007
OSCTUNE                           00000F9B
OSC_ECIO6_1                       000000F5
OSC_EC_1                          000000F4
OSC_HSPLL_1                       000000F6
OSC_HS_1                          000000F2
OSC_INTIO67_1                     000000F8
OSC_INTIO7_1                      000000F9
OSC_LP_1                          000000F0
OSC_RCIO6_1                       000000F7
OSC_RC_1                          000000F3
OSC_XT_1                          000000F1
OSTS                              00000003
OUT@DEC                           00000034
OV                                00000003
P                                 00000004
P1B                               00000005
P1C                               00000006
P1D                               00000007
P1M0                              00000006
P1M1                              00000007
PB@LB4                            0000029C
PBADEN_OFF_3                      000000FD
PBADEN_ON_3                       000000FF
PC                                00000FF9
PCFG0                             00000000
PCFG1                             00000001
PCFG2                             00000002
PCFG3                             00000003
PCL                               00000FF9
PCLATH                            00000FFA
PCLATU                            00000FFB
PD                                00000002
PDC0                              00000000
PDC1                              00000001
PDC2                              00000002
PDC3                              00000003
PDC4                              00000004
PDC5                              00000005
PDC6                              00000006
PEIE                              00000006
PEN                               00000002
PGC                               00000006
PGD                               00000007
PGM                               00000005
PIE1                              00000F9D
PIE2                              00000FA0
PIR1                              00000F9E
PIR2                              00000FA1
PLLEN                             00000006
PLUSW0                            00000FEB
PLUSW1                            00000FE3
PLUSW2                            00000FDB
POR                               00000001
PORTA                             00000F80
PORTB                             00000F81
PORTC                             00000F82
PORTD                             00000F83
PORTE                             00000F84
POSTDEC0                          00000FED
POSTDEC1                          00000FE5
POSTDEC2                          00000FDD
POSTINC0                          00000FEE
POSTINC1                          00000FE6
POSTINC2                          00000FDE
PP0                               00000005
PP0H                              00000006
PP1                               00000007
PP1H                              00000008
PP2                               00000009
PP2H                              0000000A
PP3                               0000000B
PP3H                              0000000C
PP4                               0000000D
PP5                               0000000E
PP7                               0000000F
PP7H                              00000010
PP_ACKEN                          00000004
PP_ADON                           00000000
PP_CREN                           00000004
PP_EEPGD                          00000007
PP_GO_DONE                        00000001
PP_OERR                           00000001
PP_PEN                            00000002
PP_RCEN                           00000003
PP_RCIF                           00000005
PP_RD                             00000000
PP_RSEN                           00000001
PP_R_W                            00000002
PP_SEN                            00000000
PP_T2CKPS0                        00000000
PP_T2CKPS1                        00000001
PP_TMR2ON                         00000002
PP_TXIF                           00000004
PP_WR                             00000001
PP_WREN                           00000002
PR2                               00000FCB
PR@CC                             0000011A
PR@CM                             000000FC
PR@EX                             00000144
PR@LP                             00000126
PR@SD                             00000122
PREINC0                           00000FEC
PREINC1                           00000FE4
PREINC2                           00000FDC
PRINT                             000000A2
PRINT@MSTR                        00000092
PRINT@MSTRL                       00000092
PRODH                             00000FF4
PRODL                             00000FF3
PRODLH                            00000FF4
PROTON#CODE#START                 00000000
PROTON#MAIN#START                 0000020E
PRSEN                             00000007
PRT@1                             000000FE
PRT@MTEXT                         000000A0
PRT@MTL1                          00000096
PSA                               00000003
PSP0                              00000000
PSP1                              00000001
PSP2                              00000002
PSP3                              00000003
PSP4                              00000004
PSP5                              00000005
PSP6                              00000006
PSP7                              00000007
PSPIE                             00000007
PSPIF                             00000007
PSPIP                             00000007
PSPMODE                           00000004
PSSAC0                            00000002
PSSAC1                            00000003
PSSBD0                            00000000
PSSBD1                            00000001
PWM1CON                           00000FB7
PWRT_OFF_2                        000000FF
PWRT_ON_2                         000000FE
R                                 00000002
R@B                               
RA0                               00000000
RA1                               00000001
RA2                               00000002
RA3                               00000003
RA4                               00000004
RA5                               00000005
RA6                               00000006
RA7                               00000007
RAM_BANK                          00000000
RAM_BANKS                         15
RB0                               00000000
RB1                               00000001
RB2                               00000002
RB3                               00000003
RB4                               00000004
RB5                               00000005
RB6                               00000006
RB7                               00000007
RBIE                              00000003
RBIF                              00000000
RBIP                              00000000
RBPU                              00000007
RC0                               00000000
RC1                               00000001
RC2                               00000002
RC3                               00000003
RC4                               00000004
RC5                               00000005
RC6                               00000006
RC7                               00000007
RCEN                              00000003
RCIDL                             00000006
RCIE                              00000005
RCIF                              00000005
RCIP                              00000005
RCMT                              00000006
RCON                              00000FD0
RCREG                             00000FAE
RCSTA                             00000FAB
RD                                00000000
RD0                               00000000
RD1                               00000001
RD16                              00000007
RD2                               00000002
RD3                               00000003
RD4                               00000004
RD5                               00000005
RD6                               00000006
RD7                               00000007
RD@AD                             0000014E
RE0                               00000000
RE1                               00000001
RE2                               00000002
RE3                               00000003
RFIDENABLE                        PORTD,4
RI                                00000004
RLF                               
RRF                               
RSEN                              00000001
RX                                00000007
RX9                               00000006
RX9D                              00000000
R_W                               00000002
S                                 00000003
S@B                               
SBOREN                            00000006
SCK                               00000003
SCKP                              00000004
SCL                               00000003
SCS0                              00000000
SCS1                              00000001
SDA                               00000004
SDI                               00000004
SDO                               00000005
SD_CLK                            PORTC,3
SD_CS                             PORTC,2
SD_DETECT                         PORTA,1
SD_DI                             PORTC,5
SD_DO                             PORTC,4
SEN                               00000000
SEND@IT                           00000070
SENDB                             00000003
SETC                              BSF STATUS,0
SETZ                              BSF STATUS,2
SKPC                              BTFSS STATUS,0
SKPNC                             BTFSC STATUS,0
SKPNZ                             BTFSC STATUS,2
SKPZ                              BTFSS STATUS,2
SMP                               00000007
SP0                               00000000
SP1                               00000001
SP2                               00000002
SP3                               00000003
SP4                               00000004
SPBRG                             00000FAF
SPBRGH                            00000FB0
SPEN                              00000007
SREN                              00000005
SS                                00000005
SSPADD                            00000FC8
SSPBUF                            00000FC9
SSPCON1                           00000FC6
SSPCON2                           00000FC5
SSPEN                             00000005
SSPIE                             00000003
SSPIF                             00000003
SSPIP                             00000003
SSPM0                             00000000
SSPM1                             00000001
SSPM2                             00000002
SSPM3                             00000003
SSPOV                             00000006
SSPSTAT                           00000FC7
START                             0000022C
STATUS                            00000FD8
STKFUL                            00000007
STKOVF                            00000007
STKPTR                            00000FFC
STKPTR0                           00000000
STKPTR1                           00000001
STKPTR2                           00000002
STKPTR3                           00000003
STKPTR4                           00000004
STKUNF                            00000006
STR@LB1                           000001EA
STR@LB2                           000001FC
STVREN_OFF_4                      000000FE
STVREN_ON_4                       000000FF
SWDTE                             00000000
SWDTEN                            00000000
SYNC                              00000004
T016BIT                           00000006
T08BIT                            00000006
T0CKI                             00000004
T0CON                             00000FD5
T0CS                              00000005
T0IE                              00000005
T0IF                              00000002
T0PS0                             00000000
T0PS1                             00000001
T0PS2                             00000002
T0SE                              00000004
T13CKI                            00000000
T1CKI                             00000000
T1CKPS0                           00000004
T1CKPS1                           00000005
T1CON                             00000FCD
T1OSCEN                           00000003
T1OSI                             00000001
T1OSO                             00000000
T1RUN                             00000006
T1SYNC                            00000002
T2CKPS0                           00000000
T2CKPS1                           00000001
T2CON                             00000FCA
T2OUTPS0                          00000003
T2OUTPS1                          00000004
T2OUTPS2                          00000005
T2OUTPS3                          00000006
T3CCP1                            00000003
T3CCP2                            00000006
T3CKPS0                           00000004
T3CKPS1                           00000005
T3CON                             00000FB1
T3SYNC                            00000002
TABLAT                            00000FF5
TBLPTRH                           00000FF7
TBLPTRL                           00000FF6
TBLPTRLH                          00000FF7
TBLPTRLHH                         00000FF8
TBLPTRU                           00000FF8
TMR0H                             00000FD7
TMR0IE                            00000005
TMR0IF                            00000002
TMR0IP                            00000002
TMR0L                             00000FD6
TMR0LH                            00000FD7
TMR0ON                            00000007
TMR1CS                            00000001
TMR1H                             00000FCF
TMR1IE                            00000000
TMR1IF                            00000000
TMR1IP                            00000000
TMR1L                             00000FCE
TMR1LH                            00000FCF
TMR1ON                            00000000
TMR2                              00000FCC
TMR2IE                            00000001
TMR2IF                            00000001
TMR2IP                            00000001
TMR2ON                            00000002
TMR3CS                            00000001
TMR3H                             00000FB3
TMR3IE                            00000001
TMR3IF                            00000001
TMR3IP                            00000001
TMR3L                             00000FB2
TMR3LH                            00000FB3
TMR3ON                            00000000
TO                                00000003
TOS                               00000FFD
TOSH                              00000FFE
TOSL                              00000FFD
TOSLH                             00000FFE
TOSU                              00000FFF
TOUTPS0                           00000003
TOUTPS1                           00000004
TOUTPS2                           00000005
TOUTPS3                           00000006
TRISA                             00000F92
TRISA0                            00000000
TRISA1                            00000001
TRISA2                            00000002
TRISA3                            00000003
TRISA4                            00000004
TRISA5                            00000005
TRISA6                            00000006
TRISA7                            00000007
TRISB                             00000F93
TRISB0                            00000000
TRISB1                            00000001
TRISB2                            00000002
TRISB3                            00000003
TRISB4                            00000004
TRISB5                            00000005
TRISB6                            00000006
TRISB7                            00000007
TRISC                             00000F94
TRISC0                            00000000
TRISC1                            00000001
TRISC2                            00000002
TRISC3                            00000003
TRISC4                            00000004
TRISC5                            00000005
TRISC6                            00000006
TRISC7                            00000007
TRISD                             00000F95
TRISD0                            00000000
TRISD1                            00000001
TRISD2                            00000002
TRISD3                            00000003
TRISD4                            00000004
TRISD5                            00000005
TRISD6                            00000006
TRISD7                            00000007
TRISE                             00000F96
TRISE0                            00000000
TRISE1                            00000001
TRISE2                            00000002
TRISE4                            00000004
TRISE5                            00000005
TRISE6                            00000006
TRISE7                            00000007
TRMT                              00000001
TUN0                              00000000
TUN1                              00000001
TUN2                              00000002
TUN3                              00000003
TUN4                              00000004
TX                                00000006
TX9                               00000006
TX9D                              00000000
TXEN                              00000005
TXIE                              00000004
TXIF                              00000004
TXIP                              00000004
TXREG                             00000FAD
TXSTA                             00000FAC
UA                                00000001
VAR1                              00000011
VAR1H                             00000012
VCFG0                             00000004
VCFG1                             00000005
VDIRMAG                           00000007
VPP                               00000003
WCOL                              00000007
WDTCON                            00000FD1
WDTPS_1024_2                      000000F5
WDTPS_128_2                       000000EF
WDTPS_16384_2                     000000FD
WDTPS_16_2                        000000E9
WDTPS_1_2                         000000E1
WDTPS_2048_2                      000000F7
WDTPS_256_2                       000000F1
WDTPS_2_2                         000000E3
WDTPS_32768_2                     000000FF
WDTPS_32_2                        000000EB
WDTPS_4096_2                      000000F9
WDTPS_4_2                         000000E5
WDTPS_512_2                       000000F3
WDTPS_64_2                        000000ED
WDTPS_8192_2                      000000FB
WDTPS_8_2                         000000E7
WDT_OFF_2                         000000FE
WDT_ON_2                          000000FF
WORD_BIT                          
WORD_BYTE                         
WORD_DWORD                        
WORD_FLOAT                        
WORD_WORD                         
WORD_WREG                         
WR                                00000001
WREG                              00000FE8
WREG_BIT                          
WREG_BYTE                         
WREG_DWORD                        
WREG_FLOAT                        
WREG_WORD                         
WREN                              00000002
WRERR                             00000003
WRT0_OFF_6                        000000FF
WRT0_ON_6                         000000FE
WRT1_OFF_6                        000000FF
WRT1_ON_6                         000000FD
WRT2_OFF_6                        000000FF
WRT2_ON_6                         000000FB
WRTB_OFF_6                        000000FF
WRTB_ON_6                         000000BF
WRTC_OFF_6                        000000FF
WRTC_ON_6                         000000DF
WRTD_OFF_6                        000000FF
WRTD_ON_6                         0000007F
WUE                               00000001
XINST_OFF_4                       000000BF
XINST_ON_4                        000000FF
XTAL                              4
Z                                 00000002
_ADC                              13
_ADC_RES                          10
_CORE                             16
_CWRITE_BLOCK                     8
_EEPROM                           1024
_FLASH                            1
_I2C_SCL_PIN                      00000003
_I2C_SCL_PORT                     00000F94
_I2C_SDA_PIN                      00000004
_I2C_SDA_PORT                     00000F94
_MAXMEM                           49152
_MAXRAM                           3968
_RAM_END                          3968
_SYSTEM_VARIABLE_COUNT            17
_USART                            1
_USB                              0
__18F4525                         1
__ADIN_DELAY                      50
__ADIN_RES                        10
__EOF                             0000029E
__HSERIAL_BAUD                    9600
__HSERIAL_RCSTA                   144
__HSERIAL_TXSTA                   32
__IDLOC0                          00200000
__IDLOC1                          00200001
__IDLOC2                          00200002
__IDLOC3                          00200003
__IDLOC4                          00200004
__IDLOC5                          00200005
__IDLOC6                          00200006
__IDLOC7                          00200007
__KEYPAD_PORT                     PORTB
__LCD_DTPIN                       0
__LCD_DTPORT                      PORTD
__LCD_ENPIN                       6
__LCD_ENPORT                      PORTD
__LCD_INTERFACE                   4
__LCD_LINES                       2
__LCD_RSPIN                       7
__LCD_RSPORT                      PORTD
__LCD_TYPE                        0
__XTAL                            4


MEMORY USAGE MAP ('X' = USED,  '-' = UNUSED)

0000 : XXXX----XXXXXXXX XXXXXXXXXXXXXXXX XXXXXXXXXXXXXXXX XXXXXXXXXXXXXXXX
0040 : XXXXXXXXXXXXXXXX XXXXXXXXXXXXXXXX XXXXXXXXXXXXXXXX XXXXXXXXXXXXXXXX
0080 : XXXXXXXXXXXXXXXX XXXXXXXXXXXXXXXX XXXXXXXXXXXXXXXX XXXXXXXXXXXXXXXX
00C0 : XXXXXXXXXXXXXXXX XXXXXXXXXXXXXXXX XXXXXXXXXXXXXXXX XXXXXXXXXXXXXXXX
0100 : XXXXXXXXXXXXXXXX XXXXXXXXXXXXXXXX XXXXXXXXXXXXXXXX XXXXXXXXXXXXXXXX
0140 : XXXXXXXXXXXXXXXX XXXXXXXXXXXXXXXX XXXXXXXXXXXXXXXX XXXXXXXXXXXXXXXX
0180 : XXXXXXXXXXXXXXXX XXXXXXXXXXXXXXXX XXXXXXXXXXXXXXXX XXXXXXXXXXXXXXXX
01C0 : XXXXXXXXXXXXXXXX XXXXXXXXXXXXXXXX XXXXXXXXXXXXXXXX XXXXXXXXXXXXXXXX
0200 : XXXXXXXXXXXXXXXX XXXXXXXXXXXXXXXX XXXXXXXXXXXXXXXX XXXXXXXXXXXXXXXX
0240 : XXXXXXXXXXXXXXXX XXXXXXXXXXXXXXXX XXXXXXXXXXXXXXXX XXXXXXXXXXXXXXXX
0280 : XXXXXXXXXXXXXXXX XXXXXXXXXXXXXX-- ---------------- ----------------
0000 : -XXX-XX-XXXXXX-- ---------------- ---------------- ----------------

ALL OTHER MEMORY BLOCKS UNUSED.

PROGRAM MEMORY BYTES USED:   677
PROGRAM MEMORY BYTES FREE: 48475


ERRORS   :     0
WARNINGS :     0 REPORTED,   126 SUPPRESSED
MESSAGES :     1 REPORTED,     1 SUPPRESSED


