MPASM 03.50.03 Released                          RFIDSY~1.ASM   11-6-2008  17:10:35         PAGE  1


LOC  OBJECT CODE     LINE SOURCE TEXT
  VALUE

                      00001 ;*******************************************************
                      00002 ;*                 Code Produced by the                *
                      00003 ;*             PROTON+ Compiler. Version 2.1.3         *
                      00004 ;* Copyright Rosetta Technologies/Crownhill Associates *
                      00005 ;*              Written by Les Johnson. 2003           *
                      00006 ;*******************************************************
                      00001         LIST
                      00002 ;{
                      00003 ;FILE F1 = C:\MYVEHI~1\PICBAS~1\VEHICL~1.4\RFIDSY~1.BAS
                      00004 ;FILE F2 = C:\MYVEHI~1\PICBAS~1\VEHICL~1.4\INC\GETKEY.INC
                      00005 ;FILE F3 = C:\MYVEHI~1\PICBAS~1\VEHICL~1.4\INC\ADDNEWUSER.INC
                      00006 ;FILE F4 = C:\MYVEHI~1\PICBAS~1\VEHICL~1.4\INC\GETUSER#.INC
                      00007 ;FILE F5 = C:\MYVEHI~1\PICBAS~1\VEHICL~1.4\INC\SCROLL.INC
                      00008 ;FILE F6 = C:\MYVEHI~1\PICBAS~1\VEHICL~1.4\INC\SCROLLH.INC
                      00009 ;FILE F7 = C:\MYVEHI~1\PICBAS~1\VEHICL~1.4\INC\CHECKUSER.INC
                      00010 ;FILE F8 = C:\MYVEHI~1\PICBAS~1\VEHICL~1.4\INC\CHECKTAG.INC
                      00011 ;FILE F9 = C:\MYVEHI~1\PICBAS~1\VEHICL~1.4\INC\READTAG.INC
                      00012 ;FILE F10 = C:\MYVEHI~1\PICBAS~1\VEHICL~1.4\INC\WRITE.INC
                      00013 ;FILE F11 = C:\MYVEHI~1\PICBAS~1\VEHICL~1.4\INC\WRITEH.INC
                      00014 ;FILE F12 = C:\MYVEHI~1\PICBAS~1\VEHICL~1.4\INC\USERMENU.INC
                      00015 ;FILE F13 = C:\MYVEHI~1\PICBAS~1\VEHICL~1.4\INC\MAINMENU.INC
                      00016 ;FILE F14 = C:\MYVEHI~1\PICBAS~1\VEHICL~1.4\INC\STARTUNIT.INC
                      00017 ;FILE F15 = C:\MYVEHI~1\PICBAS~1\VEHICL~1.4\INC\GOSLEEP.INC
                      00018 ;FILE F16 = C:\MYVEHI~1\PICBAS~1\VEHICL~1.4\INC\BINARY.INC
                      00019 ;FILE F17 = C:\MYVEHI~1\PICBAS~1\VEHICL~1.4\INC\SOUND.INC
                      00020 ;}
                      00021 ;[Variable Listing]
                      00022 ;INDEX,003A,DT_BYTE,1
                      00023 ;INDEX2,003B,DT_BYTE,1
                      00024 ;TAGOFFSET,003C,DT_BYTE,1
                      00025 ;B1,003D,DT_BYTE,1
                      00026 ;B2,003E,DT_BYTE,1
                      00027 ;_B#VR1,003F,DT_BYTE,1
                      00028 ;CURRENTLINE,0040,DT_BYTE,1
                      00029 ;STARTLINE,0041,DT_BYTE,1
                      00030 ;ENDLINE,0042,DT_BYTE,1
                      00031 ;LASTUSER,0043,DT_BYTE,1
                      00032 ;EMPIN,0044,DT_BYTE,06
                      00033 ;CE,004A,DT_BYTE,03
                      00034 ;TAGIN,004D,DT_BYTE,0A
                      00035 ;CT,0057,DT_BYTE,05
                      00036 ;FOOTER,005C,DT_BYTE,1
                      00037 ;NUA,005D,DT_BYTE,1
                      00038 ;STIME,005E,DT_BYTE,1
                      00039 ;COL,005F,DT_BYTE,1
                      00040 ;ROW,0060,DT_BYTE,1
                      00041 ;KEY,0061,DT_BYTE,1
                      00042 ;FLAG,003F.0,DT_BIT
                      00043 ;GIE,000B.7,DT_BIT
                      00044 ;STARTENABLE,0008.5,DT_BIT
                      00045 ;GREEN,0007.2,DT_BIT
                      00046 ;RED,0007.1,DT_BIT
                      00047 ;SPIN,0007.4,DT_BIT
MPASM 03.50.03 Released                          RFIDSY~1.ASM   11-6-2008  17:10:35         PAGE  2


LOC  OBJECT CODE     LINE SOURCE TEXT
  VALUE

                      00048 ;RFIDENABLE,0008.4,DT_BIT
                      00049 ;HHDETECT,0007.3,DT_BIT
                      00050 ;[End Listing]
                      00058         LIST
                      00059  #DEFINE CONFIG_REQ 1
Message[308]: Warning level superceded by command line value. (2)
                      00060         LIST  P = 16F877A,F = INHX8M ,W = 2, X = ON, R = DEC, MM = ON, N = 0, C = 255
                      00061         #INCLUDE C:\PROGRA~1\CROWNH~1\INC\P16F877A.LPB
                      00001 
  00000000            00002 W = 0
  00000001            00003 F = 1
                      00004 
                      00005 ; Registers
                      00006 
  00000000            00007 INDF                         EQU     H'0000'
  00000001            00008 TMR0                         EQU     H'0001'
  00000002            00009 PCL                          EQU     H'0002'
  00000003            00010 STATUS                       EQU     H'0003'
  00000004            00011 FSR                          EQU     H'0004'
  00000005            00012 PORTA                        EQU     H'0005'
  00000006            00013 PORTB                        EQU     H'0006'
  00000007            00014 PORTC                        EQU     H'0007'
  00000008            00015 PORTD                        EQU     H'0008'
  00000009            00016 PORTE                        EQU     H'0009'
  0000000A            00017 PCLATH                       EQU     H'000A'
  0000000B            00018 INTCON                       EQU     H'000B'
  0000000C            00019 PIR1                         EQU     H'000C'
  0000000D            00020 PIR2                         EQU     H'000D'
  0000000E            00021 TMR1L                        EQU     H'000E'
  0000000F            00022 TMR1LH                       EQU     H'000F'
  0000000F            00023 TMR1H                        EQU     H'000F'
  00000010            00024 T1CON                        EQU     H'0010'
  00000011            00025 TMR2                         EQU     H'0011'
  00000012            00026 T2CON                        EQU     H'0012'
  00000013            00027 SSPBUF                       EQU     H'0013'
  00000014            00028 SSPCON                       EQU     H'0014'
  00000015            00029 CCPR1L                       EQU     H'0015'
  00000016            00030 CCPR1LH                      EQU     H'0016'
  00000016            00031 CCPR1H                       EQU     H'0016'
  00000017            00032 CCP1CON                      EQU     H'0017'
  00000018            00033 RCSTA                        EQU     H'0018'
  00000019            00034 TXREG                        EQU     H'0019'
  0000001A            00035 RCREG                        EQU     H'001A'
  0000001B            00036 CCPR2L                       EQU     H'001B'
  0000001C            00037 CCPR2LH                      EQU     H'001C'
  0000001C            00038 CCPR2H                       EQU     H'001C'
  0000001D            00039 CCP2CON                      EQU     H'001D'
  0000001E            00040 ADRESLH                      EQU     H'001E'
  0000001E            00041 ADRESH                       EQU     H'001E'
  0000001F            00042 ADCON0                       EQU     H'001F'
  00000081            00043 OPTION_REG                   EQU     H'0081'
  00000085            00044 TRISA                        EQU     H'0085'
  00000086            00045 TRISB                        EQU     H'0086'
  00000087            00046 TRISC                        EQU     H'0087'
  00000088            00047 TRISD                        EQU     H'0088'
  00000089            00048 TRISE                        EQU     H'0089'
  0000008C            00049 PIE1                         EQU     H'008C'
  0000008D            00050 PIE2                         EQU     H'008D'
  0000008E            00051 PCON                         EQU     H'008E'
  00000091            00052 SSPCON2                      EQU     H'0091'
  00000092            00053 PR2                          EQU     H'0092'
  00000093            00054 SSPADD                       EQU     H'0093'
  00000094            00055 SSPSTAT                      EQU     H'0094'
  00000098            00056 TXSTA                        EQU     H'0098'
  00000099            00057 SPBRG                        EQU     H'0099'
  0000009C            00058 CMCON                        EQU     H'009C'
  0000009D            00059 CVRCON                       EQU     H'009D'
  0000009E            00060 ADRESL                       EQU     H'009E'
  0000009E            00061 ADRES                        EQU     H'009E'
  0000009F            00062 ADCON1                       EQU     H'009F'
  0000010C            00063 EEDATA                       EQU     H'010C'
  0000010C            00064 EEDAT                        EQU     H'010C'
  0000010D            00065 EEADR                        EQU     H'010D'
  0000010E            00066 EEDATH                       EQU     H'010E'
  0000010F            00067 EEADRH                       EQU     H'010F'
  0000018C            00068 EECON1                       EQU     H'018C'
  0000018D            00069 EECON2                       EQU     H'018D'
                      00070 
                      00071 ; STATUS Bits
  00000007            00072 IRP = 7
  00000006            00073 RP1 = 6
  00000005            00074 RP0 = 5
  00000004            00075 NOT_TO = 4
  00000003            00076 NOT_PD = 3
  00000002            00077 Z = 2
  00000001            00078 DC = 1
  00000000            00079 C = 0
                      00080 
                      00081 ; INTCON Bits
  00000007            00082 GIE = 7
  00000006            00083 PEIE = 6
  00000005            00084 T0IE = 5
  00000005            00085 TMR0IE = 5
  00000004            00086 INTE = 4
  00000003            00087 RBIE = 3
  00000002            00088 T0IF = 2
  00000002            00089 TMR0IF = 2
  00000001            00090 INTF = 1
  00000000            00091 RBIF = 0
                      00092 
                      00093 ; PIR1 Bits
  00000007            00094 PSPIF = 7
  00000006            00095 ADIF = 6
  00000005            00096 RCIF = 5
  00000004            00097 TXIF = 4
  00000003            00098 SSPIF = 3
  00000002            00099 CCP1IF = 2
  00000001            00100 TMR2IF = 1
  00000000            00101 TMR1IF = 0
                      00102 
                      00103 ; PIR2 Bits
  00000006            00104 CMIF = 6
  00000004            00105 EEIF = 4
  00000003            00106 BCLIF = 3
  00000000            00107 CCP2IF = 0
                      00108 
                      00109 ; T1CON Bits
  00000005            00110 T1CKPS1 = 5
  00000004            00111 T1CKPS0 = 4
  00000003            00112 T1OSCEN = 3
  00000002            00113 NOT_T1SYNC = 2
  00000002            00114 T1INSYNC = 2
  00000002            00115 T1SYNC = 2
  00000001            00116 TMR1CS = 1
  00000000            00117 TMR1ON = 0
                      00118 
                      00119 ; T2CON Bits-
  00000006            00120 TOUTPS3 = 6
  00000005            00121 TOUTPS2 = 5
  00000004            00122 TOUTPS1 = 4
  00000003            00123 TOUTPS0 = 3
  00000002            00124 TMR2ON = 2
  00000001            00125 T2CKPS1 = 1
  00000000            00126 T2CKPS0 = 0
                      00127 
                      00128 ; SSPCON Bits
  00000007            00129 WCOL = 7
  00000006            00130 SSPOV = 6
  00000005            00131 SSPEN = 5
  00000004            00132 CKP = 4
  00000003            00133 SSPM3 = 3
  00000002            00134 SSPM2 = 2
  00000001            00135 SSPM1 = 1
  00000000            00136 SSPM0 = 0
                      00137 
                      00138 ; CCP1CON Bits
  00000005            00139 CCP1X = 5
  00000004            00140 CCP1Y = 4
  00000003            00141 CCP1M3 = 3
  00000002            00142 CCP1M2 = 2
  00000001            00143 CCP1M1 = 1
  00000000            00144 CCP1M0 = 0
                      00145 
                      00146 ; RCSTA Bits-
  00000007            00147 SPEN = 7
  00000006            00148 RX9 = 6
  00000006            00149 RC9 = 6
  00000006            00150 NOT_RC8 = 6
  00000006            00151 RC8_9 = 6
  00000005            00152 SREN = 5
  00000004            00153 CREN = 4
  00000003            00154 ADDEN = 3
  00000002            00155 FERR = 2
  00000001            00156 OERR = 1
  00000000            00157 RX9D = 0
  00000000            00158 RCD8 = 0
                      00159 
                      00160 ; CCP2CON Bits
  00000005            00161 CCP2X = 5
  00000004            00162 CCP2Y = 4
  00000003            00163 CCP2M3 = 3
  00000002            00164 CCP2M2 = 2
  00000001            00165 CCP2M1 = 1
  00000000            00166 CCP2M0 = 0
                      00167 
                      00168 ; ADCON0 Bits
  00000007            00169 ADCS1 = 7
  00000006            00170 ADCS0 = 6
  00000005            00171 CHS2 = 5
  00000004            00172 CHS1 = 4
  00000003            00173 CHS0 = 3
  00000002            00174 GO = 2
  00000002            00175 NOT_DONE = 2
  00000002            00176 GO_DONE = 2
  00000000            00177 ADON = 0
                      00178 
                      00179 ; OPTION_REG Bits
  00000007            00180 NOT_RBPU = 7
  00000006            00181 INTEDG = 6
  00000005            00182 T0CS = 5
  00000004            00183 T0SE = 4
  00000003            00184 PSA = 3
  00000002            00185 PS2 = 2
  00000001            00186 PS1 = 1
  00000000            00187 PS0 = 0
                      00188 
                      00189 ; TRISE Bits
  00000007            00190 IBF = 7
  00000006            00191 OBF = 6
  00000005            00192 IBOV = 5
  00000004            00193 PSPMODE = 4
  00000002            00194 TRISE2 = 2
  00000001            00195 TRISE1 = 1
  00000000            00196 TRISE0 = 0
                      00197 
                      00198 ; PIE1 Bits
  00000007            00199 PSPIE = 7
  00000006            00200 ADIE = 6
  00000005            00201 RCIE = 5
  00000004            00202 TXIE = 4
  00000003            00203 SSPIE = 3
  00000002            00204 CCP1IE = 2
  00000001            00205 TMR2IE = 1
  00000000            00206 TMR1IE = 0
                      00207 
                      00208 ; PIE2 Bits
  00000006            00209 CMIE = 6
  00000004            00210 EEIE = 4
  00000003            00211 BCLIE = 3
  00000000            00212 CCP2IE = 0
                      00213 
                      00214 ; PCON Bits
  00000001            00215 NOT_POR = 1
  00000000            00216 NOT_BO = 0
  00000000            00217 NOT_BOR = 0
                      00218 
                      00219 ; SSPCON2 Bits
  00000007            00220 GCEN = 7
  00000006            00221 ACKSTAT = 6
  00000005            00222 ACKDT = 5
  00000004            00223 ACKEN = 4
  00000003            00224 RCEN = 3
  00000002            00225 PEN = 2
  00000001            00226 RSEN = 1
  00000000            00227 SEN = 0
                      00228 
                      00229 ; SSPSTAT Bits
  00000007            00230 SMP = 7
  00000006            00231 CKE = 6
  00000005            00232 I2C_DATA = 5
  00000005            00233 NOT_A = 5
  00000005            00234 NOT_ADDRESS = 5
  00000005            00235 D_A = 5
  00000005            00236 DATA_ADDRESS = 5
  00000004            00237 _I2C_STOP = 4
  00000003            00238 _I2C_STRT = 3
  00000002            00239 I2C_RD = 2
  00000002            00240 NOT_W = 2
  00000002            00241 NOT_WRITE = 2
  00000002            00242 R_W = 2
  00000002            00243 READ_WRITE = 2
  00000001            00244 UA = 1
  00000000            00245 BF = 0
                      00246 
                      00247 ; TXSTA Bits
  00000007            00248 CSRC = 7
  00000006            00249 TX9 = 6
  00000006            00250 NOT_TX8 = 6
  00000006            00251 TX8_9 = 6
  00000005            00252 TXEN = 5
  00000004            00253 SYNC = 4
  00000002            00254 BRGH = 2
  00000001            00255 TRMT = 1
  00000000            00256 TX9D = 0
  00000000            00257 TXD8 = 0
                      00258 
                      00259 ; CMCON Bits
  00000007            00260 C2OUT = 7
  00000006            00261 C1OUT = 6
  00000005            00262 C2INV = 5
  00000004            00263 C1INV = 4
  00000003            00264 CIS = 3
  00000002            00265 CM2 = 2
  00000001            00266 CM1 = 1
  00000000            00267 CM0 = 0
                      00268 
                      00269 ; CVRCON Bits
  00000007            00270 CVREN = 7
  00000006            00271 CVROE = 6
  00000005            00272 CVRR = 5
  00000003            00273 CVR3 = 3
  00000002            00274 CVR2 = 2
  00000001            00275 CVR1 = 1
  00000000            00276 CVR0 = 0
                      00277 
                      00278 ; ADCON1 Bits
  00000007            00279 ADFM = 7
  00000003            00280 PCFG3 = 3
  00000002            00281 PCFG2 = 2
  00000001            00282 PCFG1 = 1
  00000000            00283 PCFG0 = 0
                      00284 
                      00285 ; EECON1 Bits
  00000007            00286 EEPGD = 7
  00000003            00287 WRERR = 3
  00000002            00288 WREN = 2
  00000001            00289 WR = 1
  00000000            00290 RD = 0
                      00291 
                      00292 ;
                      00293 ;       RAM Definition
                      00294 ;
                      00295 
  000001FF            00296         __MAXRAM H'1FF'
                      00297         __BADRAM H'8F'-H'90', H'95'-H'97', H'9A'-H'9B'
                      00298         __BADRAM H'105', H'107'-H'109'
                      00299         __BADRAM H'185', H'187'-H'189', H'18E'-H'18F'
                      00300 
                      00301 ;
                      00302 ; [START OF CONFIGURATION BITS]
                      00303 ;
  00001FFF            00304 CP_ALL                      EQU     H'1FFF'
  00003FFF            00305 CP_OFF                      EQU     H'3FFF'
  00003FFF            00306 DEBUG_OFF                   EQU     H'3FFF'
  000037FF            00307 DEBUG_ON                    EQU     H'37FF'
  00003FFF            00308 WRT_OFF                     EQU     H'3FFF'    ; No prog memmory write protection
  00003DFF            00309 WRT_256                     EQU     H'3DFF'    ; First 256 prog memory write protected
  00003BFF            00310 WRT_1FOURTH                 EQU     H'3BFF'    ; First quarter prog memmory write protected
  000039FF            00311 WRT_HALF                    EQU     H'39FF'    ; First half memmory write protected
  00003FFF            00312 CPD_OFF                     EQU     H'3FFF'
  00003EFF            00313 CPD_ON                      EQU     H'3EFF'
  00003FFF            00314 LVP_ON                      EQU     H'3FFF'
  00003F7F            00315 LVP_OFF                     EQU     H'3F7F'
  00003FFF            00316 BODEN_ON                    EQU     H'3FFF'
  00003FBF            00317 BODEN_OFF                   EQU     H'3FBF'
  00003FFF            00318 PWRTE_OFF                   EQU     H'3FFF'
  00003FF7            00319 PWRTE_ON                    EQU     H'3FF7'
  00003FFF            00320 WDT_ON                      EQU     H'3FFF'
  00003FFB            00321 WDT_OFF                     EQU     H'3FFB'
  00003FFF            00322 RC_OSC                      EQU     H'3FFF'
  00003FFE            00323 HS_OSC                      EQU     H'3FFE'
  00003FFD            00324 XT_OSC                      EQU     H'3FFD'
  00003FFC            00325 LP_OSC                      EQU     H'3FFC'
                      00326 
                      00327 ; [SET THE DEFAULT FUSE CONFIGURATION]
                      00328         IFNDEF CONFIG_REQ
                      00329                 IFDEF WATCHDOG_REQ
                      00330                         IFDEF DEBUG@REQ                                                                 ; Do we require DEBUG ?
                      00331                         __CONFIG HS_OSC & WDT_ON & PWRTE_ON & BODEN_OFF & LVP_OFF & CP_OFF & CPD_OFF & DEBUG_ON
                      00332                 ELSE
                      00333                         __CONFIG HS_OSC & WDT_ON & PWRTE_ON & BODEN_OFF & LVP_OFF & CP_OFF & CPD_OFF & DEBUG_OFF
                      00334                         ENDIF
                      00335                 ELSE
                      00336                         IFDEF DEBUG@REQ                                                                 ; Do we require DEBUG ?
                      00337                                 __CONFIG HS_OSC & WDT_OFF & PWRTE_ON & BODEN_OFF & LVP_OFF & CP_OFF & CPD_OFF & DEBUG_ON
                      00338                         ELSE
                      00339                                 __CONFIG HS_OSC & WDT_OFF & PWRTE_ON & BODEN_OFF & LVP_OFF & CP_OFF & CPD_OFF & DEBUG_OFF
                      00340                         ENDIF
                      00341                 ENDIF  
                      00342         ENDIF
                      00343         LIST
  00000004            00062 XTAL = 4
  0000000E            00063 _CORE = 14
  00000170            00064 _MAXRAM = 368
  00000000            00065 _RAM_END = 0
  00002000            00066 _MAXMEM = 8192
  00000008            00067 _ADC = 8
  0000000A            00068 _ADC_RES = 10
  00000100            00069 _EEPROM = 256
  00000004            00070 _PAGES = 4
  00000003            00071 _BANKS = 3
  00000004            00072 RAM_BANKS = 4
  00000001            00073 _USART = 1
  00000000            00074 _USB = 0
  00000001            00075 _FLASH = 1
  00000020            00076 BANK0_START = 32
  0000007F            00077 BANK0_END = 127
  000000A0            00078 BANK1_START = 160
  000000EF            00079 BANK1_END = 239
  00000110            00080 BANK2_START = 272
  0000016F            00081 BANK2_END = 367
  00000190            00082 BANK3_START = 400
  000001EF            00083 BANK3_END = 495
  0000001A            00084 _SYSTEM_VARIABLE_COUNT = 26
  00000000            00085 RAM_BANK = 0
2007   3F31           00086         __CONFIG XT_OSC&WDT_OFF&PWRTE_ON&BODEN_OFF&LVP_OFF&CP_OFF&DEBUG_OFF 
                      00087 F@CALL MACRO DEST
                      00088         IF (DEST < 1)
                      00089         IF ((DEST & 2048) == 0)
                      00090         BCF 10,3
                      00091         ELSE
                      00092         BSF 10,3
                      00093         ENDIF
                      00094         IF ((DEST & 4096) == 0)
                      00095         BCF 10,4
                      00096         ELSE
                      00097         BSF 10,4
                      00098         ENDIF
                      00099         ELSE
                      00100         IF (DEST > $)
                      00101         IF ((DEST & 2048) == 0)
                      00102         BCF 10,3
                      00103         ELSE
                      00104         BSF 10,3
                      00105         ENDIF
                      00106         IF ((DEST & 4096) == 0)
                      00107         BCF 10,4
                      00108         ELSE
                      00109         BSF 10,4
                      00110         ENDIF
                      00111         ELSE
                      00112         IF ((DEST & 6144) == 0)
                      00113         CLRF 10
                      00114         ELSE
                      00115         IF ((DEST & 2048) == 0)
                      00116         BCF 10,3
                      00117         ELSE
                      00118         BSF 10,3
                      00119         ENDIF
                      00120         IF ((DEST & 4096) == 0)
                      00121         BCF 10,4
                      00122         ELSE
                      00123         BSF 10,4
                      00124         ENDIF
                      00125         ENDIF
                      00126         ENDIF
                      00127         ENDIF
                      00128         CALL DEST
                      00129         ENDM
                      00130 F@JUMP MACRO DEST
                      00131         IF (DEST < 1)
                      00132         IF ((DEST & 2048) == 0)
                      00133         BCF 10,3
                      00134         ELSE
                      00135         BSF 10,3
                      00136         ENDIF
                      00137         IF ((DEST & 4096) == 0)
                      00138         BCF 10,4
                      00139         ELSE
                      00140         BSF 10,4
                      00141         ENDIF
                      00142         ELSE
                      00143         IF (DEST > $)
                      00144         IF ((DEST & 2048) == 0)
                      00145         BCF 10,3
                      00146         ELSE
                      00147         BSF 10,3
                      00148         ENDIF
                      00149         IF ((DEST & 4096) == 0)
                      00150         BCF 10,4
                      00151         ELSE
                      00152         BSF 10,4
                      00153         ENDIF
                      00154         ELSE
                      00155         IF ((DEST & 6144) == 0)
                      00156         CLRF 10
                      00157         ELSE
                      00158         IF ((DEST & 2048) == 0)
                      00159         BCF 10,3
                      00160         ELSE
                      00161         BSF 10,3
                      00162         ENDIF
                      00163         IF ((DEST & 4096) == 0)
                      00164         BCF 10,4
                      00165         ELSE
                      00166         BSF 10,4
                      00167         ENDIF
                      00168         ENDIF
                      00169         ENDIF
                      00170         ENDIF
                      00171         GOTO DEST
                      00172         ENDM
                      00173 SET@PAGE MACRO DEST
                      00174         IF ((DEST & 2048) == 0)
                      00175         BCF 10,3
                      00176         ELSE
                      00177         BSF 10,3
                      00178         ENDIF
                      00179         IF ((DEST & 4096) == 0)
                      00180         BCF 10,4
                      00181         ELSE
                      00182         BSF 10,4
                      00183         ENDIF
                      00184         ENDM
                      00185 S@B     MACRO VARIN
                      00186         IF((VARIN & 384) == 0)
                      00187         IF(RAM_BANK == 1)
                      00188         BCF 3,5
                      00189         ENDIF
                      00190         IF(RAM_BANK == 2)
                      00191         BCF 3,6
                      00192         ENDIF
                      00193         IF(RAM_BANK == 3)
                      00194         BCF 3,5
                      00195         BCF 3,6
                      00196         ENDIF
                      00197 RAM_BANK = 0
                      00198         ENDIF
                      00199         IF((VARIN & 384) == 128)
                      00200         IF(RAM_BANK == 0)
                      00201         BSF 3,5
                      00202         ENDIF
                      00203         IF(RAM_BANK == 2)
                      00204         BSF 3,5
                      00205         BCF 3,6
                      00206         ENDIF
                      00207         IF(RAM_BANK == 3)
                      00208         BCF 3,6
                      00209         ENDIF
                      00210 RAM_BANK = 1
                      00211         ENDIF
                      00212         IF((VARIN & 384) == 256)
                      00213         IF(RAM_BANK == 0)
                      00214         BSF 3,6
                      00215         ENDIF
                      00216         IF(RAM_BANK == 1)
                      00217         BCF 3,5
                      00218         BSF 3,6
                      00219         ENDIF
                      00220         IF(RAM_BANK == 3)
                      00221         BCF 3,5
                      00222         ENDIF
                      00223 RAM_BANK = 2
                      00224         ENDIF
                      00225         IF((VARIN & 384) == 384)
                      00226         IF(RAM_BANK == 0)
                      00227         BSF 3,5
                      00228         BSF 3,6
                      00229         ENDIF
                      00230         IF(RAM_BANK == 1)
                      00231         BSF 3,6
                      00232         ENDIF
                      00233         IF(RAM_BANK == 2)
                      00234         BSF 3,5
                      00235         ENDIF
                      00236 RAM_BANK = 3
                      00237         ENDIF
                      00238         ENDM
                      00239 R@B     MACRO
                      00240         IF((RAM_BANK & 1) != 0)
                      00241         BCF 3,5
                      00242         ENDIF
                      00243         IF((RAM_BANK & 2) != 0)
                      00244         BCF 3,6
                      00245         ENDIF
                      00246 RAM_BANK = 0
                      00247         ENDM
                      00248         #INCLUDE C:\PROGRA~1\CROWNH~1\INC\REG_LD14.INC
                      00001 JUMP MACRO LABEL
                      00002         GOTO LABEL
                      00003         ENDM
                      00004 ;-------------------------------------------------------------------------------------------------
                      00005 WREG_BYTE MACRO BYTOUT
                      00006     S@B BYTOUT
                      00007     MOVWF BYTOUT
                      00008     R@B                                                 ; Reset the bank when the macro is finished
                      00009     ENDM
                      00010 ;-------------------------------------------------------------------------------------------------
                      00011 WREG_BIT MACRO VAROUT,BITOUT
                      00012     S@B VAROUT
                      00013     ANDLW 1
                      00014     SKPNZ
                      00015     BCF VAROUT,BITOUT
                      00016     SKPZ
                      00017     BSF VAROUT,BITOUT
                      00018     R@B                                                 ; Reset the bank when the macro is finished
                      00019     ENDM
                      00020 ;-------------------------------------------------------------------------------------------------
                      00021 WREG_WORD MACRO WRDOUT
                      00022     S@B WRDOUT
                      00023     MOVWF WRDOUT
                      00024     S@B WRDOUT + 1
                      00025     CLRF WRDOUT + 1
                      00026     R@B                                                 ; Reset the bank when the macro is finished
                      00027     ENDM
                      00028 ;-------------------------------------------------------------------------------------------------
                      00029 WREG_DWORD MACRO DWDOUT
                      00030     S@B DWDOUT + 3
                      00031     CLRF DWDOUT + 3
                      00032     S@B DWDOUT + 2
                      00033     CLRF DWDOUT + 2
                      00034     S@B DWDOUT + 1
                      00035     CLRF DWDOUT + 1
                      00036     S@B DWDOUT
                      00037     MOVWF DWDOUT
                      00038     R@B                                                 ; Reset the bank when the macro is finished
                      00039     ENDM
                      00040 ;-------------------------------------------------------------------------------------------------
                      00041 BYTE_WREG MACRO BYTIN
                      00042     S@B BYTIN
                      00043     MOVFW BYTIN
                      00044     R@B                                                 ; Reset the bank when the macro is finished
                      00045     ENDM
                      00046 ;-------------------------------------------------------------------------------------------------
                      00047 NUM_WREG MACRO NMIN
                      00048     MOVLW (NMIN & 255)
                      00049     ENDM
                      00050 ;-------------------------------------------------------------------------------------------------
                      00051 NUM_BYTE MACRO NMIN,BYTOUT
                      00052     S@B BYTOUT
                      00053     IF(NMIN == 0)
                      00054         CLRF BYTOUT
                      00055     ELSE
                      00056         MOVLW (NMIN & 255)
                      00057         MOVWF BYTOUT
                      00058     ENDIF
                      00059     R@B                                                 ; Reset the bank when the macro is finished
                      00060     ENDM
                      00061 ;-------------------------------------------------------------------------------------------------
                      00062 NUM_BIT MACRO NMIN,VAROUT,BITOUT
                      00063     S@B VAROUT
                      00064     IF((NMIN & 1) == 1)
                      00065         BSF VAROUT,BITOUT
                      00066     ELSE
                      00067         BCF VAROUT,BITOUT
                      00068         ENDIF
                      00069     R@B                                                 ; Reset the bank when the macro is finished
                      00070     ENDM
                      00071 ;-------------------------------------------------------------------------------------------------
                      00072 NUM_WORD MACRO NMIN,WRDOUT
                      00073     IF((NMIN & 255) == 0)
                      00074         S@B WRDOUT
                      00075         CLRF WRDOUT
                      00076     ELSE
                      00077         S@B WRDOUT
                      00078         MOVLW (NMIN & 255)
                      00079         MOVWF WRDOUT
                      00080     ENDIF
                      00081     IF(((NMIN >> 8) & 255) == 0)
                      00082         S@B WRDOUT + 1
                      00083         CLRF WRDOUT + 1
                      00084     ELSE
                      00085         S@B WRDOUT + 1
                      00086         MOVLW ((NMIN >> 8) & 255)
                      00087         MOVWF WRDOUT + 1
                      00088     ENDIF
                      00089     R@B                                                 ; Reset the bank when the macro is finished
                      00090     ENDM
                      00091 ;-------------------------------------------------------------------------------------------------
                      00092 NUM_DWORD MACRO NMIN,DWDOUT
                      00093 
                      00094     IF ((NMIN >> 24 & 255) == 0)
                      00095         S@B DWDOUT + 3
                      00096         CLRF DWDOUT + 3
                      00097     ELSE
                      00098         S@B DWDOUT + 3
                      00099         MOVLW ((NMIN >> 24) & 255)
                      00100         MOVWF DWDOUT + 3
                      00101     ENDIF
                      00102  
                      00103     IF( ((NMIN >> 16) & 255) == 0)
                      00104         S@B DWDOUT + 2
                      00105         CLRF DWDOUT + 2
                      00106     ELSE
                      00107         S@B DWDOUT + 2
                      00108         MOVLW ((NMIN >> 16) & 255)
                      00109         MOVWF DWDOUT + 2
                      00110     ENDIF
                      00111 
                      00112     IF( ((NMIN >> 8) & 255) == 0)
                      00113         S@B DWDOUT + 1
                      00114         CLRF DWDOUT + 1
                      00115     ELSE
                      00116         S@B DWDOUT + 1
                      00117         MOVLW ((NMIN >> 8) & 255)
                      00118         MOVWF DWDOUT + 1
                      00119     ENDIF
                      00120 
                      00121     IF((NMIN & 255) == 0)
                      00122         S@B DWDOUT
                      00123         CLRF DWDOUT
                      00124     ELSE
                      00125         S@B DWDOUT
                      00126         MOVLW (NMIN & 255)
                      00127         MOVWF DWDOUT
                      00128     ENDIF
                      00129     R@B                                                 ; Reset the bank when the macro is finished
                      00130     ENDM
                      00131 ;-------------------------------------------------------------------------------------------------
                      00132 BIT_WREG MACRO VARIN,BITIN
                      00133     S@B VARIN
                      00134     CLRW
                      00135     BTFSC VARIN,BITIN
                      00136     MOVLW 1
                      00137     R@B                                                 ; Reset the bank when the macro is finished
                      00138     ENDM
                      00139 ;-------------------------------------------------------------------------------------------------
                      00140 BIT_BYTE MACRO VARIN,BITIN,BYTOUT
                      00141     S@B VARIN
                      00142     CLRW
                      00143     BTFSC VARIN,BITIN
                      00144     MOVLW 1
                      00145     S@B BYTOUT
                      00146     MOVWF BYTOUT
                      00147     R@B                                                 ; Reset the bank when the macro is finished
                      00148     ENDM
                      00149 ;-------------------------------------------------------------------------------------------------
                      00150 BIT_BIT MACRO VARIN,BITIN,VAROUT,BITOUT
                      00151     IF((VARIN & 65408) == (VAROUT & 65408))
                      00152         S@B VAROUT
                      00153         BTFSC VARIN,BITIN
                      00154         BSF VAROUT,BITOUT
                      00155         BTFSS VARIN,BITIN
                      00156         BCF VAROUT,BITOUT
                      00157     ELSE
                      00158         S@B VARIN
                      00159         CLRDC
                      00160         BTFSC VARIN,BITIN
                      00161         SETDC
                      00162         S@B VAROUT
                      00163         SKPNDC
                      00164         BSF VAROUT,BITOUT
                      00165         SKPDC
                      00166         BCF VAROUT,BITOUT
                      00167     ENDIF
                      00168     ENDM
                      00169 ;-------------------------------------------------------------------------------------------------
                      00170 BIT_WORD MACRO VARIN,BITIN,WRDOUT
                      00171     S@B WRDOUT + 1
                      00172     CLRF WRDOUT + 1
                      00173     BIT_BYTE VARIN,BITIN,WRDOUT
                      00174     ENDM
                      00175 ;-------------------------------------------------------------------------------------------------
                      00176 BIT_DWORD MACRO VARIN,BITIN,DWDOUT
                      00177     S@B DWDOUT + 3
                      00178     CLRF DWDOUT + 3
                      00179     S@B DWDOUT + 2
                      00180     CLRF DWDOUT + 2
                      00181     S@B DWDOUT + 1
                      00182     CLRF DWDOUT + 1
                      00183         BIT_BYTE VARIN,BITIN,DWDOUT
                      00184     ENDM
                      00185 ;-------------------------------------------------------------------------------------------------
                      00186 WORD_WREG MACRO WRDIN
                      00187     BYTE_WREG WRDIN
                      00188     ENDM
                      00189 ;-------------------------------------------------------------------------------------------------
                      00190 WORD_BYTE MACRO WRDIN,BYTOUT
                      00191     BYTE_BYTE WRDIN,BYTOUT
                      00192     ENDM
                      00193 ;-------------------------------------------------------------------------------------------------
                      00194 WORD_BIT MACRO WRDIN,VAROUT,BITOUT
                      00195     BYTE_BIT WRDIN, VAROUT, BITOUT
                      00196     ENDM
                      00197 ;-------------------------------------------------------------------------------------------------
                      00198 WORD_WORD MACRO WRDIN,WRDOUT
                      00199     S@B WRDIN + 1
                      00200     MOVFW WRDIN + 1
                      00201     S@B WRDOUT + 1
                      00202     MOVWF WRDOUT + 1
                      00203     BYTE_BYTE WRDIN,WRDOUT
                      00204     ENDM
                      00205 ;-------------------------------------------------------------------------------------------------
                      00206 WORD_DWORD MACRO WRDIN,DWDOUT
                      00207     S@B DWDOUT + 3
                      00208     CLRF DWDOUT + 3
                      00209     S@B DWDOUT + 2
                      00210     CLRF DWDOUT + 2
                      00211     BYTE_BYTE WRDIN + 1,DWDOUT + 1
                      00212     BYTE_BYTE WRDIN,DWDOUT
                      00213     ENDM
                      00214 ;-------------------------------------------------------------------------------------------------
                      00215 BYTE_BYTE MACRO BYTIN,BYTOUT
                      00216     S@B BYTIN
                      00217     MOVFW BYTIN
                      00218     S@B BYTOUT
                      00219     MOVWF BYTOUT
                      00220     R@B                                                 ; Reset the bank when the macro is finished
                      00221     ENDM
                      00222 ;-------------------------------------------------------------------------------------------------
                      00223 BYTE_WORD MACRO BYTIN,WRDOUT
                      00224     S@B WRDOUT + 1
                      00225     CLRF WRDOUT + 1
                      00226     BYTE_BYTE BYTIN,WRDOUT
                      00227     ENDM
                      00228 ;-------------------------------------------------------------------------------------------------
                      00229 BYTE_DWORD MACRO BYTIN,DWDOUT
                      00230     S@B DWDOUT + 3
                      00231     CLRF DWDOUT + 3
                      00232     S@B DWDOUT + 2
                      00233     CLRF DWDOUT + 2
                      00234     S@B DWDOUT + 1
                      00235     CLRF DWDOUT + 1
                      00236     BYTE_BYTE BYTIN,DWDOUT
                      00237     ENDM
                      00238 ;-------------------------------------------------------------------------------------------------
                      00239         BYTE_BIT MACRO BYTIN,VAROUT,BITOUT
                      00240     IF((BYTIN & 65408) == (VAROUT & 65408))
                      00241         S@B BYTIN
                      00242         BTFSC BYTIN,0
                      00243         BSF VAROUT,BITOUT
                      00244         BTFSS BYTIN,0
                      00245         BCF VAROUT,BITOUT
                      00246     ELSE
                      00247         S@B BYTIN
                      00248         RRF BYTIN,W
                      00249         S@B VAROUT
                      00250         SKPNC
                      00251         BSF VAROUT,BITOUT
                      00252         SKPC
                      00253         BCF VAROUT,BITOUT
                      00254     ENDIF
                      00255     R@B                                                 ; Reset the bank when the macro is finished
                      00256     ENDM
                      00257 ;-------------------------------------------------------------------------------------------------
                      00258 DWORD_WREG MACRO DWDIN
                      00259     BYTE_WREG DWDIN
                      00260         ENDM
                      00261 ;-------------------------------------------------------------------------------------------------
                      00262 DWORD_BYTE MACRO DWDIN,BYTOUT
                      00263     BYTE_BYTE DWDIN,BYTOUT
                      00264         ENDM
                      00265 ;-------------------------------------------------------------------------------------------------
                      00266 DWORD_WORD MACRO DWDIN,WRDOUT
                      00267     S@B DWDIN + 1
                      00268     MOVFW DWDIN + 1
                      00269     S@B WRDOUT + 1
                      00270     MOVWF WRDOUT + 1
                      00271     BYTE_BYTE DWDIN,WRDOUT
                      00272         ENDM
                      00273 ;-------------------------------------------------------------------------------------------------
                      00274 DWORD_DWORD MACRO DWDIN,DWDOUT
                      00275     BYTE_BYTE DWDIN + 3,DWDOUT + 3
                      00276     BYTE_BYTE DWDIN + 2,DWDOUT + 2
                      00277     BYTE_BYTE DWDIN + 1,DWDOUT + 1
                      00278     BYTE_BYTE DWDIN,DWDOUT
                      00279         ENDM
                      00280 ;-------------------------------------------------------------------------------------------------
                      00281 DWORD_BIT MACRO DWDIN,VAROUT,BITOUT
                      00282     BYTE_BIT DWDIN,VAROUT,BITOUT
                      00283         ENDM
  00000020            00249 BPF = 32
  00000021            00250 BPFH = 33
  00000022            00251 GEN = 34
  00000023            00252 GEN3H = 35
  00000024            00253 GEN4 = 36
  00000025            00254 GEN4H = 37
  00000026            00255 GENH = 38
  00000027            00256 PBP#RND = 39
  00000028            00257 PBP#RNDH = 40
  00000029            00258 PBP#VAR0 = 41
  0000002A            00259 PBP#VAR0H = 42
  0000002B            00260 PBP#VAR1 = 43
  0000002C            00261 PP0 = 44
  0000002D            00262 PP0H = 45
  0000002E            00263 PP1 = 46
  0000002F            00264 PP1H = 47
  00000030            00265 PP2 = 48
  00000031            00266 PP2H = 49
  00000032            00267 PP3 = 50
  00000033            00268 PP3H = 51
  00000034            00269 PP4 = 52
  00000035            00270 PP5 = 53
  00000036            00271 PP6 = 54
  00000037            00272 PP6H = 55
  00000038            00273 PP7 = 56
  00000039            00274 PP7H = 57
  00000019            00275 HSERIAL_SPBRG = 25
  00000020            00276 HSERIAL_TXSTA = 32
  00000090            00277 HSERIAL_RCSTA = 144
  00000960            00278 HSERIAL_BAUD = 2400
0000                  00279         ORG 0
0000   0000           00280         NOP
0001   3001           00281         MOVLW HIGH START@
0002   008A           00282         MOVWF 10
0003   2978           00283         GOTO START@
0004                  00284         ORG 4
0004   3080           00285 LCD@CLS MOVLW 128
0005   00A1           00286         MOVWF 33
0006   30FE           00287 CLS     MOVLW 254
0007   20BD           00288         CALL CH@SND
0008   3001           00289         MOVLW 1
0009   20BD           00290         CALL CH@SND
000A   3075           00291         MOVLW 117
000B   00AD           00292         MOVWF 45
000C   3030           00293         MOVLW 48
000D   2923           00294         GOTO DLUS@W
000E   01A1           00295 LCD@CRS CLRF 33
000F   17A1           00296         BSF 33,7
0010   00B5           00297 CURS@ MOVWF 53
0011   30FE           00298         MOVLW 254
0012   20BD           00299         CALL CH@SND
0013   0835           00300         MOVFW 53
0014   28BD           00301         GOTO CH@SND
0015                  00302 OUT@DECB
0015   01A5           00303         CLRF 37
0016                  00304 OUT@DECC
0016   00B0           00305         MOVWF 48
0017   01B1           00306         CLRF 49
0018                  00307 OUT@DEC
0018   11A0           00308         BCF 32,3
0019   0825           00309         MOVFW 37
001A   1903           00310         SKPNZ
001B   15A0           00311         BSF 32,3
001C   3005           00312         MOVLW 5
001D   00A4           00313         MOVWF 36
001E   3027           00314         MOVLW 39
001F   00AF           00315         MOVWF 47
0020   3010           00316         MOVLW 16
0021   202E           00317         CALL D@DIG
0022   3003           00318         MOVLW 3
0023   00AF           00319         MOVWF 47
0024   30E8           00320         MOVLW 232
0025   202E           00321         CALL D@DIG
0026   01AF           00322         CLRF 47
0027   3064           00323         MOVLW 100
0028   202E           00324         CALL D@DIG
0029   01AF           00325         CLRF 47
002A   300A           00326         MOVLW 10
002B   202E           00327         CALL D@DIG
002C   0830           00328         MOVFW 48
002D   2835           00329         GOTO SEND@IT
002E   00AE           00330 D@DIG MOVWF 46
002F   0831           00331         MOVFW 49
0030   00AD           00332         MOVWF 45
0031   0830           00333         MOVFW 48
0032   00AC           00334         MOVWF 44
0033   2144           00335         CALL D@VD
0034   082C           00336         MOVFW 44
0035   00AC           00337 SEND@IT MOVWF 44
0036   03A4           00338         DECF 36,F
0037   1903           00339         SKPNZ
0038   11A0           00340         BCF 32,3
0039   0825           00341         MOVFW 37
003A   1903           00342         SKPNZ
003B   283F           00343         GOTO $ + 4
003C   0224           00344         SUBWF 36,W
003D   1803           00345         SKPNC
003E   0008           00346         RETURN
003F   082C           00347         MOVFW 44
0040   1D03           00348         SKPZ
0041   11A0           00349         BCF 32,3
0042   19A0           00350         BTFSC 32,3
0043   0008           00351         RETURN
0044   3E30           00352         ADDLW '0'
0045   28BD           00353         GOTO CH@SND
  00000008            00354 LCD_DTPORT = PORTD
  00000000            00355 LCD_DTPIN = 0
  00000008            00356 LCD_RSPORT = PORTD
  00000007            00357 LCD_RSPIN = 7
  00000008            00358 LCD_ENPORT = PORTD
  00000006            00359 LCD_ENPIN = 6
  00000004            00360 LCD_INTERFACE = 4
  00000002            00361 LCD_LINES = 2
  00000000            00362 LCD_TYPE = 0
0046   00B3           00363 PRINT MOVWF 51
0047   1308           00364         BCF PORTD,6
0048   1388           00365         BCF PORTD,7
0049   1683           00366         BSF 3,5
004A   1308           00367         BCF PORTD,6
004B   1388           00368         BCF PORTD,7
004C   30F0           00369         MOVLW 240
004D   0588           00370         ANDWF PORTD,F
004E   1283           00371         BCF 3,5
004F   0833           00372         MOVFW 51
0050   18A0           00373         BTFSC 32,1
0051   2870           00374         GOTO PRT@1
0052   303E           00375         MOVLW 62
0053   00AD           00376         MOVWF 45
0054   3080           00377         MOVLW 128
0055   2123           00378         CALL DLUS@W
0056   3033           00379         MOVLW 51
0057   00B2           00380         MOVWF 50
0058   2085           00381         CALL PR@LP
0059   3013           00382         MOVLW 19
005A   00AD           00383         MOVWF 45
005B   3088           00384         MOVLW 136
005C   2123           00385         CALL DLUS@W
005D   2085           00386         CALL PR@LP
005E   3064           00387         MOVLW 100
005F   2122           00388         CALL DL@US
0060   2085           00389         CALL PR@LP
0061   3064           00390         MOVLW 100
0062   2122           00391         CALL DL@US
0063   3022           00392         MOVLW 34
0064   00B2           00393         MOVWF 50
0065   2085           00394         CALL PR@LP
0066   3028           00395         MOVLW 40
0067   206F           00396         CALL PRT@C
0068   300C           00397         MOVLW 12
0069   206F           00398         CALL PRT@C
006A   3006           00399         MOVLW 6
006B   206F           00400         CALL PRT@C
006C   14A0           00401         BSF 32,1
006D   0833           00402         MOVFW 51
006E   2870           00403         GOTO PRT@1
006F   1420           00404 PRT@C BSF 32,0
0070   00B2           00405 PRT@1 MOVWF 50
0071   1C20           00406         BTFSS 32,0
0072   287E           00407         GOTO $ + 12
0073   1388           00408         BCF PORTD,7
0074   3C03           00409         SUBLW 3
0075   1C03           00410         SKPC
0076   2883           00411         GOTO PRT@S
0077   2083           00412         CALL PRT@S
0078   3005           00413         MOVLW 5
0079   00AD           00414         MOVWF 45
007A   30DC           00415         MOVLW 220
007B   2123           00416         CALL DLUS@W
007C   1403           00417         SETC
007D   0008           00418         RETURN
007E   1420           00419         BSF 32,0
007F   3CFE           00420         SUBLW 254
0080   1903           00421         SKPNZ
0081   2892           00422         GOTO PR@EX
0082   1788           00423         BSF PORTD,7
0083                  00424 PRT@S
0083   0EB2           00425         SWAPF 50,F
0084   1C20           00426         BTFSS 32,0
0085   1020           00427 PR@LP BCF 32,0
0086   1708           00428         BSF PORTD,6
0087   30F0           00429         MOVLW 240
0088   0588           00430         ANDWF PORTD,F
0089   0832           00431         MOVFW 50
008A   390F           00432         ANDLW 15
008B   0488           00433         IORWF PORTD,F
008C   1308           00434         BCF PORTD,6
008D   0EB2           00435         SWAPF 50,F
008E   1820           00436         BTFSC 32,0
008F   2885           00437         GOTO PR@LP
0090   3032           00438         MOVLW 50
0091   2122           00439         CALL DL@US
0092   0833           00440 PR@EX MOVFW 51
0093   2973           00441         GOTO I@NT
0094                  00442 RSOUT@
0094                  00443 HRSIN2
0094   1898           00444         BTFSC 24,OERR
0095   1218           00445         BCF 24,CREN
0096   1618           00446         BSF 24,CREN
0097   0822           00447         MOVFW 34
0098   00AC           00448         MOVWF 44
0099   0826           00449         MOVFW 38
009A   00AD           00450         MOVWF 45
009B   01AE           00451         CLRF 46
009C   01AF           00452         CLRF 47
009D   289E           00453         GOTO $ + 1
009E   289F           00454         GOTO $ + 1
009F   0000           00455         NOP
00A0   1A8C           00456         BTFSC 12,RCIF
00A1   28BA           00457         GOTO H@RSIN
00A2   30FF           00458         MOVLW 255
00A3   07AE           00459         ADDWF 46,F
00A4   1C03           00460         SKPC
00A5   07AF           00461         ADDWF 47,F
00A6   1C03           00462         SKPC
00A7   07AC           00463         ADDWF 44,F
00A8   1C03           00464         SKPC
00A9   07AD           00465         ADDWF 45,F
00AA   1C03           00466         SKPC
00AB   2973           00467         GOTO I@NT
00AC   0F2E           00468         INCFSZ 46,W
00AD   289D           00469         GOTO $ - 16
00AE   0F2F           00470         INCFSZ 47,W
00AF   289E           00471         GOTO $ - 17
00B0   3032           00472         MOVLW 50
00B1   00AE           00473         MOVWF 46
00B2   3000           00474         MOVLW 0
00B3   00AF           00475         MOVWF 47
00B4   289F           00476         GOTO $ - 21
00B5                  00477 HRSIN
00B5   1898           00478         BTFSC 24,OERR
00B6   1218           00479         BCF 24,CREN
00B7   1618           00480         BSF 24,CREN
00B8   1E8C           00481         BTFSS 12,RCIF
00B9   28B8           00482         GOTO $ - 1
00BA   081A           00483 H@RSIN MOVFW 26
00BB   1403           00484         SETC
00BC   2973           00485         GOTO I@NT
00BD                  00486 CH@SND
00BD   1BA1           00487         BTFSC 33,7
00BE   2846           00488         GOTO PRINT
00BF                  00489 EE_RD
00BF   1703           00490         BSF 3,6
00C0   008D           00491         MOVWF 269
00C1                  00492 EE_RD@W
00C1   1703           00493         BSF 3,6
00C2   1683           00494         BSF 3,5
00C3   138C           00495         BCF 396,EEPGD
00C4   140C           00496         BSF 396,RD
00C5   1283           00497         BCF 3,5
00C6   080C           00498         MOVFW 268
00C7   0A8D           00499         INCF 269,F
00C8   2973           00500         GOTO I@NT
00C9                  00501 EE_WR
00C9                  00502 EE_WR@W
00C9   1703           00503         BSF 3,6
00CA   008C           00504         MOVWF 268
00CB   1683           00505         BSF 3,5
00CC   138C           00506         BCF 396,EEPGD
00CD   150C           00507         BSF 396,WREN
00CE   3055           00508         MOVLW 85
00CF   008D           00509         MOVWF 397
00D0   30AA           00510         MOVLW 170
00D1   008D           00511         MOVWF 397
00D2   148C           00512         BSF 396,WR
00D3   188C           00513         BTFSC 396,WR
00D4   28D3           00514         GOTO $ - 1
00D5   110C           00515         BCF 396,WREN
00D6   1283           00516         BCF 3,5
00D7   0A8D           00517         INCF 269,F
00D8   2973           00518         GOTO I@NT
00D9   00AF           00519 NOISE MOVWF 47
00DA   0822           00520         MOVFW 34
00DB   0084           00521         MOVWF 4
00DC   0926           00522         COMF 38,W
00DD   1784           00523         BSF 4,7
00DE   0580           00524         ANDWF 0,F
00DF   1384           00525         BCF 4,7
00E0   08AF           00526         TSTF 47
00E1   1903           00527         SKPNZ
00E2   2901           00528         GOTO SND@EXIT
00E3   30F0           00529         MOVLW 240
00E4   00B1           00530         MOVWF 49
00E5   082E           00531 N@LP MOVFW 46
00E6   3880           00532         IORLW 128
00E7   00B0           00533         MOVWF 48
00E8   30F0           00534 N@LP1 MOVLW 240
00E9   03B1           00535         DECF 49,F
00EA   1903           00536         SKPNZ
00EB   00B1           00537         MOVWF 49
00EC   1903           00538         SKPNZ
00ED   03AF           00539         DECF 47,F
00EE   1903           00540         SKPNZ
00EF   2901           00541         GOTO SND@EXIT
00F0   28F1           00542         GOTO $ + 1
00F1   2105           00543         CALL RN@DM
00F2   0103           00544         CLRW
00F3   1827           00545         BTFSC PBP#RND,0
00F4   0826           00546         MOVFW 38
00F5   1FAE           00547         BTFSS 46,7
00F6   0826           00548         MOVFW 38
00F7   08AE           00549         TSTF 46
00F8   1903           00550         SKPNZ
00F9   0103           00551         CLRW
00FA   0FB0           00552         INCFSZ 48,F
00FB   28FE           00553         GOTO $ + 3
00FC   0680           00554         XORWF 0,F
00FD   28E5           00555         GOTO N@LP
00FE   28FF           00556         GOTO $ + 1
00FF   0000           00557         NOP
0100   28E8           00558         GOTO N@LP1
0101                  00559 SND@EXIT
0101   0826           00560         MOVFW 38
0102   1784           00561         BSF 4,7
0103   0480           00562         IORWF 0,F
0104   2973           00563         GOTO I@NT
0105   0828           00564 RN@DM MOVFW PBP#RNDH
0106   0427           00565         IORWF PBP#RND,W
0107   1903           00566         SKPNZ
0108   0AA7           00567         INCF PBP#RND,F
0109   3080           00568         MOVLW 128
010A   1A27           00569         BTFSC PBP#RND,4
010B   06A8           00570         XORWF PBP#RNDH,F
010C   1927           00571         BTFSC PBP#RND,2
010D   06A8           00572         XORWF PBP#RNDH,F
010E   18A7           00573         BTFSC PBP#RND,1
010F   06A8           00574         XORWF PBP#RNDH,F
0110   0D28           00575         RLF PBP#RNDH,W
0111   0DA7           00576         RLF PBP#RND,F
0112   0DA8           00577         RLF PBP#RNDH,F
0113   0827           00578         MOVFW PBP#RND
0114   2973           00579         GOTO I@NT
0115   01AF           00580 DL@MS CLRF 47
0116   00AE           00581 DLY@W MOVWF 46
0117   30FF           00582         MOVLW 255
0118   07AE           00583         ADDWF 46,F
0119   1C03           00584         SKPC
011A   07AF           00585         ADDWF 47,F
011B   1C03           00586         SKPC
011C   2973           00587         GOTO I@NT
011D   3003           00588         MOVLW 3
011E   00AD           00589         MOVWF 45
011F   30DF           00590         MOVLW 223
0120   2123           00591         CALL DLUS@W
0121   2917           00592         GOTO $ - 10
0122   01AD           00593 DL@US CLRF 45
0123   3EE8           00594 DLUS@W ADDLW 232
0124   00AC           00595         MOVWF 44
0125   09AD           00596         COMF 45,F
0126   30FC           00597         MOVLW 252
0127   1C03           00598         SKPC
0128   292C           00599         GOTO $ + 4
0129   07AC           00600         ADDWF 44,F
012A   1803           00601         SKPNC
012B   2929           00602         GOTO $ - 2
012C   07AC           00603         ADDWF 44,F
012D   0000           00604         NOP
012E   0FAD           00605         INCFSZ 45,F
012F   2929           00606         GOTO $ - 6
0130   182C           00607         BTFSC 44,0
0131   2932           00608         GOTO $ + 1
0132   1CAC           00609         BTFSS 44,1
0133   2936           00610         GOTO $ + 3
0134   0000           00611         NOP
0135   2936           00612         GOTO $ + 1
0136   0008           00613         RETURN
0137   3001           00614 C@BT MOVLW HIGH C@TBL
0138   008A           00615         MOVWF 10
0139   0834           00616         MOVFW 52
013A   3907           00617         ANDLW 7
013B   0782           00618         ADDWF 2,F
013C   3401           00619 C@TBL RETLW 1
013D   3402           00620         RETLW 2
013E   3404           00621         RETLW 4
013F   3408           00622         RETLW 8
0140   3410           00623         RETLW 16
0141   3420           00624         RETLW 32
0142   3440           00625         RETLW 64
0143   3480           00626         RETLW 128
0144   01B1           00627 D@VD CLRF 49
0145   01B0           00628         CLRF 48
0146   3010           00629 D@VD2 MOVLW 16
0147   00B2           00630         MOVWF 50
0148   0D2D           00631         RLF 45,W
0149   0DB0           00632         RLF 48,F
014A   0DB1           00633         RLF 49,F
014B   082E           00634         MOVFW 46
014C   02B0           00635         SUBWF 48,F
014D   082F           00636         MOVFW 47
014E   1C03           00637         SKPC
014F   0F2F           00638         INCFSZ 47,W
0150   02B1           00639         SUBWF 49,F
0151   1803           00640         SKPNC
0152   295A           00641         GOTO $ + 8
0153   082E           00642         MOVFW 46
0154   07B0           00643         ADDWF 48,F
0155   082F           00644         MOVFW 47
0156   1803           00645         SKPNC
0157   0F2F           00646         INCFSZ 47,W
0158   07B1           00647         ADDWF 49,F
0159   1003           00648         CLRC
015A   0DAC           00649         RLF 44,F
015B   0DAD           00650         RLF 45,F
015C   0BB2           00651         DECFSZ 50,F
015D   2948           00652         GOTO $ - 21
015E   082C           00653         MOVFW 44
015F   2973           00654         GOTO I@NT
0160   00B4           00655 DC@D MOVWF 52
0161   2137           00656         CALL C@BT
0162   01AC           00657         CLRF 44
0163   01AD           00658         CLRF 45
0164   1DB4           00659         BTFSS 52,3
0165   00AC           00660         MOVWF 44
0166   19B4           00661         BTFSC 52,3
0167   00AD           00662         MOVWF 45
0168   082C           00663         MOVFW 44
0169   2973           00664         GOTO I@NT
016A   00AC           00665 NCD@W MOVWF 44
016B   3011           00666 NCD@P MOVLW 17
016C   3EFF           00667         ADDLW (256 -1)
016D   0DAC           00668         RLF 44,F
016E   0DAD           00669         RLF 45,F
016F   1C03           00670         SKPC
0170   296C           00671         GOTO $ - 4
0171   00AC           00672         MOVWF 44
0172   2973           00673         GOTO I@NT
0173   1383           00674 I@NT BCF 3,7
0174   1283           00675 I@NT2 BCF 3,5
0175   1303           00676         BCF 3,6
0176   0000           00677         NOP
0177   0008           00678         RETURN
0178                  00679 START@
0178   1683           00680         BSF 3,5
0179   3019           00681         MOVLW 25
017A   0099           00682         MOVWF 153
017B   3020           00683         MOVLW 32
017C   0098           00684         MOVWF 152
017D   1283           00685         BCF 3,5
017E   3090           00686         MOVLW 144
017F   0098           00687         MOVWF 24
0180   01A0           00688         CLRF 32
                      00010 
                      00011         LIST
  0000003A            00012 INDEX EQU 58
  0000003B            00013 INDEX2 EQU 59
  0000003C            00014 TAGOFFSET EQU 60
  0000003D            00015 B1 EQU 61
  0000003E            00016 B2 EQU 62
  0000003F            00017 _B#VR1 EQU 63
  00000040            00018 CURRENTLINE EQU 64
  00000041            00019 STARTLINE EQU 65
  00000042            00020 ENDLINE EQU 66
  00000043            00021 LASTUSER EQU 67
  00000044            00022 EMPIN EQU 68
  0044                00023  VARIABLE EMPIN#0=68,EMPIN#1=69,EMPIN#2=70,EMPIN#3=71,EMPIN#4=72,EMPIN#5=73
  0000004A            00024 CE EQU 74
  004A                00025  VARIABLE CE#0=74,CE#1=75,CE#2=76
  0000004D            00026 TAGIN EQU 77
  004D                00027  VARIABLE TAGIN#0=77,TAGIN#1=78,TAGIN#2=79,TAGIN#3=80,TAGIN#4=81,TAGIN#5=82
  0053                00028  VARIABLE TAGIN#6=83,TAGIN#7=84,TAGIN#8=85,TAGIN#9=86
  00000057            00029 CT EQU 87
  0057                00030  VARIABLE CT#0=87,CT#1=88,CT#2=89,CT#3=90,CT#4=91
  0000005C            00031 FOOTER EQU 92
  0000005D            00032 NUA EQU 93
  0000005E            00033 STIME EQU 94
  0000005F            00034 COL EQU 95
  00000060            00035 ROW EQU 96
  00000061            00036 KEY EQU 97
                      00037         #DEFINE FLAG _B#VR1,0
                      00038         #DEFINE GIE INTCON,7
                      00039         #DEFINE STARTENABLE PORTD,5
                      00040         #DEFINE GREEN PORTC,2
                      00041         #DEFINE RED PORTC,1
                      00042         #DEFINE SPIN PORTC,4
                      00043         #DEFINE RFIDENABLE PORTD,4
                      00044         #DEFINE HHDETECT PORTC,3
  00000181            00045 F1_SOF EQU $ ; RFIDSY~1.BAS
  00000181            00046 F1_000011 EQU $ ; in [RFIDSY~1.BAS] CONFIG XT_OSC , WDT_OFF , PWRTE_ON , BODEN_OFF , LVP_OFF , CP_OFF , DEBUG_OFF
  00000181            00047 F1_000060 EQU $ ; in [RFIDSY~1.BAS] Option_Reg.6 = 0   'Set to allow PortB.0 to detect a high to low pulse
0181   1683           00048         BSF STATUS,5
  00000001            00049 RAM_BANK = 1
0182   1301           00050         BCF OPTION_REG,6
  00000183            00051 F1_000062 EQU $ ; in [RFIDSY~1.BAS] PORTB_PULLUPS = TRUE           ' Enable PORTB pullups
0183   1381           00052         BCF OPTION_REG,7
  00000184            00053 F1_000063 EQU $ ; in [RFIDSY~1.BAS] ALL_DIGITAL = TRUE     'Sets all Ports to digital inputs and outputs
0184   3007           00054         MOVLW 7
0185   009F           00055         MOVWF ADCON1
  00000186            00056 F1_000064 EQU $ ; in [RFIDSY~1.BAS] INPUT HHDetect      'Set HHDetect as input
0186   1587           00057         BSF TRISC,3
  00000187            00058 F1_000065 EQU $ ; in [RFIDSY~1.BAS] Output StartEnable     'Set PORTD.5 as OutPut
0187   1288           00059         BCF TRISD,5
0188                  00060 START
0188   1283           00061         BCF STATUS,5
  00000000            00062 RAM_BANK = 0
  00000189            00063 F1_000071 EQU $ ; in [RFIDSY~1.BAS] B1 = "C"   'Set B1 to 'Clear' so that it is not confused when checking Employee Numbers
0189   3043           00064         MOVLW 67
018A   00BD           00065         MOVWF B1
  0000018B            00066 F1_000072 EQU $ ; in [RFIDSY~1.BAS] Low Red          'Set Bi-Polar Led Off
018B   1087           00067         BCF PORTC,1
018C   1683           00068         BSF STATUS,5
  00000001            00069 RAM_BANK = 1
018D   1087           00070         BCF TRISC,1
  0000018E            00071 F1_000073 EQU $ ; in [RFIDSY~1.BAS] Low Green     'Set Bi-Polar Led Off
018E   1283           00072         BCF STATUS,5
  00000000            00073 RAM_BANK = 0
018F   1107           00074         BCF PORTC,2
0190   1683           00075         BSF STATUS,5
  00000001            00076 RAM_BANK = 1
0191   1107           00077         BCF TRISC,2
  00000192            00078 F1_000074 EQU $ ; in [RFIDSY~1.BAS] High RFIDEnable            ' Turn off RFID Reader
0192   1283           00079         BCF STATUS,5
  00000000            00080 RAM_BANK = 0
0193   1608           00081         BSF PORTD,4
0194   1683           00082         BSF STATUS,5
  00000001            00083 RAM_BANK = 1
0195   1208           00084         BCF TRISD,4
  00000196            00085 F1_000075 EQU $ ; in [RFIDSY~1.BAS] Low StartEnable       'Shut off start relay
0196   1283           00086         BCF STATUS,5
  00000000            00087 RAM_BANK = 0
0197   1288           00088         BCF PORTD,5
0198   1683           00089         BSF STATUS,5
  00000001            00090 RAM_BANK = 1
0199   1288           00091         BCF TRISD,5
  0000019A            00092 F1_000076 EQU $ ; in [RFIDSY~1.BAS] High RFIDEnable       'Shut Off RFID Reader
019A   1283           00093         BCF STATUS,5
  00000000            00094 RAM_BANK = 0
019B   1608           00095         BSF PORTD,4
019C   1683           00096         BSF STATUS,5
  00000001            00097 RAM_BANK = 1
019D   1208           00098         BCF TRISD,4
  0000019E            00099 F1_000077 EQU $ ; in [RFIDSY~1.BAS] GIE = 0      ' Turn OFF global interrupts
019E   138B           00100         BCF INTCON,7
  0000019F            00101 F1_000078 EQU $ ; in [RFIDSY~1.BAS] WHILE GIE = 1 : GIE = 0 : WEND  ' And make sure they are off
019F                  00102 BC@LL1
019F   1283           00103         BCF STATUS,5
  00000000            00104 RAM_BANK = 0
                      00105         SET@PAGE BC@LL2
01A2   1F8B           00106         BTFSS INTCON,7
01A3   29A7           00107         GOTO BC@LL2
                      00108 
01A4   138B           00109         BCF INTCON,7
                      00110         F@JUMP BC@LL1
01A7                  00111 BC@LL2
  000001A7            00112 F1_000079 EQU $ ; in [RFIDSY~1.BAS] INTCON.4 = 0             'Set wakeup on PortB.0 to off
01A7   120B           00113         BCF INTCON,4
  000001A8            00114 F1_000087 EQU $ ; in [RFIDSY~1.BAS] Print $FE, $0F       'Blinking Cursor ON
01A8   30FE           00115         MOVLW 254
                      00116         F@CALL PRINT
01AB   300F           00117         MOVLW 15
                      00118         F@CALL PRINT
  000001AE            00119 F1_000088 EQU $ ; in [RFIDSY~1.BAS] CLS               'Clear LCD
                      00120         F@CALL LCD@CLS
  000001B0            00121 F1_000089 EQU $ ; in [RFIDSY~1.BAS] PRINT $FE , 2       'Move Cursor to HOME
01B0   30FE           00122         MOVLW 254
                      00123         F@CALL PRINT
01B3   3002           00124         MOVLW 2
                      00125         F@CALL PRINT
  000001B6            00126 F1_000091 EQU $ ; in [RFIDSY~1.BAS] TagOffset = 3        'Unit key table OffSet
01B6   3003           00127         MOVLW 3
01B7   00BC           00128         MOVWF TAGOFFSET
  000001B8            00129 F1_000092 EQU $ ; in [RFIDSY~1.BAS] NUA = EREAD 255        'Set 'NUA' to next empty user address in Table
01B8   30FF           00130         MOVLW 255
                      00131         F@CALL EE_RD
01BB   00DD           00132         MOVWF NUA
  000001BC            00133 F1_000094 EQU $ ; in [RFIDSY~1.BAS] If NUA = 0xFF then   'If User address spot = 0xFF then chip is new
01BC   0A5D           00134         INCF NUA,W
                      00135         SET@PAGE BC@LL4
01BF   1D03           00136         BTFSS STATUS,2
01C0   29D4           00137         GOTO BC@LL4
  000001C1            00138 F1_000095 EQU $ ; in [RFIDSY~1.BAS] EWrite 255,[5]    'This is the first User address spot. (0-4 is used by 'Master Key')
01C1   1703           00139         BSF STATUS,6
  00000002            00140 RAM_BANK = 2
01C2   30FF           00141         MOVLW 255
01C3   008D           00142         MOVWF EEADR
01C4   3005           00143         MOVLW 5
01C5   1303           00144         BCF STATUS,6
  00000000            00145 RAM_BANK = 0
                      00146         F@CALL EE_WR
  000001C8            00147 F1_000096 EQU $ ; in [RFIDSY~1.BAS] NUA = 5
01C8   3005           00148         MOVLW 5
01C9   00DD           00149         MOVWF NUA
  000001CA            00150 F1_000097 EQU $ ; in [RFIDSY~1.BAS] EWRITE 254, [202]  'This is the first spot for User History records
01CA   30FE           00151         MOVLW 254
01CB   1703           00152         BSF STATUS,6
  00000002            00153 RAM_BANK = 2
01CC   008D           00154         MOVWF EEADR
01CD   30CA           00155         MOVLW 202
01CE   1303           00156         BCF STATUS,6
  00000000            00157 RAM_BANK = 0
                      00158         F@CALL EE_WR
  000001D1            00159 F1_000098 EQU $ ; in [RFIDSY~1.BAS] GoTo MainMenu
                      00160         F@JUMP MAINMENU
  000001D4            00161 F1_000099 EQU $ ; in [RFIDSY~1.BAS] ENDIF
01D4                  00162 BC@LL4
  000001D4            00163 F1_000100 EQU $ ; in [RFIDSY~1.BAS] NUA = EREAD 255
01D4   30FF           00164         MOVLW 255
                      00165         F@CALL EE_RD
01D7   00DD           00166         MOVWF NUA
  000001D8            00167 F1_000102 EQU $ ; in [RFIDSY~1.BAS] If HHDetect = 1 then 'We have detected that the programming HandHeld is plugged in.
                      00168         SET@PAGE BC@LL6
01DA   1D87           00169         BTFSS PORTC,3
01DB   2A36           00170         GOTO BC@LL6
  000001DC            00171 F1_000103 EQU $ ; in [RFIDSY~1.BAS] CLS
                      00172         F@CALL LCD@CLS
  000001DE            00173 F1_000104 EQU $ ; in [RFIDSY~1.BAS] Print AT 1,1, "Welcome to"
01DE   3080           00174         MOVLW 128
01DF   00A1           00175         MOVWF BPFH
01E0   3080           00176         MOVLW 128
                      00177         F@CALL LCD@CRS
01E3   3057           00178         MOVLW 'W'
                      00179         F@CALL PRINT
01E6   3065           00180         MOVLW 'e'
                      00181         F@CALL PRINT
01E9   306C           00182         MOVLW 'l'
                      00183         F@CALL PRINT
01EC   3063           00184         MOVLW 'c'
                      00185         F@CALL PRINT
01EF   306F           00186         MOVLW 'o'
                      00187         F@CALL PRINT
01F2   306D           00188         MOVLW 'm'
                      00189         F@CALL PRINT
01F5   3065           00190         MOVLW 'e'
                      00191         F@CALL PRINT
01F8   3020           00192         MOVLW ' '
                      00193         F@CALL PRINT
01FB   3074           00194         MOVLW 't'
                      00195         F@CALL PRINT
01FE   306F           00196         MOVLW 'o'
                      00197         F@CALL PRINT
  00000201            00198 F1_000105 EQU $ ; in [RFIDSY~1.BAS] Print AT 2,1, "KeyBusters..."
0201   3080           00199         MOVLW 128
0202   00A1           00200         MOVWF BPFH
0203   30C0           00201         MOVLW 192
                      00202         F@CALL LCD@CRS
0206   304B           00203         MOVLW 'K'
                      00204         F@CALL PRINT
0209   3065           00205         MOVLW 'e'
                      00206         F@CALL PRINT
020C   3079           00207         MOVLW 'y'
                      00208         F@CALL PRINT
020F   3042           00209         MOVLW 'B'
                      00210         F@CALL PRINT
0212   3075           00211         MOVLW 'u'
                      00212         F@CALL PRINT
0215   3073           00213         MOVLW 's'
                      00214         F@CALL PRINT
0218   3074           00215         MOVLW 't'
                      00216         F@CALL PRINT
021B   3065           00217         MOVLW 'e'
                      00218         F@CALL PRINT
021E   3072           00219         MOVLW 'r'
                      00220         F@CALL PRINT
0221   3073           00221         MOVLW 's'
                      00222         F@CALL PRINT
0224   302E           00223         MOVLW '.'
                      00224         F@CALL PRINT
                      00225         F@CALL PRINT
                      00226         F@CALL PRINT
  0000022B            00227 F1_000106 EQU $ ; in [RFIDSY~1.BAS] Pause 3000
022B   300B           00228         MOVLW 11
022C   00AF           00229         MOVWF PP1H
022D   30B8           00230         MOVLW 184
                      00231         F@CALL DLY@W
  00000230            00232 F1_000107 EQU $ ; in [RFIDSY~1.BAS] GOTO MainMenu
                      00233         F@JUMP MAINMENU
                      00234         F@JUMP BC@LL7
0236                  00235 BC@LL6
  00000236            00236 F1_000109 EQU $ ; in [RFIDSY~1.BAS] ELSE 'HHDetect = 1         'Hand Held programmer was not detected so          '
  00000236            00237 F1_000110 EQU $ ; in [RFIDSY~1.BAS] CLS
                      00238         F@CALL LCD@CLS
  00000238            00239 F1_000111 EQU $ ; in [RFIDSY~1.BAS] Print AT 1,1, "Ready to"  'we will attempt to get a user key and
0238   3080           00240         MOVLW 128
0239   00A1           00241         MOVWF BPFH
023A   3080           00242         MOVLW 128
                      00243         F@CALL LCD@CRS
023D   3052           00244         MOVLW 'R'
                      00245         F@CALL PRINT
0240   3065           00246         MOVLW 'e'
                      00247         F@CALL PRINT
0243   3061           00248         MOVLW 'a'
                      00249         F@CALL PRINT
0246   3064           00250         MOVLW 'd'
                      00251         F@CALL PRINT
0249   3079           00252         MOVLW 'y'
                      00253         F@CALL PRINT
024C   3020           00254         MOVLW ' '
                      00255         F@CALL PRINT
024F   3074           00256         MOVLW 't'
                      00257         F@CALL PRINT
0252   306F           00258         MOVLW 'o'
                      00259         F@CALL PRINT
  00000255            00260 F1_000112 EQU $ ; in [RFIDSY~1.BAS] Print At 2,1, "Start Unit"  'start the unit.
0255   3080           00261         MOVLW 128
0256   00A1           00262         MOVWF BPFH
0257   30C0           00263         MOVLW 192
                      00264         F@CALL LCD@CRS
025A   3053           00265         MOVLW 'S'
                      00266         F@CALL PRINT
025D   3074           00267         MOVLW 't'
                      00268         F@CALL PRINT
0260   3061           00269         MOVLW 'a'
                      00270         F@CALL PRINT
0263   3072           00271         MOVLW 'r'
                      00272         F@CALL PRINT
0266   3074           00273         MOVLW 't'
                      00274         F@CALL PRINT
0269   3020           00275         MOVLW ' '
                      00276         F@CALL PRINT
026C   3055           00277         MOVLW 'U'
                      00278         F@CALL PRINT
026F   306E           00279         MOVLW 'n'
                      00280         F@CALL PRINT
0272   3069           00281         MOVLW 'i'
                      00282         F@CALL PRINT
0275   3074           00283         MOVLW 't'
                      00284         F@CALL PRINT
  00000278            00285 F1_000113 EQU $ ; in [RFIDSY~1.BAS] Goto StartUnit
                      00286         F@JUMP STARTUNIT
  0000027B            00287 F1_000115 EQU $ ; in [RFIDSY~1.BAS] ENDIF 'HHDetect = 1
027B                  00288 BC@LL7
  0000027B            00289 F2_SOF EQU $ ; GETKEY.INC
027B                  00290 GETKEY
  0000027B            00291 F2_000004 EQU $ ; in [GETKEY.INC] Delayms 50                    ' Debounce
027B   3032           00292         MOVLW 50
                      00293         F@CALL DL@MS
027E                  00294 GETKEYU
  0000027E            00295 F2_000008 EQU $ ; in [GETKEY.INC] PORTB = 0                   ' All output pins low
027E   0186           00296         CLRF PORTB
  0000027F            00297 F2_000009 EQU $ ; in [GETKEY.INC] TRISB = $F0  '1111 binary            ' Bottom 4 pins out, top 4 pins in
027F   30F0           00298         MOVLW 240
0280   1683           00299         BSF STATUS,5
  00000001            00300 RAM_BANK = 1
0281   0086           00301         MOVWF TRISB
  00000282            00302 F2_000010 EQU $ ; in [GETKEY.INC] If (PORTB >> 4) <> $0F Then Getkeyu    ' If any keys down, loop
0282   1283           00303         BCF STATUS,5
  00000000            00304 RAM_BANK = 0
0283   01AA           00305         CLRF PBP#VAR0H
0284   0E06           00306         SWAPF PORTB,W
0285   390F           00307         ANDLW 15
0286   00A9           00308         MOVWF PBP#VAR0
0287   0829           00309         MOVFW PBP#VAR0
0288   3A0F           00310         XORLW 15
0289   042A           00311         IORWF PBP#VAR0H,W
                      00312         SET@PAGE BC@LL9
028C   1903           00313         BTFSC STATUS,2
028D   2A90           00314         GOTO BC@LL9
                      00315         F@JUMP GETKEYU
0290                  00316 BC@LL9
  00000290            00317 F2_000011 EQU $ ; in [GETKEY.INC] Delayms 50                    ' Debounce
0290   3032           00318         MOVLW 50
                      00319         F@CALL DL@MS
0293                  00320 GETKEYP
  00000293            00321 F2_000015 EQU $ ; in [GETKEY.INC] For Col = 0 to 3            ' 4 columns in keypad
0293   01DF           00322         CLRF COL
0294                  00323 FR@LB11
0294   3004           00324         MOVLW 4
0295   025F           00325         SUBWF COL,W
                      00326         SET@PAGE NX@LB12
0298   1803           00327         BTFSC STATUS,0
0299   2AB7           00328         GOTO NX@LB12
  0000029A            00329 F2_000016 EQU $ ; in [GETKEY.INC] PORTB = 0            ' All output pins low
029A   0186           00330         CLRF PORTB
  0000029B            00331 F2_000017 EQU $ ; in [GETKEY.INC] TRISB = (Dcd Col) ^ $FF    ' Set one column pin to output
029B   085F           00332         MOVFW COL
                      00333         F@CALL DC@D
029E   00A9           00334         MOVWF PBP#VAR0
029F   082D           00335         MOVFW PP0H
02A0   00AA           00336         MOVWF PBP#VAR0H
02A1   30FF           00337         MOVLW 255
02A2   0629           00338         XORWF PBP#VAR0,W
02A3   1683           00339         BSF STATUS,5
  00000001            00340 RAM_BANK = 1
02A4   0086           00341         MOVWF TRISB
  000002A5            00342 F2_000018 EQU $ ; in [GETKEY.INC] Row = PORTB >> 4           ' Read row
02A5   1283           00343         BCF STATUS,5
  00000000            00344 RAM_BANK = 0
02A6   0E06           00345         SWAPF PORTB,W
02A7   390F           00346         ANDLW 15
02A8   00E0           00347         MOVWF ROW
  000002A9            00348 F2_000019 EQU $ ; in [GETKEY.INC] If Row <> $0F Then Gotkey         ' If any keydown, exit
02A9   300F           00349         MOVLW 15
02AA   0260           00350         SUBWF ROW,W
                      00351         SET@PAGE BC@LL13
02AD   1903           00352         BTFSC STATUS,2
02AE   2AB2           00353         GOTO BC@LL13
                      00354         F@JUMP GOTKEY
02B2                  00355 BC@LL13
  000002B2            00356 F2_000020 EQU $ ; in [GETKEY.INC] Next
02B2   0ADF           00357         INCF COL,F
                      00358         SET@PAGE FR@LB11
02B5   1D03           00359         BTFSS STATUS,2
02B6   2A94           00360         GOTO FR@LB11
02B7                  00361 NX@LB12
  000002B7            00362 F2_000021 EQU $ ; in [GETKEY.INC] Goto Getkeyp                ' No keys down, go look again
                      00363         F@JUMP GETKEYP
02B9                  00364 GOTKEY
  000002B9            00365 F2_000024 EQU $ ; in [GETKEY.INC] Key = (Col * 4) + (Ncd (Row ^ $0F))    ' Ncd is Priority encoder of a 16-bit value
02B9   085F           00366         MOVFW COL
02BA   00B8           00367         MOVWF PP7
02BB   01B9           00368         CLRF PP7H
02BC   1003           00369         CLRC
02BD   0DB8           00370         RLF PP7,F
02BE   0DB9           00371         RLF PP7H,F
02BF   0DB8           00372         RLF PP7,F
02C0   0DB9           00373         RLF PP7H,F
02C1   300F           00374         MOVLW 15
02C2   0660           00375         XORWF ROW,W
02C3   00AC           00376         MOVWF PP0
02C4   3000           00377         MOVLW 0
02C5   00AD           00378         MOVWF PP0H
                      00379         F@CALL NCD@P
02C8   01AA           00380         CLRF PBP#VAR0H
02C9   00A9           00381         MOVWF PBP#VAR0
02CA   0838           00382         MOVFW PP7
02CB   0729           00383         ADDWF PBP#VAR0,W
02CC   00E1           00384         MOVWF KEY
  000002CD            00385 F2_000025 EQU $ ; in [GETKEY.INC] Select Key
  000002CD            00386 F2_000026 EQU $ ; in [GETKEY.INC] Case 4
02CD   3004           00387         MOVLW 4
02CE   0261           00388         SUBWF KEY,W
                      00389         SET@PAGE BC@LL15
02D1   1D03           00390         BTFSS STATUS,2
02D2   2AD8           00391         GOTO BC@LL15
  000002D3            00392 F2_000027 EQU $ ; in [GETKEY.INC] Key = "U"  'Up
02D3   3055           00393         MOVLW 85
02D4   00E1           00394         MOVWF KEY
                      00395         F@JUMP BC@LL14
02D8                  00396 BC@LL15
  000002D8            00397 F2_000028 EQU $ ; in [GETKEY.INC] Case 5
02D8   3005           00398         MOVLW 5
02D9   0261           00399         SUBWF KEY,W
                      00400         SET@PAGE BC@LL18
02DC   1D03           00401         BTFSS STATUS,2
02DD   2AE3           00402         GOTO BC@LL18
  000002DE            00403 F2_000029 EQU $ ; in [GETKEY.INC] Key = 4
02DE   3004           00404         MOVLW 4
02DF   00E1           00405         MOVWF KEY
                      00406         F@JUMP BC@LL14
02E3                  00407 BC@LL18
  000002E3            00408 F2_000030 EQU $ ; in [GETKEY.INC] Case 6
02E3   3006           00409         MOVLW 6
02E4   0261           00410         SUBWF KEY,W
                      00411         SET@PAGE BC@LL20
02E7   1D03           00412         BTFSS STATUS,2
02E8   2AEE           00413         GOTO BC@LL20
  000002E9            00414 F2_000031 EQU $ ; in [GETKEY.INC] Key = 5
02E9   3005           00415         MOVLW 5
02EA   00E1           00416         MOVWF KEY
                      00417         F@JUMP BC@LL14
02EE                  00418 BC@LL20
  000002EE            00419 F2_000032 EQU $ ; in [GETKEY.INC] Case 7
02EE   3007           00420         MOVLW 7
02EF   0261           00421         SUBWF KEY,W
                      00422         SET@PAGE BC@LL22
02F2   1D03           00423         BTFSS STATUS,2
02F3   2AF9           00424         GOTO BC@LL22
  000002F4            00425 F2_000033 EQU $ ; in [GETKEY.INC] Key = 6
02F4   3006           00426         MOVLW 6
02F5   00E1           00427         MOVWF KEY
                      00428         F@JUMP BC@LL14
02F9                  00429 BC@LL22
  000002F9            00430 F2_000034 EQU $ ; in [GETKEY.INC] Case 8
02F9   3008           00431         MOVLW 8
02FA   0261           00432         SUBWF KEY,W
                      00433         SET@PAGE BC@LL24
02FD   1D03           00434         BTFSS STATUS,2
02FE   2B04           00435         GOTO BC@LL24
  000002FF            00436 F2_000035 EQU $ ; in [GETKEY.INC] Key = "D" 'Down
02FF   3044           00437         MOVLW 68
0300   00E1           00438         MOVWF KEY
                      00439         F@JUMP BC@LL14
0304                  00440 BC@LL24
  00000304            00441 F2_000036 EQU $ ; in [GETKEY.INC] Case 9
0304   3009           00442         MOVLW 9
0305   0261           00443         SUBWF KEY,W
                      00444         SET@PAGE BC@LL26
0308   1D03           00445         BTFSS STATUS,2
0309   2B0F           00446         GOTO BC@LL26
  0000030A            00447 F2_000037 EQU $ ; in [GETKEY.INC] Key = 7
030A   3007           00448         MOVLW 7
030B   00E1           00449         MOVWF KEY
                      00450         F@JUMP BC@LL14
030F                  00451 BC@LL26
  0000030F            00452 F2_000038 EQU $ ; in [GETKEY.INC] Case 10
030F   300A           00453         MOVLW 10
0310   0261           00454         SUBWF KEY,W
                      00455         SET@PAGE BC@LL28
0313   1D03           00456         BTFSS STATUS,2
0314   2B1A           00457         GOTO BC@LL28
  00000315            00458 F2_000039 EQU $ ; in [GETKEY.INC] Key = 8
0315   3008           00459         MOVLW 8
0316   00E1           00460         MOVWF KEY
                      00461         F@JUMP BC@LL14
031A                  00462 BC@LL28
  0000031A            00463 F2_000040 EQU $ ; in [GETKEY.INC] Case 11
031A   300B           00464         MOVLW 11
031B   0261           00465         SUBWF KEY,W
                      00466         SET@PAGE BC@LL30
031E   1D03           00467         BTFSS STATUS,2
031F   2B25           00468         GOTO BC@LL30
  00000320            00469 F2_000041 EQU $ ; in [GETKEY.INC] Key = 9
0320   3009           00470         MOVLW 9
0321   00E1           00471         MOVWF KEY
                      00472         F@JUMP BC@LL14
0325                  00473 BC@LL30
  00000325            00474 F2_000042 EQU $ ; in [GETKEY.INC] Case 12
0325   300C           00475         MOVLW 12
0326   0261           00476         SUBWF KEY,W
                      00477         SET@PAGE BC@LL32
0329   1D03           00478         BTFSS STATUS,2
032A   2B30           00479         GOTO BC@LL32
  0000032B            00480 F2_000043 EQU $ ; in [GETKEY.INC] Key = "N" '2nd
032B   304E           00481         MOVLW 78
032C   00E1           00482         MOVWF KEY
                      00483         F@JUMP BC@LL14
0330                  00484 BC@LL32
  00000330            00485 F2_000044 EQU $ ; in [GETKEY.INC] Case 13
0330   300D           00486         MOVLW 13
0331   0261           00487         SUBWF KEY,W
                      00488         SET@PAGE BC@LL34
0334   1D03           00489         BTFSS STATUS,2
0335   2B3B           00490         GOTO BC@LL34
  00000336            00491 F2_000045 EQU $ ; in [GETKEY.INC] Key = "C" 'Clear
0336   3043           00492         MOVLW 67
0337   00E1           00493         MOVWF KEY
                      00494         F@JUMP BC@LL14
033B                  00495 BC@LL34
  0000033B            00496 F2_000046 EQU $ ; in [GETKEY.INC] Case 14
033B   300E           00497         MOVLW 14
033C   0261           00498         SUBWF KEY,W
                      00499         SET@PAGE BC@LL36
033F   1D03           00500         BTFSS STATUS,2
0340   2B45           00501         GOTO BC@LL36
  00000341            00502 F2_000047 EQU $ ; in [GETKEY.INC] Key = 0
0341   01E1           00503         CLRF KEY
                      00504         F@JUMP BC@LL14
0345                  00505 BC@LL36
  00000345            00506 F2_000048 EQU $ ; in [GETKEY.INC] Case 15
0345   300F           00507         MOVLW 15
0346   0261           00508         SUBWF KEY,W
                      00509         SET@PAGE BC@LL38
0349   1D03           00510         BTFSS STATUS,2
034A   2B50           00511         GOTO BC@LL38
  0000034B            00512 F2_000049 EQU $ ; in [GETKEY.INC] Key = "H" 'Help
034B   3048           00513         MOVLW 72
034C   00E1           00514         MOVWF KEY
                      00515         F@JUMP BC@LL14
0350                  00516 BC@LL38
  00000350            00517 F2_000050 EQU $ ; in [GETKEY.INC] Case 16
0350   3010           00518         MOVLW 16
0351   0261           00519         SUBWF KEY,W
                      00520         SET@PAGE BC@LL40
0354   1D03           00521         BTFSS STATUS,2
0355   2B58           00522         GOTO BC@LL40
  00000356            00523 F2_000051 EQU $ ; in [GETKEY.INC] Key = "E" 'Enter
0356   3045           00524         MOVLW 69
0357   00E1           00525         MOVWF KEY
  00000358            00526 F2_000052 EQU $ ; in [GETKEY.INC] EndSelect
0358                  00527 BC@LL40
0358                  00528 BC@LL14
  00000358            00529 F2_000053 EQU $ ; in [GETKEY.INC] Return
0358   0008           00530         RETURN
  00000359            00531 F2_EOF EQU $ ; GETKEY.INC
  00000359            00532 F3_SOF EQU $ ; ADDNEWUSER.INC
0359                  00533 ADDNEWUSER
  00000359            00534 F3_000004 EQU $ ; in [ADDNEWUSER.INC] CLS
                      00535         F@CALL LCD@CLS
  0000035B            00536 F3_000006 EQU $ ; in [ADDNEWUSER.INC] NUA = EREAD 255  'Get Next user empty spot address
035B   30FF           00537         MOVLW 255
                      00538         F@CALL EE_RD
035E   00DD           00539         MOVWF NUA
  0000035F            00540 F3_000007 EQU $ ; in [ADDNEWUSER.INC] If NUA > 189 then   'Address 197 is then END of the last spot for Users and Tag
035F   30BE           00541         MOVLW 190
0360   025D           00542         SUBWF NUA,W
                      00543         SET@PAGE BC@LL42
0363   1C03           00544         BTFSS STATUS,0
0364   2C1C           00545         GOTO BC@LL42
0365                  00546 ANULOOP2
  00000365            00547 F3_000009 EQU $ ; in [ADDNEWUSER.INC] ANULoop2:  Gosub BadSound
                      00548         F@CALL BADSOUND
  00000368            00549 F3_000010 EQU $ ; in [ADDNEWUSER.INC] CLS
                      00550         F@CALL LCD@CLS
  0000036A            00551 F3_000011 EQU $ ; in [ADDNEWUSER.INC] Print AT 1,1, "Memory is full!"
036A   3080           00552         MOVLW 128
036B   00A1           00553         MOVWF BPFH
036C   3080           00554         MOVLW 128
                      00555         F@CALL LCD@CRS
036F   304D           00556         MOVLW 'M'
                      00557         F@CALL PRINT
0372   3065           00558         MOVLW 'e'
                      00559         F@CALL PRINT
0375   306D           00560         MOVLW 'm'
                      00561         F@CALL PRINT
0378   306F           00562         MOVLW 'o'
                      00563         F@CALL PRINT
037B   3072           00564         MOVLW 'r'
                      00565         F@CALL PRINT
037E   3079           00566         MOVLW 'y'
                      00567         F@CALL PRINT
0381   3020           00568         MOVLW ' '
                      00569         F@CALL PRINT
0384   3069           00570         MOVLW 'i'
                      00571         F@CALL PRINT
0387   3073           00572         MOVLW 's'
                      00573         F@CALL PRINT
038A   3020           00574         MOVLW ' '
                      00575         F@CALL PRINT
038D   3066           00576         MOVLW 'f'
                      00577         F@CALL PRINT
0390   3075           00578         MOVLW 'u'
                      00579         F@CALL PRINT
0393   306C           00580         MOVLW 'l'
                      00581         F@CALL PRINT
                      00582         F@CALL PRINT
0398   3021           00583         MOVLW '!'
                      00584         F@CALL PRINT
  0000039B            00585 F3_000012 EQU $ ; in [ADDNEWUSER.INC] Print At 2,1, "You must delete"
039B   3080           00586         MOVLW 128
039C   00A1           00587         MOVWF BPFH
039D   30C0           00588         MOVLW 192
                      00589         F@CALL LCD@CRS
03A0   3059           00590         MOVLW 'Y'
                      00591         F@CALL PRINT
03A3   306F           00592         MOVLW 'o'
                      00593         F@CALL PRINT
03A6   3075           00594         MOVLW 'u'
                      00595         F@CALL PRINT
03A9   3020           00596         MOVLW ' '
                      00597         F@CALL PRINT
03AC   306D           00598         MOVLW 'm'
                      00599         F@CALL PRINT
03AF   3075           00600         MOVLW 'u'
                      00601         F@CALL PRINT
03B2   3073           00602         MOVLW 's'
                      00603         F@CALL PRINT
03B5   3074           00604         MOVLW 't'
                      00605         F@CALL PRINT
03B8   3020           00606         MOVLW ' '
                      00607         F@CALL PRINT
03BB   3064           00608         MOVLW 'd'
                      00609         F@CALL PRINT
03BE   3065           00610         MOVLW 'e'
                      00611         F@CALL PRINT
03C1   306C           00612         MOVLW 'l'
                      00613         F@CALL PRINT
03C4   3065           00614         MOVLW 'e'
                      00615         F@CALL PRINT
03C7   3074           00616         MOVLW 't'
                      00617         F@CALL PRINT
03CA   3065           00618         MOVLW 'e'
                      00619         F@CALL PRINT
  000003CD            00620 F3_000013 EQU $ ; in [ADDNEWUSER.INC] Print AT 1,17, "a User."
03CD   3080           00621         MOVLW 128
03CE   00A1           00622         MOVWF BPFH
03CF   3090           00623         MOVLW 144
                      00624         F@CALL LCD@CRS
03D2   3061           00625         MOVLW 'a'
                      00626         F@CALL PRINT
03D5   3020           00627         MOVLW ' '
                      00628         F@CALL PRINT
03D8   3055           00629         MOVLW 'U'
                      00630         F@CALL PRINT
03DB   3073           00631         MOVLW 's'
                      00632         F@CALL PRINT
03DE   3065           00633         MOVLW 'e'
                      00634         F@CALL PRINT
03E1   3072           00635         MOVLW 'r'
                      00636         F@CALL PRINT
03E4   302E           00637         MOVLW '.'
                      00638         F@CALL PRINT
  000003E7            00639 F3_000014 EQU $ ; in [ADDNEWUSER.INC] Print AT 2,17, "Press Enter"
03E7   3080           00640         MOVLW 128
03E8   00A1           00641         MOVWF BPFH
03E9   30D0           00642         MOVLW 208
                      00643         F@CALL LCD@CRS
03EC   3050           00644         MOVLW 'P'
                      00645         F@CALL PRINT
03EF   3072           00646         MOVLW 'r'
                      00647         F@CALL PRINT
03F2   3065           00648         MOVLW 'e'
                      00649         F@CALL PRINT
03F5   3073           00650         MOVLW 's'
                      00651         F@CALL PRINT
                      00652         F@CALL PRINT
03FA   3020           00653         MOVLW ' '
                      00654         F@CALL PRINT
03FD   3045           00655         MOVLW 'E'
                      00656         F@CALL PRINT
0400   306E           00657         MOVLW 'n'
                      00658         F@CALL PRINT
0403   3074           00659         MOVLW 't'
                      00660         F@CALL PRINT
0406   3065           00661         MOVLW 'e'
                      00662         F@CALL PRINT
0409   3072           00663         MOVLW 'r'
                      00664         F@CALL PRINT
  0000040C            00665 F3_000015 EQU $ ; in [ADDNEWUSER.INC] Gosub Getkey
                      00666         F@CALL GETKEY
  0000040E            00667 F3_000017 EQU $ ; in [ADDNEWUSER.INC] If Key = "E" then
040E   3045           00668         MOVLW 69
040F   0261           00669         SUBWF KEY,W
                      00670         SET@PAGE BC@LL44
0412   1D03           00671         BTFSS STATUS,2
0413   2C1A           00672         GOTO BC@LL44
  00000414            00673 F3_000018 EQU $ ; in [ADDNEWUSER.INC] Goto MainMenu
                      00674         F@JUMP MAINMENU
                      00675         F@JUMP BC@LL45
041A                  00676 BC@LL44
  0000041A            00677 F3_000019 EQU $ ; in [ADDNEWUSER.INC] Else
  0000041A            00678 F3_000020 EQU $ ; in [ADDNEWUSER.INC] Goto ANUloop2 'Wrong Key
                      00679         F@JUMP ANULOOP2
  0000041C            00680 F3_000021 EQU $ ; in [ADDNEWUSER.INC] ENDIF 'Key = E
041C                  00681 BC@LL45
  0000041C            00682 F3_000022 EQU $ ; in [ADDNEWUSER.INC] ENDIF 'NUA > 189
041C                  00683 BC@LL42
  0000041C            00684 F3_000025 EQU $ ; in [ADDNEWUSER.INC] GoSub GetEmployee#      'Get EmployeeID form KeyPad
                      00685         F@CALL GETEMPLOYEE#
  0000041F            00686 F3_000026 EQU $ ; in [ADDNEWUSER.INC] Gosub CheckUser      'Check that user does not already exist.
                      00687         F@CALL CHECKUSER
  00000422            00688 F3_000027 EQU $ ; in [ADDNEWUSER.INC] GoSub ReadTag 'User will scan Tag
                      00689         F@CALL READTAG
  00000425            00690 F3_000028 EQU $ ; in [ADDNEWUSER.INC] If Flag = 0 then goto MainMenu
                      00691         SET@PAGE BC@LL47
0427   183F           00692         BTFSC _B#VR1,0
0428   2C2C           00693         GOTO BC@LL47
                      00694         F@JUMP MAINMENU
042C                  00695 BC@LL47
  0000042C            00696 F3_000029 EQU $ ; in [ADDNEWUSER.INC] GoSub CheckTag 'Make sure another User is not already using this Tag
                      00697         F@CALL CHECKTAG
  0000042F            00698 F3_000030 EQU $ ; in [ADDNEWUSER.INC] If Flag = 1 then          'Tag does exist
                      00699         SET@PAGE BC@LL49
0431   1C3F           00700         BTFSS _B#VR1,0
0432   2DC7           00701         GOTO BC@LL49
0433                  00702 TAGEXISTS
  00000433            00703 F3_000031 EQU $ ; in [ADDNEWUSER.INC] TagExists:    Currentline = Index2
0433   083B           00704         MOVFW INDEX2
0434   00C0           00705         MOVWF CURRENTLINE
  00000435            00706 F3_000032 EQU $ ; in [ADDNEWUSER.INC] Gosub Get#
                      00707         F@CALL GET#
  00000438            00708 F3_000033 EQU $ ; in [ADDNEWUSER.INC] Gosub Split
                      00709         F@CALL SPLIT
  0000043B            00710 F3_000034 EQU $ ; in [ADDNEWUSER.INC] Gosub BadSound
                      00711         F@CALL BADSOUND
  0000043E            00712 F3_000035 EQU $ ; in [ADDNEWUSER.INC] CLS
                      00713         F@CALL LCD@CLS
  00000440            00714 F3_000036 EQU $ ; in [ADDNEWUSER.INC] Print AT 1,1, "Tag belongs to"
0440   3080           00715         MOVLW 128
0441   00A1           00716         MOVWF BPFH
0442   3080           00717         MOVLW 128
                      00718         F@CALL LCD@CRS
0445   3054           00719         MOVLW 'T'
                      00720         F@CALL PRINT
0448   3061           00721         MOVLW 'a'
                      00722         F@CALL PRINT
044B   3067           00723         MOVLW 'g'
                      00724         F@CALL PRINT
044E   3020           00725         MOVLW ' '
                      00726         F@CALL PRINT
0451   3062           00727         MOVLW 'b'
                      00728         F@CALL PRINT
0454   3065           00729         MOVLW 'e'
                      00730         F@CALL PRINT
0457   306C           00731         MOVLW 'l'
                      00732         F@CALL PRINT
045A   306F           00733         MOVLW 'o'
                      00734         F@CALL PRINT
045D   306E           00735         MOVLW 'n'
                      00736         F@CALL PRINT
0460   3067           00737         MOVLW 'g'
                      00738         F@CALL PRINT
0463   3073           00739         MOVLW 's'
                      00740         F@CALL PRINT
0466   3020           00741         MOVLW ' '
                      00742         F@CALL PRINT
0469   3074           00743         MOVLW 't'
                      00744         F@CALL PRINT
046C   306F           00745         MOVLW 'o'
                      00746         F@CALL PRINT
  0000046F            00747 F3_000037 EQU $ ; in [ADDNEWUSER.INC] Print AT 2,1, "User# ", DEC EmpIN[0], DEC EmpIN[1], DEC EmpIN[2], DEC EmpIN[3], DEC EmpIN[4], DEC EmpIN[5]
046F   3080           00748         MOVLW 128
0470   00A1           00749         MOVWF BPFH
0471   30C0           00750         MOVLW 192
                      00751         F@CALL LCD@CRS
0474   3055           00752         MOVLW 'U'
                      00753         F@CALL PRINT
0477   3073           00754         MOVLW 's'
                      00755         F@CALL PRINT
047A   3065           00756         MOVLW 'e'
                      00757         F@CALL PRINT
047D   3072           00758         MOVLW 'r'
                      00759         F@CALL PRINT
0480   3023           00760         MOVLW '#'
                      00761         F@CALL PRINT
0483   3020           00762         MOVLW ' '
                      00763         F@CALL PRINT
0486   0844           00764         MOVFW EMPIN#0
                      00765         F@CALL OUT@DECB
0489   0845           00766         MOVFW EMPIN#1
                      00767         F@CALL OUT@DECB
048C   0846           00768         MOVFW EMPIN#2
                      00769         F@CALL OUT@DECB
048F   0847           00770         MOVFW EMPIN#3
                      00771         F@CALL OUT@DECB
0492   0848           00772         MOVFW EMPIN#4
                      00773         F@CALL OUT@DECB
0495   0849           00774         MOVFW EMPIN#5
                      00775         F@CALL OUT@DECB
  00000498            00776 F3_000038 EQU $ ; in [ADDNEWUSER.INC] Print AT 1,17, "(1) Delete User"
0498   3080           00777         MOVLW 128
0499   00A1           00778         MOVWF BPFH
049A   3090           00779         MOVLW 144
                      00780         F@CALL LCD@CRS
049D   3028           00781         MOVLW '('
                      00782         F@CALL PRINT
04A0   3031           00783         MOVLW '1'
                      00784         F@CALL PRINT
04A3   3029           00785         MOVLW ')'
                      00786         F@CALL PRINT
04A6   3020           00787         MOVLW ' '
                      00788         F@CALL PRINT
04A9   3044           00789         MOVLW 'D'
                      00790         F@CALL PRINT
04AC   3065           00791         MOVLW 'e'
                      00792         F@CALL PRINT
04AF   306C           00793         MOVLW 'l'
                      00794         F@CALL PRINT
04B2   3065           00795         MOVLW 'e'
                      00796         F@CALL PRINT
04B5   3074           00797         MOVLW 't'
                      00798         F@CALL PRINT
04B8   3065           00799         MOVLW 'e'
                      00800         F@CALL PRINT
04BB   3020           00801         MOVLW ' '
                      00802         F@CALL PRINT
04BE   3055           00803         MOVLW 'U'
                      00804         F@CALL PRINT
04C1   3073           00805         MOVLW 's'
                      00806         F@CALL PRINT
04C4   3065           00807         MOVLW 'e'
                      00808         F@CALL PRINT
04C7   3072           00809         MOVLW 'r'
                      00810         F@CALL PRINT
  000004CA            00811 F3_000039 EQU $ ; in [ADDNEWUSER.INC] Print At 2,17, "(2) Start Over"
04CA   3080           00812         MOVLW 128
04CB   00A1           00813         MOVWF BPFH
04CC   30D0           00814         MOVLW 208
                      00815         F@CALL LCD@CRS
04CF   3028           00816         MOVLW '('
                      00817         F@CALL PRINT
04D2   3032           00818         MOVLW '2'
                      00819         F@CALL PRINT
04D5   3029           00820         MOVLW ')'
                      00821         F@CALL PRINT
04D8   3020           00822         MOVLW ' '
                      00823         F@CALL PRINT
04DB   3053           00824         MOVLW 'S'
                      00825         F@CALL PRINT
04DE   3074           00826         MOVLW 't'
                      00827         F@CALL PRINT
04E1   3061           00828         MOVLW 'a'
                      00829         F@CALL PRINT
04E4   3072           00830         MOVLW 'r'
                      00831         F@CALL PRINT
04E7   3074           00832         MOVLW 't'
                      00833         F@CALL PRINT
04EA   3020           00834         MOVLW ' '
                      00835         F@CALL PRINT
04ED   304F           00836         MOVLW 'O'
                      00837         F@CALL PRINT
04F0   3076           00838         MOVLW 'v'
                      00839         F@CALL PRINT
04F3   3065           00840         MOVLW 'e'
                      00841         F@CALL PRINT
04F6   3072           00842         MOVLW 'r'
                      00843         F@CALL PRINT
  000004F9            00844 F3_000040 EQU $ ; in [ADDNEWUSER.INC] B1 = "C"
04F9   3043           00845         MOVLW 67
04FA   00BD           00846         MOVWF B1
  000004FB            00847 F3_000041 EQU $ ; in [ADDNEWUSER.INC] GOSUB GetKey
                      00848         F@CALL GETKEY
  000004FD            00849 F3_000042 EQU $ ; in [ADDNEWUSER.INC] Select Key
  000004FD            00850 F3_000043 EQU $ ; in [ADDNEWUSER.INC] Case 2 'Choice was not to delete Tag
04FD   3002           00851         MOVLW 2
04FE   0261           00852         SUBWF KEY,W
                      00853         SET@PAGE BC@LL51
0501   1D03           00854         BTFSS STATUS,2
0502   2D09           00855         GOTO BC@LL51
  00000503            00856 F3_000044 EQU $ ; in [ADDNEWUSER.INC] GoTo MainMenu  'Exit adding Tag
                      00857         F@JUMP MAINMENU
                      00858         F@JUMP BC@LL50
0509                  00859 BC@LL51
  00000509            00860 F3_000045 EQU $ ; in [ADDNEWUSER.INC] Case 1 'Yes, delete this Tag and OLD user and use it for this NEW user.
0509   3001           00861         MOVLW 1
050A   0261           00862         SUBWF KEY,W
                      00863         SET@PAGE BC@LL54
050D   1D03           00864         BTFSS STATUS,2
050E   2DA4           00865         GOTO BC@LL54
  0000050F            00866 F3_000046 EQU $ ; in [ADDNEWUSER.INC] CLS
                      00867         F@CALL LCD@CLS
  00000511            00868 F3_000047 EQU $ ; in [ADDNEWUSER.INC] Print AT 1,1, "Tag will be"
0511   3080           00869         MOVLW 128
0512   00A1           00870         MOVWF BPFH
0513   3080           00871         MOVLW 128
                      00872         F@CALL LCD@CRS
0516   3054           00873         MOVLW 'T'
                      00874         F@CALL PRINT
0519   3061           00875         MOVLW 'a'
                      00876         F@CALL PRINT
051C   3067           00877         MOVLW 'g'
                      00878         F@CALL PRINT
051F   3020           00879         MOVLW ' '
                      00880         F@CALL PRINT
0522   3077           00881         MOVLW 'w'
                      00882         F@CALL PRINT
0525   3069           00883         MOVLW 'i'
                      00884         F@CALL PRINT
0528   306C           00885         MOVLW 'l'
                      00886         F@CALL PRINT
                      00887         F@CALL PRINT
052D   3020           00888         MOVLW ' '
                      00889         F@CALL PRINT
0530   3062           00890         MOVLW 'b'
                      00891         F@CALL PRINT
0533   3065           00892         MOVLW 'e'
                      00893         F@CALL PRINT
  00000536            00894 F3_000048 EQU $ ; in [ADDNEWUSER.INC] Print AT 2,1, "assigned to new"
0536   3080           00895         MOVLW 128
0537   00A1           00896         MOVWF BPFH
0538   30C0           00897         MOVLW 192
                      00898         F@CALL LCD@CRS
053B   3061           00899         MOVLW 'a'
                      00900         F@CALL PRINT
053E   3073           00901         MOVLW 's'
                      00902         F@CALL PRINT
                      00903         F@CALL PRINT
0543   3069           00904         MOVLW 'i'
                      00905         F@CALL PRINT
0546   3067           00906         MOVLW 'g'
                      00907         F@CALL PRINT
0549   306E           00908         MOVLW 'n'
                      00909         F@CALL PRINT
054C   3065           00910         MOVLW 'e'
                      00911         F@CALL PRINT
054F   3064           00912         MOVLW 'd'
                      00913         F@CALL PRINT
0552   3020           00914         MOVLW ' '
                      00915         F@CALL PRINT
0555   3074           00916         MOVLW 't'
                      00917         F@CALL PRINT
0558   306F           00918         MOVLW 'o'
                      00919         F@CALL PRINT
055B   3020           00920         MOVLW ' '
                      00921         F@CALL PRINT
055E   306E           00922         MOVLW 'n'
                      00923         F@CALL PRINT
0561   3065           00924         MOVLW 'e'
                      00925         F@CALL PRINT
0564   3077           00926         MOVLW 'w'
                      00927         F@CALL PRINT
  00000567            00928 F3_000049 EQU $ ; in [ADDNEWUSER.INC] Print AT 1,17, "User "
0567   3080           00929         MOVLW 128
0568   00A1           00930         MOVWF BPFH
0569   3090           00931         MOVLW 144
                      00932         F@CALL LCD@CRS
056C   3055           00933         MOVLW 'U'
                      00934         F@CALL PRINT
056F   3073           00935         MOVLW 's'
                      00936         F@CALL PRINT
0572   3065           00937         MOVLW 'e'
                      00938         F@CALL PRINT
0575   3072           00939         MOVLW 'r'
                      00940         F@CALL PRINT
0578   3020           00941         MOVLW ' '
                      00942         F@CALL PRINT
  0000057B            00943 F3_000050 EQU $ ; in [ADDNEWUSER.INC] Print DEC EmpIN[0]
057B   3080           00944         MOVLW 128
057C   00A1           00945         MOVWF BPFH
057D   0844           00946         MOVFW EMPIN#0
                      00947         F@CALL OUT@DECB
  00000580            00948 F3_000051 EQU $ ; in [ADDNEWUSER.INC] Print DEC EmpIN[1]
0580   3080           00949         MOVLW 128
0581   00A1           00950         MOVWF BPFH
0582   0845           00951         MOVFW EMPIN#1
                      00952         F@CALL OUT@DECB
  00000585            00953 F3_000052 EQU $ ; in [ADDNEWUSER.INC] Print DEC EmpIN[2]
0585   3080           00954         MOVLW 128
0586   00A1           00955         MOVWF BPFH
0587   0846           00956         MOVFW EMPIN#2
                      00957         F@CALL OUT@DECB
  0000058A            00958 F3_000053 EQU $ ; in [ADDNEWUSER.INC] Print DEC EmpIN[3]
058A   3080           00959         MOVLW 128
058B   00A1           00960         MOVWF BPFH
058C   0847           00961         MOVFW EMPIN#3
                      00962         F@CALL OUT@DECB
  0000058F            00963 F3_000054 EQU $ ; in [ADDNEWUSER.INC] Print DEC EmpIN[4]
058F   3080           00964         MOVLW 128
0590   00A1           00965         MOVWF BPFH
0591   0848           00966         MOVFW EMPIN#4
                      00967         F@CALL OUT@DECB
  00000594            00968 F3_000055 EQU $ ; in [ADDNEWUSER.INC] Print DEC EmpIN[5]
0594   3080           00969         MOVLW 128
0595   00A1           00970         MOVWF BPFH
0596   0849           00971         MOVFW EMPIN#5
                      00972         F@CALL OUT@DECB
  00000599            00973 F3_000056 EQU $ ; in [ADDNEWUSER.INC] Pause 4000
0599   300F           00974         MOVLW 15
059A   00AF           00975         MOVWF PP1H
059B   30A0           00976         MOVLW 160
                      00977         F@CALL DLY@W
  0000059E            00978 F3_000057 EQU $ ; in [ADDNEWUSER.INC] GoTo DeleteTag
                      00979         F@JUMP DELETETAG
  000005A1            00980 F3_000058 EQU $ ; in [ADDNEWUSER.INC] Case Else 'Key was not 1 or 2"
                      00981         F@JUMP BC@LL56
05A4                  00982 BC@LL54
  000005A4            00983 F3_000059 EQU $ ; in [ADDNEWUSER.INC] Goto TagExists
                      00984         F@JUMP TAGEXISTS
  000005A6            00985 F3_000060 EQU $ ; in [ADDNEWUSER.INC] EndSelect
05A6                  00986 BC@LL56
05A6                  00987 BC@LL50
05A6                  00988 DELETETAG
  000005A6            00989 F3_000062 EQU $ ; in [ADDNEWUSER.INC] DeleteTag:     If Index2  = EndLine - 8  then 'If the Employee# is the last one in the table then
05A6   30F8           00990         MOVLW LOW (-8)
05A7   0742           00991         ADDWF ENDLINE,W
05A8   00A9           00992         MOVWF PBP#VAR0
05A9   30FF           00993         MOVLW LOW ((-8) >> 8)
05AA   1803           00994         SKPNC
05AB   3E01           00995         ADDLW 1
05AC   00AA           00996         MOVWF PBP#VAR0H
05AD   082A           00997         MOVFW PBP#VAR0H
                      00998         SET@PAGE BC@LL58
05B0   1D03           00999         BTFSS STATUS,2
05B1   2DC4           01000         GOTO BC@LL58
05B2   0829           01001         MOVFW PBP#VAR0
05B3   023B           01002         SUBWF INDEX2,W
                      01003         SET@PAGE BC@LL58
05B6   1D03           01004         BTFSS STATUS,2
05B7   2DC4           01005         GOTO BC@LL58
  000005B8            01006 F3_000063 EQU $ ; in [ADDNEWUSER.INC] NUA = NUA - 8   'remove last entry
05B8   3008           01007         MOVLW 8
05B9   02DD           01008         SUBWF NUA,F
  000005BA            01009 F3_000064 EQU $ ; in [ADDNEWUSER.INC] EWRITE 255, [NUA]
05BA   1703           01010         BSF STATUS,6
  00000002            01011 RAM_BANK = 2
05BB   30FF           01012         MOVLW 255
05BC   008D           01013         MOVWF EEADR
05BD   1303           01014         BCF STATUS,6
  00000000            01015 RAM_BANK = 0
05BE   085D           01016         MOVFW NUA
                      01017         F@CALL EE_WR
                      01018         F@JUMP BC@LL59
05C4                  01019 BC@LL58
  000005C4            01020 F3_000065 EQU $ ; in [ADDNEWUSER.INC] Else
  000005C4            01021 F3_000066 EQU $ ; in [ADDNEWUSER.INC] GoSub MoveSpot 'Located in 'Check User' module
                      01022         F@CALL MOVESPOT
  000005C7            01023 F3_000067 EQU $ ; in [ADDNEWUSER.INC] ENDIF 'Index2 = EndLine - 8
05C7                  01024 BC@LL59
  000005C7            01025 F3_000069 EQU $ ; in [ADDNEWUSER.INC] ENDIF 'Flag = 1 (for Tag)
05C7                  01026 BC@LL49
  000005C7            01027 F3_000070 EQU $ ; in [ADDNEWUSER.INC] GoSub WriteTag 'Write Tag into memory
                      01028         F@CALL WRITETAG
  000005CA            01029 F3_000071 EQU $ ; in [ADDNEWUSER.INC] Gosub GoodSound
                      01030         F@CALL GOODSOUND
  000005CD            01031 F3_000072 EQU $ ; in [ADDNEWUSER.INC] CLS
                      01032         F@CALL LCD@CLS
  000005CF            01033 F3_000073 EQU $ ; in [ADDNEWUSER.INC] Print AT 1,1, "Tag & User#"
05CF   3080           01034         MOVLW 128
05D0   00A1           01035         MOVWF BPFH
05D1   3080           01036         MOVLW 128
                      01037         F@CALL LCD@CRS
05D4   3054           01038         MOVLW 'T'
                      01039         F@CALL PRINT
05D7   3061           01040         MOVLW 'a'
                      01041         F@CALL PRINT
05DA   3067           01042         MOVLW 'g'
                      01043         F@CALL PRINT
05DD   3020           01044         MOVLW ' '
                      01045         F@CALL PRINT
05E0   3026           01046         MOVLW '&'
                      01047         F@CALL PRINT
05E3   3020           01048         MOVLW ' '
                      01049         F@CALL PRINT
05E6   3055           01050         MOVLW 'U'
                      01051         F@CALL PRINT
05E9   3073           01052         MOVLW 's'
                      01053         F@CALL PRINT
05EC   3065           01054         MOVLW 'e'
                      01055         F@CALL PRINT
05EF   3072           01056         MOVLW 'r'
                      01057         F@CALL PRINT
05F2   3023           01058         MOVLW '#'
                      01059         F@CALL PRINT
  000005F5            01060 F3_000074 EQU $ ; in [ADDNEWUSER.INC] Print AT 2,1, "Inserted"
05F5   3080           01061         MOVLW 128
05F6   00A1           01062         MOVWF BPFH
05F7   30C0           01063         MOVLW 192
                      01064         F@CALL LCD@CRS
05FA   3049           01065         MOVLW 'I'
                      01066         F@CALL PRINT
05FD   306E           01067         MOVLW 'n'
                      01068         F@CALL PRINT
0600   3073           01069         MOVLW 's'
                      01070         F@CALL PRINT
0603   3065           01071         MOVLW 'e'
                      01072         F@CALL PRINT
0606   3072           01073         MOVLW 'r'
                      01074         F@CALL PRINT
0609   3074           01075         MOVLW 't'
                      01076         F@CALL PRINT
060C   3065           01077         MOVLW 'e'
                      01078         F@CALL PRINT
060F   3064           01079         MOVLW 'd'
                      01080         F@CALL PRINT
  00000612            01081 F3_000075 EQU $ ; in [ADDNEWUSER.INC] Pause 4000
0612   300F           01082         MOVLW 15
0613   00AF           01083         MOVWF PP1H
0614   30A0           01084         MOVLW 160
                      01085         F@CALL DLY@W
  00000617            01086 F3_000076 EQU $ ; in [ADDNEWUSER.INC] Goto MainMenu
                      01087         F@JUMP MAINMENU
  0000061A            01088 F3_EOF EQU $ ; ADDNEWUSER.INC
  0000061A            01089 F4_SOF EQU $ ; GETUSER#.INC
061A                  01090 GETEMPLOYEE#
  0000061A            01091 F4_000003 EQU $ ; in [GETUSER#.INC] GetEmployee#:  CLS
                      01092         F@CALL LCD@CLS
  0000061C            01093 F4_000004 EQU $ ; in [GETUSER#.INC] Print AT 2,1, "Enter User #"
061C   3080           01094         MOVLW 128
061D   00A1           01095         MOVWF BPFH
061E   30C0           01096         MOVLW 192
                      01097         F@CALL LCD@CRS
0621   3045           01098         MOVLW 'E'
                      01099         F@CALL PRINT
0624   306E           01100         MOVLW 'n'
                      01101         F@CALL PRINT
0627   3074           01102         MOVLW 't'
                      01103         F@CALL PRINT
062A   3065           01104         MOVLW 'e'
                      01105         F@CALL PRINT
062D   3072           01106         MOVLW 'r'
                      01107         F@CALL PRINT
0630   3020           01108         MOVLW ' '
                      01109         F@CALL PRINT
0633   3055           01110         MOVLW 'U'
                      01111         F@CALL PRINT
0636   3073           01112         MOVLW 's'
                      01113         F@CALL PRINT
0639   3065           01114         MOVLW 'e'
                      01115         F@CALL PRINT
063C   3072           01116         MOVLW 'r'
                      01117         F@CALL PRINT
063F   3020           01118         MOVLW ' '
                      01119         F@CALL PRINT
0642   3023           01120         MOVLW '#'
                      01121         F@CALL PRINT
  00000645            01122 F4_000005 EQU $ ; in [GETUSER#.INC] Print AT 1,17, "(6 Digits)"
0645   3080           01123         MOVLW 128
0646   00A1           01124         MOVWF BPFH
0647   3090           01125         MOVLW 144
                      01126         F@CALL LCD@CRS
064A   3028           01127         MOVLW '('
                      01128         F@CALL PRINT
064D   3036           01129         MOVLW '6'
                      01130         F@CALL PRINT
0650   3020           01131         MOVLW ' '
                      01132         F@CALL PRINT
0653   3044           01133         MOVLW 'D'
                      01134         F@CALL PRINT
0656   3069           01135         MOVLW 'i'
                      01136         F@CALL PRINT
0659   3067           01137         MOVLW 'g'
                      01138         F@CALL PRINT
065C   3069           01139         MOVLW 'i'
                      01140         F@CALL PRINT
065F   3074           01141         MOVLW 't'
                      01142         F@CALL PRINT
0662   3073           01143         MOVLW 's'
                      01144         F@CALL PRINT
0665   3029           01145         MOVLW ')'
                      01146         F@CALL PRINT
  00000668            01147 F4_000006 EQU $ ; in [GETUSER#.INC] Print AT 2,17, "CLEAR to Exit"
0668   3080           01148         MOVLW 128
0669   00A1           01149         MOVWF BPFH
066A   30D0           01150         MOVLW 208
                      01151         F@CALL LCD@CRS
066D   3043           01152         MOVLW 'C'
                      01153         F@CALL PRINT
0670   304C           01154         MOVLW 'L'
                      01155         F@CALL PRINT
0673   3045           01156         MOVLW 'E'
                      01157         F@CALL PRINT
0676   3041           01158         MOVLW 'A'
                      01159         F@CALL PRINT
0679   3052           01160         MOVLW 'R'
                      01161         F@CALL PRINT
067C   3020           01162         MOVLW ' '
                      01163         F@CALL PRINT
067F   3074           01164         MOVLW 't'
                      01165         F@CALL PRINT
0682   306F           01166         MOVLW 'o'
                      01167         F@CALL PRINT
0685   3020           01168         MOVLW ' '
                      01169         F@CALL PRINT
0688   3045           01170         MOVLW 'E'
                      01171         F@CALL PRINT
068B   3078           01172         MOVLW 'x'
                      01173         F@CALL PRINT
068E   3069           01174         MOVLW 'i'
                      01175         F@CALL PRINT
0691   3074           01176         MOVLW 't'
                      01177         F@CALL PRINT
  00000694            01178 F4_000007 EQU $ ; in [GETUSER#.INC] Print $FE, 2  'Jump to first line for input
0694   30FE           01179         MOVLW 254
                      01180         F@CALL PRINT
0697   3002           01181         MOVLW 2
                      01182         F@CALL PRINT
  0000069A            01183 F4_000008 EQU $ ; in [GETUSER#.INC] For Index = 0 to 5   'Set up array for Employee # digits
069A   01BA           01184         CLRF INDEX
069B                  01185 FR@LB61
069B   3006           01186         MOVLW 6
069C   023A           01187         SUBWF INDEX,W
                      01188         SET@PAGE NX@LB62
069F   1803           01189         BTFSC STATUS,0
06A0   2EC9           01190         GOTO NX@LB62
06A1                  01191 GETEMPLOOP1
  000006A1            01192 F4_000009 EQU $ ; in [GETUSER#.INC] GetEmpLoop1:  Gosub GetKey     'Get User keypress
                      01193         F@CALL GETKEY
  000006A3            01194 F4_000010 EQU $ ; in [GETUSER#.INC] SELECT Key    'Check to see if it is 0-9
  000006A3            01195 F4_000011 EQU $ ; in [GETUSER#.INC] CASE 0 TO 9
06A3   300A           01196         MOVLW 10
06A4   0261           01197         SUBWF KEY,W
                      01198         SET@PAGE BC@LL63
06A7   1803           01199         BTFSC STATUS,0
06A8   2EB6           01200         GOTO BC@LL63
  000006A9            01201 F4_000012 EQU $ ; in [GETUSER#.INC] EmpIN[Index] = Key  'Place digit into EmpIn array
06A9   083A           01202         MOVFW INDEX
06AA   3E44           01203         ADDLW EMPIN
06AB   0084           01204         MOVWF FSR
06AC   0861           01205         MOVFW KEY
06AD   0080           01206         MOVWF INDF
  000006AE            01207 F4_000013 EQU $ ; in [GETUSER#.INC] Print DEC Key   'Echo Key to LCD
06AE   3080           01208         MOVLW 128
06AF   00A1           01209         MOVWF BPFH
06B0   0861           01210         MOVFW KEY
                      01211         F@CALL OUT@DECB
                      01212         F@JUMP BC@LL62
06B6                  01213 BC@LL63
  000006B6            01214 F4_000014 EQU $ ; in [GETUSER#.INC] Case "C"
06B6   3043           01215         MOVLW 67
06B7   0261           01216         SUBWF KEY,W
                      01217         SET@PAGE BC@LL66
06BA   1D03           01218         BTFSS STATUS,2
06BB   2EC2           01219         GOTO BC@LL66
  000006BC            01220 F4_000015 EQU $ ; in [GETUSER#.INC] Goto MainMenu
                      01221         F@JUMP MAINMENU
  000006BF            01222 F4_000016 EQU $ ; in [GETUSER#.INC] CASE ELSE
                      01223         F@JUMP BC@LL68
06C2                  01224 BC@LL66
  000006C2            01225 F4_000017 EQU $ ; in [GETUSER#.INC] Goto GetEmpLoop1   'Key is not digit (0-9)
                      01226         F@JUMP GETEMPLOOP1
  000006C4            01227 F4_000018 EQU $ ; in [GETUSER#.INC] ENDSELECT
06C4                  01228 BC@LL68
06C4                  01229 BC@LL62
  000006C4            01230 F4_000019 EQU $ ; in [GETUSER#.INC] Next 'Index    Next Digit
06C4   0ABA           01231         INCF INDEX,F
                      01232         SET@PAGE FR@LB61
06C7   1D03           01233         BTFSS STATUS,2
06C8   2E9B           01234         GOTO FR@LB61
06C9                  01235 NX@LB62
  000006C9            01236 F4_000021 EQU $ ; in [GETUSER#.INC] Gosub GoodSound
                      01237         F@CALL GOODSOUND
  000006CC            01238 F4_000022 EQU $ ; in [GETUSER#.INC] CLS
                      01239         F@CALL LCD@CLS
  000006CE            01240 F4_000024 EQU $ ; in [GETUSER#.INC] Print $FE, 2
06CE   30FE           01241         MOVLW 254
                      01242         F@CALL PRINT
06D1   3002           01243         MOVLW 2
                      01244         F@CALL PRINT
  000006D4            01245 F4_000025 EQU $ ; in [GETUSER#.INC] Print DEC EmpIN[0]
06D4   3080           01246         MOVLW 128
06D5   00A1           01247         MOVWF BPFH
06D6   0844           01248         MOVFW EMPIN#0
                      01249         F@CALL OUT@DECB
  000006D9            01250 F4_000026 EQU $ ; in [GETUSER#.INC] Print DEC EmpIN[1]
06D9   3080           01251         MOVLW 128
06DA   00A1           01252         MOVWF BPFH
06DB   0845           01253         MOVFW EMPIN#1
                      01254         F@CALL OUT@DECB
  000006DE            01255 F4_000027 EQU $ ; in [GETUSER#.INC] Print DEC EmpIN[2]
06DE   3080           01256         MOVLW 128
06DF   00A1           01257         MOVWF BPFH
06E0   0846           01258         MOVFW EMPIN#2
                      01259         F@CALL OUT@DECB
  000006E3            01260 F4_000028 EQU $ ; in [GETUSER#.INC] Print DEC EmpIN[3]
06E3   3080           01261         MOVLW 128
06E4   00A1           01262         MOVWF BPFH
06E5   0847           01263         MOVFW EMPIN#3
                      01264         F@CALL OUT@DECB
  000006E8            01265 F4_000029 EQU $ ; in [GETUSER#.INC] Print DEC EmpIN[4]
06E8   3080           01266         MOVLW 128
06E9   00A1           01267         MOVWF BPFH
06EA   0848           01268         MOVFW EMPIN#4
                      01269         F@CALL OUT@DECB
  000006ED            01270 F4_000030 EQU $ ; in [GETUSER#.INC] Print DEC EmpIN[5]
06ED   3080           01271         MOVLW 128
06EE   00A1           01272         MOVWF BPFH
06EF   0849           01273         MOVFW EMPIN#5
                      01274         F@CALL OUT@DECB
  000006F2            01275 F4_000031 EQU $ ; in [GETUSER#.INC] Print AT 2,1, "Is this correct?"
06F2   3080           01276         MOVLW 128
06F3   00A1           01277         MOVWF BPFH
06F4   30C0           01278         MOVLW 192
                      01279         F@CALL LCD@CRS
06F7   3049           01280         MOVLW 'I'
                      01281         F@CALL PRINT
06FA   3073           01282         MOVLW 's'
                      01283         F@CALL PRINT
06FD   3020           01284         MOVLW ' '
                      01285         F@CALL PRINT
0700   3074           01286         MOVLW 't'
                      01287         F@CALL PRINT
0703   3068           01288         MOVLW 'h'
                      01289         F@CALL PRINT
0706   3069           01290         MOVLW 'i'
                      01291         F@CALL PRINT
0709   3073           01292         MOVLW 's'
                      01293         F@CALL PRINT
070C   3020           01294         MOVLW ' '
                      01295         F@CALL PRINT
070F   3063           01296         MOVLW 'c'
                      01297         F@CALL PRINT
0712   306F           01298         MOVLW 'o'
                      01299         F@CALL PRINT
0715   3072           01300         MOVLW 'r'
                      01301         F@CALL PRINT
                      01302         F@CALL PRINT
071A   3065           01303         MOVLW 'e'
                      01304         F@CALL PRINT
071D   3063           01305         MOVLW 'c'
                      01306         F@CALL PRINT
0720   3074           01307         MOVLW 't'
                      01308         F@CALL PRINT
0723   303F           01309         MOVLW '?'
                      01310         F@CALL PRINT
  00000726            01311 F4_000032 EQU $ ; in [GETUSER#.INC] Print AT 1,17, "ENTER = Correct"
0726   3080           01312         MOVLW 128
0727   00A1           01313         MOVWF BPFH
0728   3090           01314         MOVLW 144
                      01315         F@CALL LCD@CRS
072B   3045           01316         MOVLW 'E'
                      01317         F@CALL PRINT
072E   304E           01318         MOVLW 'N'
                      01319         F@CALL PRINT
0731   3054           01320         MOVLW 'T'
                      01321         F@CALL PRINT
0734   3045           01322         MOVLW 'E'
                      01323         F@CALL PRINT
0737   3052           01324         MOVLW 'R'
                      01325         F@CALL PRINT
073A   3020           01326         MOVLW ' '
                      01327         F@CALL PRINT
073D   303D           01328         MOVLW '='
                      01329         F@CALL PRINT
0740   3020           01330         MOVLW ' '
                      01331         F@CALL PRINT
0743   3043           01332         MOVLW 'C'
                      01333         F@CALL PRINT
0746   306F           01334         MOVLW 'o'
                      01335         F@CALL PRINT
0749   3072           01336         MOVLW 'r'
                      01337         F@CALL PRINT
                      01338         F@CALL PRINT
074E   3065           01339         MOVLW 'e'
                      01340         F@CALL PRINT
0751   3063           01341         MOVLW 'c'
                      01342         F@CALL PRINT
0754   3074           01343         MOVLW 't'
                      01344         F@CALL PRINT
  00000757            01345 F4_000033 EQU $ ; in [GETUSER#.INC] Print AT 2,17, "CLEAR = Redo"
0757   3080           01346         MOVLW 128
0758   00A1           01347         MOVWF BPFH
0759   30D0           01348         MOVLW 208
                      01349         F@CALL LCD@CRS
075C   3043           01350         MOVLW 'C'
                      01351         F@CALL PRINT
075F   304C           01352         MOVLW 'L'
                      01353         F@CALL PRINT
0762   3045           01354         MOVLW 'E'
                      01355         F@CALL PRINT
0765   3041           01356         MOVLW 'A'
                      01357         F@CALL PRINT
0768   3052           01358         MOVLW 'R'
                      01359         F@CALL PRINT
076B   3020           01360         MOVLW ' '
                      01361         F@CALL PRINT
076E   303D           01362         MOVLW '='
                      01363         F@CALL PRINT
0771   3020           01364         MOVLW ' '
                      01365         F@CALL PRINT
0774   3052           01366         MOVLW 'R'
                      01367         F@CALL PRINT
0777   3065           01368         MOVLW 'e'
                      01369         F@CALL PRINT
077A   3064           01370         MOVLW 'd'
                      01371         F@CALL PRINT
077D   306F           01372         MOVLW 'o'
                      01373         F@CALL PRINT
0780                  01374 GETEMPLOOP2
  00000780            01375 F4_000035 EQU $ ; in [GETUSER#.INC] GetEmpLoop2: Gosub GetKey
                      01376         F@CALL GETKEY
  00000782            01377 F4_000036 EQU $ ; in [GETUSER#.INC] Select Key
  00000782            01378 F4_000037 EQU $ ; in [GETUSER#.INC] Case "C"
0782   3043           01379         MOVLW 67
0783   0261           01380         SUBWF KEY,W
                      01381         SET@PAGE BC@LL70
0786   1D03           01382         BTFSS STATUS,2
0787   2F8D           01383         GOTO BC@LL70
  00000788            01384 F4_000038 EQU $ ; in [GETUSER#.INC] GoTo GetEmployee# 'Redo Employee #
                      01385         F@JUMP GETEMPLOYEE#
                      01386         F@JUMP BC@LL69
078D                  01387 BC@LL70
  0000078D            01388 F4_000039 EQU $ ; in [GETUSER#.INC] Case "E"  'Employee number was correct
078D   3045           01389         MOVLW 69
078E   0261           01390         SUBWF KEY,W
                      01391         SET@PAGE BC@LL73
0791   1D03           01392         BTFSS STATUS,2
0792   2FCD           01393         GOTO BC@LL73
  00000793            01394 F4_000044 EQU $ ; in [GETUSER#.INC] B2 = EmpIN[0]
0793   0844           01395         MOVFW EMPIN#0
0794   00BE           01396         MOVWF B2
  00000795            01397 F4_000045 EQU $ ; in [GETUSER#.INC] B1 = EmpIN[1] 'B1 now contains Employee Digit(1)in lower bits of B1
0795   0845           01398         MOVFW EMPIN#1
0796   00BD           01399         MOVWF B1
  00000797            01400 F4_000046 EQU $ ; in [GETUSER#.INC] B1.4 = B2.0   ' Here we are adding employee digit(0)
                      01401 ; Bit_Bit B2,0,B1,4
0797   163D           01402         BSF B1,4
0798   1C3E           01403         BTFSS B2,0
0799   123D           01404         BCF B1,4
  0000079A            01405 F4_000047 EQU $ ; in [GETUSER#.INC] B1.5 = B2.1   ' to the upper bits
                      01406 ; Bit_Bit B2,1,B1,5
079A   16BD           01407         BSF B1,5
079B   1CBE           01408         BTFSS B2,1
079C   12BD           01409         BCF B1,5
  0000079D            01410 F4_000048 EQU $ ; in [GETUSER#.INC] B1.6 = B2.2   ' of B1
                      01411 ; Bit_Bit B2,2,B1,6
079D   173D           01412         BSF B1,6
079E   1D3E           01413         BTFSS B2,2
079F   133D           01414         BCF B1,6
  000007A0            01415 F4_000049 EQU $ ; in [GETUSER#.INC] B1.7 = B2.3
                      01416 ; Bit_Bit B2,3,B1,7
07A0   17BD           01417         BSF B1,7
07A1   1DBE           01418         BTFSS B2,3
07A2   13BD           01419         BCF B1,7
  000007A3            01420 F4_000050 EQU $ ; in [GETUSER#.INC] CE[0] = B1
07A3   083D           01421         MOVFW B1
07A4   00CA           01422         MOVWF CE#0
  000007A5            01423 F4_000052 EQU $ ; in [GETUSER#.INC] B2 = EmpIN[2] 'Same as above except for Digit(2) and Digit(3)
07A5   0846           01424         MOVFW EMPIN#2
07A6   00BE           01425         MOVWF B2
  000007A7            01426 F4_000053 EQU $ ; in [GETUSER#.INC] B1 = EmpIN[3]
07A7   0847           01427         MOVFW EMPIN#3
07A8   00BD           01428         MOVWF B1
  000007A9            01429 F4_000054 EQU $ ; in [GETUSER#.INC] B1.4 = B2.0
                      01430 ; Bit_Bit B2,0,B1,4
07A9   163D           01431         BSF B1,4
07AA   1C3E           01432         BTFSS B2,0
07AB   123D           01433         BCF B1,4
  000007AC            01434 F4_000055 EQU $ ; in [GETUSER#.INC] B1.5 = B2.1
                      01435 ; Bit_Bit B2,1,B1,5
07AC   16BD           01436         BSF B1,5
07AD   1CBE           01437         BTFSS B2,1
07AE   12BD           01438         BCF B1,5
  000007AF            01439 F4_000056 EQU $ ; in [GETUSER#.INC] B1.6 = B2.2
                      01440 ; Bit_Bit B2,2,B1,6
07AF   173D           01441         BSF B1,6
07B0   1D3E           01442         BTFSS B2,2
07B1   133D           01443         BCF B1,6
  000007B2            01444 F4_000057 EQU $ ; in [GETUSER#.INC] B1.7 = B2.3
                      01445 ; Bit_Bit B2,3,B1,7
07B2   17BD           01446         BSF B1,7
07B3   1DBE           01447         BTFSS B2,3
07B4   13BD           01448         BCF B1,7
  000007B5            01449 F4_000058 EQU $ ; in [GETUSER#.INC] CE[1] = B1
07B5   083D           01450         MOVFW B1
07B6   00CB           01451         MOVWF CE#1
  000007B7            01452 F4_000060 EQU $ ; in [GETUSER#.INC] B2 = EmpIN[4] 'Same as above except for Digit(4) and Digit(5)
07B7   0848           01453         MOVFW EMPIN#4
07B8   00BE           01454         MOVWF B2
  000007B9            01455 F4_000061 EQU $ ; in [GETUSER#.INC] B1 = EmpIN[5]
07B9   0849           01456         MOVFW EMPIN#5
07BA   00BD           01457         MOVWF B1
  000007BB            01458 F4_000062 EQU $ ; in [GETUSER#.INC] B1.4 = B2.0
                      01459 ; Bit_Bit B2,0,B1,4
07BB   163D           01460         BSF B1,4
07BC   1C3E           01461         BTFSS B2,0
07BD   123D           01462         BCF B1,4
  000007BE            01463 F4_000063 EQU $ ; in [GETUSER#.INC] B1.5 = B2.1
                      01464 ; Bit_Bit B2,1,B1,5
07BE   16BD           01465         BSF B1,5
07BF   1CBE           01466         BTFSS B2,1
07C0   12BD           01467         BCF B1,5
  000007C1            01468 F4_000064 EQU $ ; in [GETUSER#.INC] B1.6 = B2.2
                      01469 ; Bit_Bit B2,2,B1,6
07C1   173D           01470         BSF B1,6
07C2   1D3E           01471         BTFSS B2,2
07C3   133D           01472         BCF B1,6
  000007C4            01473 F4_000065 EQU $ ; in [GETUSER#.INC] B1.7 = B2.3
                      01474 ; Bit_Bit B2,3,B1,7
07C4   17BD           01475         BSF B1,7
07C5   1DBE           01476         BTFSS B2,3
07C6   13BD           01477         BCF B1,7
  000007C7            01478 F4_000066 EQU $ ; in [GETUSER#.INC] CE[2] = B1
07C7   083D           01479         MOVFW B1
07C8   00CC           01480         MOVWF CE#2
  000007C9            01481 F4_000069 EQU $ ; in [GETUSER#.INC] Return    'Employee# is OK.. Return
07C9   0008           01482         RETURN
  000007CA            01483 F4_000070 EQU $ ; in [GETUSER#.INC] Case Else
                      01484         F@JUMP BC@LL75
07CD                  01485 BC@LL73
  000007CD            01486 F4_000071 EQU $ ; in [GETUSER#.INC] Goto GetEmpLoop2
                      01487         F@JUMP GETEMPLOOP2
  000007CF            01488 F4_000072 EQU $ ; in [GETUSER#.INC] EndSelect
07CF                  01489 BC@LL75
07CF                  01490 BC@LL69
  000007CF            01491 F4_EOF EQU $ ; GETUSER#.INC
  000007CF            01492 F5_SOF EQU $ ; SCROLL.INC
07CF                  01493 SCROLLUSERS
  000007CF            01494 F5_000007 EQU $ ; in [SCROLL.INC] CurrentLine = 0   'Setup to print on first line of LCD
07CF   01C0           01495         CLRF CURRENTLINE
  000007D0            01496 F5_000008 EQU $ ; in [SCROLL.INC] EndLine = NUA    'Set Endline to first empty spot
07D0   085D           01497         MOVFW NUA
07D1   00C2           01498         MOVWF ENDLINE
07D2                  01499 STARTSCROLLAGAIN
  000007D2            01500 F5_000012 EQU $ ; in [SCROLL.INC] CLS
                      01501         F@CALL LCD@CLS
  000007D4            01502 F5_000013 EQU $ ; in [SCROLL.INC] Print AT 1,1, "Use Arrow Keys"
07D4   3080           01503         MOVLW 128
07D5   00A1           01504         MOVWF BPFH
07D6   3080           01505         MOVLW 128
                      01506         F@CALL LCD@CRS
07D9   3055           01507         MOVLW 'U'
                      01508         F@CALL PRINT
07DC   3073           01509         MOVLW 's'
                      01510         F@CALL PRINT
07DF   3065           01511         MOVLW 'e'
                      01512         F@CALL PRINT
07E2   3020           01513         MOVLW ' '
                      01514         F@CALL PRINT
07E5   3041           01515         MOVLW 'A'
                      01516         F@CALL PRINT
07E8   3072           01517         MOVLW 'r'
                      01518         F@CALL PRINT
                      01519         F@CALL PRINT
07ED   306F           01520         MOVLW 'o'
                      01521         F@CALL PRINT
07F0   3077           01522         MOVLW 'w'
                      01523         F@CALL PRINT
07F3   3020           01524         MOVLW ' '
                      01525         F@CALL PRINT
07F6   304B           01526         MOVLW 'K'
                      01527         F@CALL PRINT
07F9   3065           01528         MOVLW 'e'
                      01529         F@CALL PRINT
07FC   3079           01530         MOVLW 'y'
                      01531         F@CALL PRINT
07FF   3073           01532         MOVLW 's'
                      01533         F@CALL PRINT
  00000802            01534 F5_000014 EQU $ ; in [SCROLL.INC] Print AT 2,1, "to Scroll."
0802   3080           01535         MOVLW 128
0803   00A1           01536         MOVWF BPFH
0804   30C0           01537         MOVLW 192
                      01538         F@CALL LCD@CRS
0807   3074           01539         MOVLW 't'
                      01540         F@CALL PRINT
080A   306F           01541         MOVLW 'o'
                      01542         F@CALL PRINT
080D   3020           01543         MOVLW ' '
                      01544         F@CALL PRINT
0810   3053           01545         MOVLW 'S'
                      01546         F@CALL PRINT
0813   3063           01547         MOVLW 'c'
                      01548         F@CALL PRINT
0816   3072           01549         MOVLW 'r'
                      01550         F@CALL PRINT
0819   306F           01551         MOVLW 'o'
                      01552         F@CALL PRINT
081C   306C           01553         MOVLW 'l'
                      01554         F@CALL PRINT
                      01555         F@CALL PRINT
0821   302E           01556         MOVLW '.'
                      01557         F@CALL PRINT
  00000824            01558 F5_000015 EQU $ ; in [SCROLL.INC] Print AT 1,17, "'Clear' to Exit"
0824   3080           01559         MOVLW 128
0825   00A1           01560         MOVWF BPFH
0826   3090           01561         MOVLW 144
                      01562         F@CALL LCD@CRS
0829   3027           01563         MOVLW '\''
                      01564         F@CALL PRINT
082C   3043           01565         MOVLW 'C'
                      01566         F@CALL PRINT
082F   306C           01567         MOVLW 'l'
                      01568         F@CALL PRINT
0832   3065           01569         MOVLW 'e'
                      01570         F@CALL PRINT
0835   3061           01571         MOVLW 'a'
                      01572         F@CALL PRINT
0838   3072           01573         MOVLW 'r'
                      01574         F@CALL PRINT
083B   3027           01575         MOVLW '\''
                      01576         F@CALL PRINT
083E   3020           01577         MOVLW ' '
                      01578         F@CALL PRINT
0841   3074           01579         MOVLW 't'
                      01580         F@CALL PRINT
0844   306F           01581         MOVLW 'o'
                      01582         F@CALL PRINT
0847   3020           01583         MOVLW ' '
                      01584         F@CALL PRINT
084A   3045           01585         MOVLW 'E'
                      01586         F@CALL PRINT
084D   3078           01587         MOVLW 'x'
                      01588         F@CALL PRINT
0850   3069           01589         MOVLW 'i'
                      01590         F@CALL PRINT
0853   3074           01591         MOVLW 't'
                      01592         F@CALL PRINT
  00000856            01593 F5_000016 EQU $ ; in [SCROLL.INC] Pause 4000
0856   300F           01594         MOVLW 15
0857   00AF           01595         MOVWF PP1H
0858   30A0           01596         MOVLW 160
                      01597         F@CALL DLY@W
  0000085B            01598 F5_000017 EQU $ ; in [SCROLL.INC] StartLine = 5       'Set first user here if new scroll request
085B   3005           01599         MOVLW 5
085C   00C1           01600         MOVWF STARTLINE
085D                  01601 SCROLL
  0000085D            01602 F5_000019 EQU $ ; in [SCROLL.INC] Scroll:  CurrentLine = StartLine   'Set Currentline to scroll demand
085D   0841           01603         MOVFW STARTLINE
085E   00C0           01604         MOVWF CURRENTLINE
  0000085F            01605 F5_000020 EQU $ ; in [SCROLL.INC] CLS
                      01606         F@CALL LCD@CLS
  00000861            01607 F5_000021 EQU $ ; in [SCROLL.INC] Gosub PrintUser
                      01608         F@CALL PRINTUSER
  00000864            01609 F5_000022 EQU $ ; in [SCROLL.INC] GoSub GetKey
                      01610         F@CALL GETKEY
  00000866            01611 F5_000023 EQU $ ; in [SCROLL.INC] Select Key
  00000866            01612 F5_000024 EQU $ ; in [SCROLL.INC] Case "U"
0866   3055           01613         MOVLW 85
0867   0261           01614         SUBWF KEY,W
                      01615         SET@PAGE BC@LL77
086A   1D03           01616         BTFSS STATUS,2
086B   28B3           01617         GOTO BC@LL77
  0000086C            01618 F5_000025 EQU $ ; in [SCROLL.INC] If StartLine > 5 then
086C   3006           01619         MOVLW 6
086D   0241           01620         SUBWF STARTLINE,W
                      01621         SET@PAGE BC@LL80
0870   1C03           01622         BTFSS STATUS,0
0871   287A           01623         GOTO BC@LL80
  00000872            01624 F5_000026 EQU $ ; in [SCROLL.INC] StartLine = StartLine - 8
0872   3008           01625         MOVLW 8
0873   02C1           01626         SUBWF STARTLINE,F
  00000874            01627 F5_000027 EQU $ ; in [SCROLL.INC] Goto Scroll
                      01628         F@JUMP SCROLL
                      01629         F@JUMP BC@LL81
087A                  01630 BC@LL80
  0000087A            01631 F5_000028 EQU $ ; in [SCROLL.INC] ELSE
  0000087A            01632 F5_000029 EQU $ ; in [SCROLL.INC] CLS
                      01633         F@CALL LCD@CLS
  0000087C            01634 F5_000030 EQU $ ; in [SCROLL.INC] Print AT 1,1, "Start of List"
087C   3080           01635         MOVLW 128
087D   00A1           01636         MOVWF BPFH
087E   3080           01637         MOVLW 128
                      01638         F@CALL LCD@CRS
0881   3053           01639         MOVLW 'S'
                      01640         F@CALL PRINT
0884   3074           01641         MOVLW 't'
                      01642         F@CALL PRINT
0887   3061           01643         MOVLW 'a'
                      01644         F@CALL PRINT
088A   3072           01645         MOVLW 'r'
                      01646         F@CALL PRINT
088D   3074           01647         MOVLW 't'
                      01648         F@CALL PRINT
0890   3020           01649         MOVLW ' '
                      01650         F@CALL PRINT
0893   306F           01651         MOVLW 'o'
                      01652         F@CALL PRINT
0896   3066           01653         MOVLW 'f'
                      01654         F@CALL PRINT
0899   3020           01655         MOVLW ' '
                      01656         F@CALL PRINT
089C   304C           01657         MOVLW 'L'
                      01658         F@CALL PRINT
089F   3069           01659         MOVLW 'i'
                      01660         F@CALL PRINT
08A2   3073           01661         MOVLW 's'
                      01662         F@CALL PRINT
08A5   3074           01663         MOVLW 't'
                      01664         F@CALL PRINT
  000008A8            01665 F5_000031 EQU $ ; in [SCROLL.INC] Pause 1000
08A8   3003           01666         MOVLW 3
08A9   00AF           01667         MOVWF PP1H
08AA   30E8           01668         MOVLW 232
                      01669         F@CALL DLY@W
  000008AD            01670 F5_000032 EQU $ ; in [SCROLL.INC] Goto Scroll
                      01671         F@JUMP SCROLL
  000008B0            01672 F5_000033 EQU $ ; in [SCROLL.INC] ENDIF
08B0                  01673 BC@LL81
                      01674         F@JUMP BC@LL76
08B3                  01675 BC@LL77
  000008B3            01676 F5_000034 EQU $ ; in [SCROLL.INC] Case "D"
08B3   3044           01677         MOVLW 68
08B4   0261           01678         SUBWF KEY,W
                      01679         SET@PAGE BC@LL83
08B7   1D03           01680         BTFSS STATUS,2
08B8   28D7           01681         GOTO BC@LL83
  000008B9            01682 F5_000035 EQU $ ; in [SCROLL.INC] If StartLine + 24 < EndLine then
08B9   3018           01683         MOVLW 24
08BA   0741           01684         ADDWF STARTLINE,W
08BB   00A9           01685         MOVWF PBP#VAR0
08BC   01AA           01686         CLRF PBP#VAR0H
08BD   0DAA           01687         RLF PBP#VAR0H,F
08BE   082A           01688         MOVFW PBP#VAR0H
                      01689         SET@PAGE BC@LL85
08C1   1D03           01690         BTFSS STATUS,2
08C2   28D1           01691         GOTO BC@LL85
08C3   0842           01692         MOVFW ENDLINE
08C4   0229           01693         SUBWF PBP#VAR0,W
                      01694         SET@PAGE BC@LL85
08C7   1803           01695         BTFSC STATUS,0
08C8   28D1           01696         GOTO BC@LL85
  000008C9            01697 F5_000036 EQU $ ; in [SCROLL.INC] StartLine = StartLine + 8
08C9   3008           01698         MOVLW 8
08CA   07C1           01699         ADDWF STARTLINE,F
  000008CB            01700 F5_000037 EQU $ ; in [SCROLL.INC] Goto Scroll
                      01701         F@JUMP SCROLL
                      01702         F@JUMP BC@LL86
08D1                  01703 BC@LL85
  000008D1            01704 F5_000038 EQU $ ; in [SCROLL.INC] Else
  000008D1            01705 F5_000039 EQU $ ; in [SCROLL.INC] Goto Scroll
                      01706         F@JUMP SCROLL
  000008D4            01707 F5_000040 EQU $ ; in [SCROLL.INC] ENDIF
08D4                  01708 BC@LL86
                      01709         F@JUMP BC@LL76
08D7                  01710 BC@LL83
  000008D7            01711 F5_000041 EQU $ ; in [SCROLL.INC] Case "C"
08D7   3043           01712         MOVLW 67
08D8   0261           01713         SUBWF KEY,W
                      01714         SET@PAGE BC@LL88
08DB   1D03           01715         BTFSS STATUS,2
08DC   28E3           01716         GOTO BC@LL88
  000008DD            01717 F5_000042 EQU $ ; in [SCROLL.INC] Goto MainMenu
                      01718         F@JUMP MAINMENU
  000008E0            01719 F5_000043 EQU $ ; in [SCROLL.INC] Case Else
                      01720         F@JUMP BC@LL90
08E3                  01721 BC@LL88
  000008E3            01722 F5_000044 EQU $ ; in [SCROLL.INC] Goto StartScrollAgain
                      01723         F@JUMP STARTSCROLLAGAIN
  000008E5            01724 F5_000045 EQU $ ; in [SCROLL.INC] EndSelect
08E5                  01725 BC@LL90
08E5                  01726 BC@LL76
08E5                  01727 PRINTUSER
  000008E5            01728 F5_000052 EQU $ ; in [SCROLL.INC] PrintUser: Gosub Get#
                      01729         F@CALL GET#
  000008E8            01730 F5_000053 EQU $ ; in [SCROLL.INC] GoSub Split
                      01731         F@CALL SPLIT
  000008EB            01732 F5_000054 EQU $ ; in [SCROLL.INC] PRINT AT 1,1, DEC EmpIN[0], DEC EmpIN[1], DEC EmpIN[2], DEC EmpIN[3], DEC EmpIN[4], DEC EmpIN[5]
08EB   3080           01733         MOVLW 128
08EC   00A1           01734         MOVWF BPFH
08ED   3080           01735         MOVLW 128
                      01736         F@CALL LCD@CRS
08F0   0844           01737         MOVFW EMPIN#0
                      01738         F@CALL OUT@DECB
08F3   0845           01739         MOVFW EMPIN#1
                      01740         F@CALL OUT@DECB
08F6   0846           01741         MOVFW EMPIN#2
                      01742         F@CALL OUT@DECB
08F9   0847           01743         MOVFW EMPIN#3
                      01744         F@CALL OUT@DECB
08FC   0848           01745         MOVFW EMPIN#4
                      01746         F@CALL OUT@DECB
08FF   0849           01747         MOVFW EMPIN#5
                      01748         F@CALL OUT@DECB
  00000902            01749 F5_000055 EQU $ ; in [SCROLL.INC] CurrentLine = CurrentLine + 8
0902   3008           01750         MOVLW 8
0903   07C0           01751         ADDWF CURRENTLINE,F
  00000904            01752 F5_000056 EQU $ ; in [SCROLL.INC] If CurrentLine = EndLine then
0904   0840           01753         MOVFW CURRENTLINE
0905   0242           01754         SUBWF ENDLINE,W
                      01755         SET@PAGE BC@LL92
0908   1D03           01756         BTFSS STATUS,2
0909   2931           01757         GOTO BC@LL92
  0000090A            01758 F5_000057 EQU $ ; in [SCROLL.INC] Print AT 2,1, "END OF LIST"
090A   3080           01759         MOVLW 128
090B   00A1           01760         MOVWF BPFH
090C   30C0           01761         MOVLW 192
                      01762         F@CALL LCD@CRS
090F   3045           01763         MOVLW 'E'
                      01764         F@CALL PRINT
0912   304E           01765         MOVLW 'N'
                      01766         F@CALL PRINT
0915   3044           01767         MOVLW 'D'
                      01768         F@CALL PRINT
0918   3020           01769         MOVLW ' '
                      01770         F@CALL PRINT
091B   304F           01771         MOVLW 'O'
                      01772         F@CALL PRINT
091E   3046           01773         MOVLW 'F'
                      01774         F@CALL PRINT
0921   3020           01775         MOVLW ' '
                      01776         F@CALL PRINT
0924   304C           01777         MOVLW 'L'
                      01778         F@CALL PRINT
0927   3049           01779         MOVLW 'I'
                      01780         F@CALL PRINT
092A   3053           01781         MOVLW 'S'
                      01782         F@CALL PRINT
092D   3054           01783         MOVLW 'T'
                      01784         F@CALL PRINT
  00000930            01785 F5_000058 EQU $ ; in [SCROLL.INC] RETURN
0930   0008           01786         RETURN
  00000931            01787 F5_000059 EQU $ ; in [SCROLL.INC] ENDIF
0931                  01788 BC@LL92
  00000931            01789 F5_000061 EQU $ ; in [SCROLL.INC] GoSUB Get#
                      01790         F@CALL GET#
  00000934            01791 F5_000062 EQU $ ; in [SCROLL.INC] GoSub Split
                      01792         F@CALL SPLIT
  00000937            01793 F5_000063 EQU $ ; in [SCROLL.INC] PRINT AT 2,1, DEC EmpIN[0], DEC EmpIN[1], DEC EmpIN[2], DEC EmpIN[3], DEC EmpIN[4], DEC EmpIN[5]
0937   3080           01794         MOVLW 128
0938   00A1           01795         MOVWF BPFH
0939   30C0           01796         MOVLW 192
                      01797         F@CALL LCD@CRS
093C   0844           01798         MOVFW EMPIN#0
                      01799         F@CALL OUT@DECB
093F   0845           01800         MOVFW EMPIN#1
                      01801         F@CALL OUT@DECB
0942   0846           01802         MOVFW EMPIN#2
                      01803         F@CALL OUT@DECB
0945   0847           01804         MOVFW EMPIN#3
                      01805         F@CALL OUT@DECB
0948   0848           01806         MOVFW EMPIN#4
                      01807         F@CALL OUT@DECB
094B   0849           01808         MOVFW EMPIN#5
                      01809         F@CALL OUT@DECB
  0000094E            01810 F5_000064 EQU $ ; in [SCROLL.INC] CurrentLine = CurrentLine + 8
094E   3008           01811         MOVLW 8
094F   07C0           01812         ADDWF CURRENTLINE,F
  00000950            01813 F5_000065 EQU $ ; in [SCROLL.INC] If CurrentLine = EndLine then
0950   0840           01814         MOVFW CURRENTLINE
0951   0242           01815         SUBWF ENDLINE,W
                      01816         SET@PAGE BC@LL94
0954   1D03           01817         BTFSS STATUS,2
0955   297D           01818         GOTO BC@LL94
  00000956            01819 F5_000066 EQU $ ; in [SCROLL.INC] Print AT 1,17, "END OF LIST"
0956   3080           01820         MOVLW 128
0957   00A1           01821         MOVWF BPFH
0958   3090           01822         MOVLW 144
                      01823         F@CALL LCD@CRS
095B   3045           01824         MOVLW 'E'
                      01825         F@CALL PRINT
095E   304E           01826         MOVLW 'N'
                      01827         F@CALL PRINT
0961   3044           01828         MOVLW 'D'
                      01829         F@CALL PRINT
0964   3020           01830         MOVLW ' '
                      01831         F@CALL PRINT
0967   304F           01832         MOVLW 'O'
                      01833         F@CALL PRINT
096A   3046           01834         MOVLW 'F'
                      01835         F@CALL PRINT
096D   3020           01836         MOVLW ' '
                      01837         F@CALL PRINT
0970   304C           01838         MOVLW 'L'
                      01839         F@CALL PRINT
0973   3049           01840         MOVLW 'I'
                      01841         F@CALL PRINT
0976   3053           01842         MOVLW 'S'
                      01843         F@CALL PRINT
0979   3054           01844         MOVLW 'T'
                      01845         F@CALL PRINT
  0000097C            01846 F5_000067 EQU $ ; in [SCROLL.INC] RETURN
097C   0008           01847         RETURN
  0000097D            01848 F5_000068 EQU $ ; in [SCROLL.INC] ENDIF
097D                  01849 BC@LL94
  0000097D            01850 F5_000070 EQU $ ; in [SCROLL.INC] GoSUB Get#
                      01851         F@CALL GET#
  00000980            01852 F5_000071 EQU $ ; in [SCROLL.INC] GoSub Split
                      01853         F@CALL SPLIT
  00000983            01854 F5_000072 EQU $ ; in [SCROLL.INC] PRINT AT 1,17, DEC EmpIN[0], DEC EmpIN[1], DEC EmpIN[2], DEC EmpIN[3], DEC EmpIN[4], DEC EmpIN[5]
0983   3080           01855         MOVLW 128
0984   00A1           01856         MOVWF BPFH
0985   3090           01857         MOVLW 144
                      01858         F@CALL LCD@CRS
0988   0844           01859         MOVFW EMPIN#0
                      01860         F@CALL OUT@DECB
098B   0845           01861         MOVFW EMPIN#1
                      01862         F@CALL OUT@DECB
098E   0846           01863         MOVFW EMPIN#2
                      01864         F@CALL OUT@DECB
0991   0847           01865         MOVFW EMPIN#3
                      01866         F@CALL OUT@DECB
0994   0848           01867         MOVFW EMPIN#4
                      01868         F@CALL OUT@DECB
0997   0849           01869         MOVFW EMPIN#5
                      01870         F@CALL OUT@DECB
  0000099A            01871 F5_000073 EQU $ ; in [SCROLL.INC] CurrentLine = CurrentLine + 8
099A   3008           01872         MOVLW 8
099B   07C0           01873         ADDWF CURRENTLINE,F
  0000099C            01874 F5_000074 EQU $ ; in [SCROLL.INC] If CurrentLine = EndLine then
099C   0840           01875         MOVFW CURRENTLINE
099D   0242           01876         SUBWF ENDLINE,W
                      01877         SET@PAGE BC@LL96
09A0   1D03           01878         BTFSS STATUS,2
09A1   29C9           01879         GOTO BC@LL96
  000009A2            01880 F5_000075 EQU $ ; in [SCROLL.INC] Print AT 2,17, "END OF LIST"
09A2   3080           01881         MOVLW 128
09A3   00A1           01882         MOVWF BPFH
09A4   30D0           01883         MOVLW 208
                      01884         F@CALL LCD@CRS
09A7   3045           01885         MOVLW 'E'
                      01886         F@CALL PRINT
09AA   304E           01887         MOVLW 'N'
                      01888         F@CALL PRINT
09AD   3044           01889         MOVLW 'D'
                      01890         F@CALL PRINT
09B0   3020           01891         MOVLW ' '
                      01892         F@CALL PRINT
09B3   304F           01893         MOVLW 'O'
                      01894         F@CALL PRINT
09B6   3046           01895         MOVLW 'F'
                      01896         F@CALL PRINT
09B9   3020           01897         MOVLW ' '
                      01898         F@CALL PRINT
09BC   304C           01899         MOVLW 'L'
                      01900         F@CALL PRINT
09BF   3049           01901         MOVLW 'I'
                      01902         F@CALL PRINT
09C2   3053           01903         MOVLW 'S'
                      01904         F@CALL PRINT
09C5   3054           01905         MOVLW 'T'
                      01906         F@CALL PRINT
  000009C8            01907 F5_000076 EQU $ ; in [SCROLL.INC] RETURN
09C8   0008           01908         RETURN
  000009C9            01909 F5_000077 EQU $ ; in [SCROLL.INC] ENDIF
09C9                  01910 BC@LL96
  000009C9            01911 F5_000079 EQU $ ; in [SCROLL.INC] GoSUB Get#
                      01912         F@CALL GET#
  000009CC            01913 F5_000080 EQU $ ; in [SCROLL.INC] GoSub Split
                      01914         F@CALL SPLIT
  000009CF            01915 F5_000081 EQU $ ; in [SCROLL.INC] PRINT AT 2,17, DEC EmpIN[0], DEC EmpIN[1], DEC EmpIN[2], DEC EmpIN[3], DEC EmpIN[4], DEC EmpIN[5]
09CF   3080           01916         MOVLW 128
09D0   00A1           01917         MOVWF BPFH
09D1   30D0           01918         MOVLW 208
                      01919         F@CALL LCD@CRS
09D4   0844           01920         MOVFW EMPIN#0
                      01921         F@CALL OUT@DECB
09D7   0845           01922         MOVFW EMPIN#1
                      01923         F@CALL OUT@DECB
09DA   0846           01924         MOVFW EMPIN#2
                      01925         F@CALL OUT@DECB
09DD   0847           01926         MOVFW EMPIN#3
                      01927         F@CALL OUT@DECB
09E0   0848           01928         MOVFW EMPIN#4
                      01929         F@CALL OUT@DECB
09E3   0849           01930         MOVFW EMPIN#5
                      01931         F@CALL OUT@DECB
  000009E6            01932 F5_000082 EQU $ ; in [SCROLL.INC] RETURN
09E6   0008           01933         RETURN
09E7                  01934 GET#
  000009E7            01935 F5_000089 EQU $ ; in [SCROLL.INC] Get#:  Index = 0
09E7   01BA           01936         CLRF INDEX
  000009E8            01937 F5_000090 EQU $ ; in [SCROLL.INC] REPEAT           'Get each employee
09E8                  01938 BC@LL97
  000009E8            01939 F5_000091 EQU $ ; in [SCROLL.INC] B1 = EREAD CurrentLine + Index  'in the 8 byte key spots
09E8   0840           01940         MOVFW CURRENTLINE
09E9   073A           01941         ADDWF INDEX,W
                      01942         F@CALL EE_RD
09EC   00BD           01943         MOVWF B1
  000009ED            01944 F5_000092 EQU $ ; in [SCROLL.INC] CE[Index] = B1  'Get first digit of employee #
09ED   083A           01945         MOVFW INDEX
09EE   3E4A           01946         ADDLW CE
09EF   0084           01947         MOVWF FSR
09F0   083D           01948         MOVFW B1
09F1   0080           01949         MOVWF INDF
  000009F2            01950 F5_000093 EQU $ ; in [SCROLL.INC] INC Index      'Get Next Digit
09F2   0ABA           01951         INCF INDEX,F
  000009F3            01952 F5_000094 EQU $ ; in [SCROLL.INC] UNTIL Index > 2
09F3   3003           01953         MOVLW 3
09F4   023A           01954         SUBWF INDEX,W
                      01955         SET@PAGE BC@LL97
09F7   1C03           01956         BTFSS STATUS,0
09F8   29E8           01957         GOTO BC@LL97
09F9                  01958 BC@LL98
  000009F9            01959 F5_000095 EQU $ ; in [SCROLL.INC] B1 = "C"
09F9   3043           01960         MOVLW 67
09FA   00BD           01961         MOVWF B1
  000009FB            01962 F5_000096 EQU $ ; in [SCROLL.INC] Return
09FB   0008           01963         RETURN
  000009FC            01964 F5_EOF EQU $ ; SCROLL.INC
  000009FC            01965 F6_SOF EQU $ ; SCROLLH.INC
09FC                  01966 STARTSCROLLH
  000009FC            01967 F6_000005 EQU $ ; in [SCROLLH.INC] StartScrollH: StartLine = 202 'Starting address of history table
09FC   30CA           01968         MOVLW 202
09FD   00C1           01969         MOVWF STARTLINE
  000009FE            01970 F6_000006 EQU $ ; in [SCROLLH.INC] EndLine = 250 'End Address of history Table
09FE   30FA           01971         MOVLW 250
09FF   00C2           01972         MOVWF ENDLINE
0A00                  01973 SCROLLHAGAIN
  00000A00            01974 F6_000009 EQU $ ; in [SCROLLH.INC] CLS
                      01975         F@CALL LCD@CLS
  00000A02            01976 F6_000010 EQU $ ; in [SCROLLH.INC] Print AT 1,1, "Use Arrow Keys"
0A02   3080           01977         MOVLW 128
0A03   00A1           01978         MOVWF BPFH
0A04   3080           01979         MOVLW 128
                      01980         F@CALL LCD@CRS
0A07   3055           01981         MOVLW 'U'
                      01982         F@CALL PRINT
0A0A   3073           01983         MOVLW 's'
                      01984         F@CALL PRINT
0A0D   3065           01985         MOVLW 'e'
                      01986         F@CALL PRINT
0A10   3020           01987         MOVLW ' '
                      01988         F@CALL PRINT
0A13   3041           01989         MOVLW 'A'
                      01990         F@CALL PRINT
0A16   3072           01991         MOVLW 'r'
                      01992         F@CALL PRINT
                      01993         F@CALL PRINT
0A1B   306F           01994         MOVLW 'o'
                      01995         F@CALL PRINT
0A1E   3077           01996         MOVLW 'w'
                      01997         F@CALL PRINT
0A21   3020           01998         MOVLW ' '
                      01999         F@CALL PRINT
0A24   304B           02000         MOVLW 'K'
                      02001         F@CALL PRINT
0A27   3065           02002         MOVLW 'e'
                      02003         F@CALL PRINT
0A2A   3079           02004         MOVLW 'y'
                      02005         F@CALL PRINT
0A2D   3073           02006         MOVLW 's'
                      02007         F@CALL PRINT
  00000A30            02008 F6_000011 EQU $ ; in [SCROLLH.INC] Print AT 2,1, "to Scroll."
0A30   3080           02009         MOVLW 128
0A31   00A1           02010         MOVWF BPFH
0A32   30C0           02011         MOVLW 192
                      02012         F@CALL LCD@CRS
0A35   3074           02013         MOVLW 't'
                      02014         F@CALL PRINT
0A38   306F           02015         MOVLW 'o'
                      02016         F@CALL PRINT
0A3B   3020           02017         MOVLW ' '
                      02018         F@CALL PRINT
0A3E   3053           02019         MOVLW 'S'
                      02020         F@CALL PRINT
0A41   3063           02021         MOVLW 'c'
                      02022         F@CALL PRINT
0A44   3072           02023         MOVLW 'r'
                      02024         F@CALL PRINT
0A47   306F           02025         MOVLW 'o'
                      02026         F@CALL PRINT
0A4A   306C           02027         MOVLW 'l'
                      02028         F@CALL PRINT
                      02029         F@CALL PRINT
0A4F   302E           02030         MOVLW '.'
                      02031         F@CALL PRINT
  00000A52            02032 F6_000012 EQU $ ; in [SCROLLH.INC] Print AT 1,17, "'Clear' to Exit"
0A52   3080           02033         MOVLW 128
0A53   00A1           02034         MOVWF BPFH
0A54   3090           02035         MOVLW 144
                      02036         F@CALL LCD@CRS
0A57   3027           02037         MOVLW '\''
                      02038         F@CALL PRINT
0A5A   3043           02039         MOVLW 'C'
                      02040         F@CALL PRINT
0A5D   306C           02041         MOVLW 'l'
                      02042         F@CALL PRINT
0A60   3065           02043         MOVLW 'e'
                      02044         F@CALL PRINT
0A63   3061           02045         MOVLW 'a'
                      02046         F@CALL PRINT
0A66   3072           02047         MOVLW 'r'
                      02048         F@CALL PRINT
0A69   3027           02049         MOVLW '\''
                      02050         F@CALL PRINT
0A6C   3020           02051         MOVLW ' '
                      02052         F@CALL PRINT
0A6F   3074           02053         MOVLW 't'
                      02054         F@CALL PRINT
0A72   306F           02055         MOVLW 'o'
                      02056         F@CALL PRINT
0A75   3020           02057         MOVLW ' '
                      02058         F@CALL PRINT
0A78   3045           02059         MOVLW 'E'
                      02060         F@CALL PRINT
0A7B   3078           02061         MOVLW 'x'
                      02062         F@CALL PRINT
0A7E   3069           02063         MOVLW 'i'
                      02064         F@CALL PRINT
0A81   3074           02065         MOVLW 't'
                      02066         F@CALL PRINT
  00000A84            02067 F6_000013 EQU $ ; in [SCROLLH.INC] Pause 4000
0A84   300F           02068         MOVLW 15
0A85   00AF           02069         MOVWF PP1H
0A86   30A0           02070         MOVLW 160
                      02071         F@CALL DLY@W
  00000A89            02072 F6_000014 EQU $ ; in [SCROLLH.INC] LastUser = EREAD 254   'Get next empty User history record address
0A89   30FE           02073         MOVLW 254
                      02074         F@CALL EE_RD
0A8C   00C3           02075         MOVWF LASTUSER
0A8D                  02076 SCROLLH
  00000A8D            02077 F6_000016 EQU $ ; in [SCROLLH.INC] ScrollH: CurrentLine = StartLine  'Set Currentline first User history record
0A8D   0841           02078         MOVFW STARTLINE
0A8E   00C0           02079         MOVWF CURRENTLINE
  00000A8F            02080 F6_000017 EQU $ ; in [SCROLLH.INC] CLS
                      02081         F@CALL LCD@CLS
  00000A91            02082 F6_000018 EQU $ ; in [SCROLLH.INC] Gosub PrintHistory
                      02083         F@CALL PRINTHISTORY
  00000A94            02084 F6_000019 EQU $ ; in [SCROLLH.INC] GoSub GetKey
                      02085         F@CALL GETKEY
  00000A96            02086 F6_000020 EQU $ ; in [SCROLLH.INC] Select Key
  00000A96            02087 F6_000021 EQU $ ; in [SCROLLH.INC] Case "U"
0A96   3055           02088         MOVLW 85
0A97   0261           02089         SUBWF KEY,W
                      02090         SET@PAGE BC@LL100
0A9A   1D03           02091         BTFSS STATUS,2
0A9B   2AE3           02092         GOTO BC@LL100
  00000A9C            02093 F6_000022 EQU $ ; in [SCROLLH.INC] If StartLine > 202 then
0A9C   30CB           02094         MOVLW 203
0A9D   0241           02095         SUBWF STARTLINE,W
                      02096         SET@PAGE BC@LL103
0AA0   1C03           02097         BTFSS STATUS,0
0AA1   2AAA           02098         GOTO BC@LL103
  00000AA2            02099 F6_000023 EQU $ ; in [SCROLLH.INC] StartLine = StartLine - 3
0AA2   3003           02100         MOVLW 3
0AA3   02C1           02101         SUBWF STARTLINE,F
  00000AA4            02102 F6_000024 EQU $ ; in [SCROLLH.INC] Goto ScrollH
                      02103         F@JUMP SCROLLH
                      02104         F@JUMP BC@LL104
0AAA                  02105 BC@LL103
  00000AAA            02106 F6_000025 EQU $ ; in [SCROLLH.INC] ELSE
  00000AAA            02107 F6_000026 EQU $ ; in [SCROLLH.INC] CLS
                      02108         F@CALL LCD@CLS
  00000AAC            02109 F6_000027 EQU $ ; in [SCROLLH.INC] Print AT 1,1, "Start of List"
0AAC   3080           02110         MOVLW 128
0AAD   00A1           02111         MOVWF BPFH
0AAE   3080           02112         MOVLW 128
                      02113         F@CALL LCD@CRS
0AB1   3053           02114         MOVLW 'S'
                      02115         F@CALL PRINT
0AB4   3074           02116         MOVLW 't'
                      02117         F@CALL PRINT
0AB7   3061           02118         MOVLW 'a'
                      02119         F@CALL PRINT
0ABA   3072           02120         MOVLW 'r'
                      02121         F@CALL PRINT
0ABD   3074           02122         MOVLW 't'
                      02123         F@CALL PRINT
0AC0   3020           02124         MOVLW ' '
                      02125         F@CALL PRINT
0AC3   306F           02126         MOVLW 'o'
                      02127         F@CALL PRINT
0AC6   3066           02128         MOVLW 'f'
                      02129         F@CALL PRINT
0AC9   3020           02130         MOVLW ' '
                      02131         F@CALL PRINT
0ACC   304C           02132         MOVLW 'L'
                      02133         F@CALL PRINT
0ACF   3069           02134         MOVLW 'i'
                      02135         F@CALL PRINT
0AD2   3073           02136         MOVLW 's'
                      02137         F@CALL PRINT
0AD5   3074           02138         MOVLW 't'
                      02139         F@CALL PRINT
  00000AD8            02140 F6_000028 EQU $ ; in [SCROLLH.INC] Pause 1000
0AD8   3003           02141         MOVLW 3
0AD9   00AF           02142         MOVWF PP1H
0ADA   30E8           02143         MOVLW 232
                      02144         F@CALL DLY@W
  00000ADD            02145 F6_000029 EQU $ ; in [SCROLLH.INC] Goto ScrollH
                      02146         F@JUMP SCROLLH
  00000AE0            02147 F6_000030 EQU $ ; in [SCROLLH.INC] ENDIF
0AE0                  02148 BC@LL104
                      02149         F@JUMP BC@LL99
0AE3                  02150 BC@LL100
  00000AE3            02151 F6_000031 EQU $ ; in [SCROLLH.INC] Case "D"
0AE3   3044           02152         MOVLW 68
0AE4   0261           02153         SUBWF KEY,W
                      02154         SET@PAGE BC@LL106
0AE7   1D03           02155         BTFSS STATUS,2
0AE8   2B07           02156         GOTO BC@LL106
  00000AE9            02157 F6_000032 EQU $ ; in [SCROLLH.INC] If StartLine + 9 < LastUser then
0AE9   3009           02158         MOVLW 9
0AEA   0741           02159         ADDWF STARTLINE,W
0AEB   00A9           02160         MOVWF PBP#VAR0
0AEC   01AA           02161         CLRF PBP#VAR0H
0AED   0DAA           02162         RLF PBP#VAR0H,F
0AEE   082A           02163         MOVFW PBP#VAR0H
                      02164         SET@PAGE BC@LL108
0AF1   1D03           02165         BTFSS STATUS,2
0AF2   2B01           02166         GOTO BC@LL108
0AF3   0843           02167         MOVFW LASTUSER
0AF4   0229           02168         SUBWF PBP#VAR0,W
                      02169         SET@PAGE BC@LL108
0AF7   1803           02170         BTFSC STATUS,0
0AF8   2B01           02171         GOTO BC@LL108
  00000AF9            02172 F6_000033 EQU $ ; in [SCROLLH.INC] StartLine = StartLine + 3
0AF9   3003           02173         MOVLW 3
0AFA   07C1           02174         ADDWF STARTLINE,F
  00000AFB            02175 F6_000034 EQU $ ; in [SCROLLH.INC] Goto ScrollH
                      02176         F@JUMP SCROLLH
                      02177         F@JUMP BC@LL109
0B01                  02178 BC@LL108
  00000B01            02179 F6_000035 EQU $ ; in [SCROLLH.INC] Else
  00000B01            02180 F6_000036 EQU $ ; in [SCROLLH.INC] Goto ScrollH
                      02181         F@JUMP SCROLLH
  00000B04            02182 F6_000037 EQU $ ; in [SCROLLH.INC] ENDIF
0B04                  02183 BC@LL109
                      02184         F@JUMP BC@LL99
0B07                  02185 BC@LL106
  00000B07            02186 F6_000038 EQU $ ; in [SCROLLH.INC] Case "C"
0B07   3043           02187         MOVLW 67
0B08   0261           02188         SUBWF KEY,W
                      02189         SET@PAGE BC@LL111
0B0B   1D03           02190         BTFSS STATUS,2
0B0C   2B13           02191         GOTO BC@LL111
  00000B0D            02192 F6_000039 EQU $ ; in [SCROLLH.INC] Goto MainMenu
                      02193         F@JUMP MAINMENU
  00000B10            02194 F6_000040 EQU $ ; in [SCROLLH.INC] Case Else
                      02195         F@JUMP BC@LL113
0B13                  02196 BC@LL111
  00000B13            02197 F6_000041 EQU $ ; in [SCROLLH.INC] Goto ScrollHAgain
                      02198         F@JUMP SCROLLHAGAIN
  00000B16            02199 F6_000042 EQU $ ; in [SCROLLH.INC] EndSelect
0B16                  02200 BC@LL113
0B16                  02201 BC@LL99
0B16                  02202 PRINTHISTORY
  00000B16            02203 F6_000049 EQU $ ; in [SCROLLH.INC] PrintHistory: Gosub GetUser#
                      02204         F@CALL GETUSER#
  00000B19            02205 F6_000050 EQU $ ; in [SCROLLH.INC] GoSub Split
                      02206         F@CALL SPLIT
  00000B1C            02207 F6_000051 EQU $ ; in [SCROLLH.INC] PRINT AT 1,1, DEC EmpIN[0], DEC EmpIN[1], DEC EmpIN[2], DEC EmpIN[3], DEC EmpIN[4], DEC EmpIN[5]
0B1C   3080           02208         MOVLW 128
0B1D   00A1           02209         MOVWF BPFH
0B1E   3080           02210         MOVLW 128
                      02211         F@CALL LCD@CRS
0B21   0844           02212         MOVFW EMPIN#0
                      02213         F@CALL OUT@DECB
0B24   0845           02214         MOVFW EMPIN#1
                      02215         F@CALL OUT@DECB
0B27   0846           02216         MOVFW EMPIN#2
                      02217         F@CALL OUT@DECB
0B2A   0847           02218         MOVFW EMPIN#3
                      02219         F@CALL OUT@DECB
0B2D   0848           02220         MOVFW EMPIN#4
                      02221         F@CALL OUT@DECB
0B30   0849           02222         MOVFW EMPIN#5
                      02223         F@CALL OUT@DECB
  00000B33            02224 F6_000052 EQU $ ; in [SCROLLH.INC] CurrentLine = CurrentLine + 3   'Get next User from history records
0B33   3003           02225         MOVLW 3
0B34   07C0           02226         ADDWF CURRENTLINE,F
  00000B35            02227 F6_000054 EQU $ ; in [SCROLLH.INC] IF CurrentLine = LastUser then
0B35   0840           02228         MOVFW CURRENTLINE
0B36   0243           02229         SUBWF LASTUSER,W
                      02230         SET@PAGE BC@LL115
0B39   1D03           02231         BTFSS STATUS,2
0B3A   2B62           02232         GOTO BC@LL115
  00000B3B            02233 F6_000055 EQU $ ; in [SCROLLH.INC] Print AT 2,1, "END OF LIST"
0B3B   3080           02234         MOVLW 128
0B3C   00A1           02235         MOVWF BPFH
0B3D   30C0           02236         MOVLW 192
                      02237         F@CALL LCD@CRS
0B40   3045           02238         MOVLW 'E'
                      02239         F@CALL PRINT
0B43   304E           02240         MOVLW 'N'
                      02241         F@CALL PRINT
0B46   3044           02242         MOVLW 'D'
                      02243         F@CALL PRINT
0B49   3020           02244         MOVLW ' '
                      02245         F@CALL PRINT
0B4C   304F           02246         MOVLW 'O'
                      02247         F@CALL PRINT
0B4F   3046           02248         MOVLW 'F'
                      02249         F@CALL PRINT
0B52   3020           02250         MOVLW ' '
                      02251         F@CALL PRINT
0B55   304C           02252         MOVLW 'L'
                      02253         F@CALL PRINT
0B58   3049           02254         MOVLW 'I'
                      02255         F@CALL PRINT
0B5B   3053           02256         MOVLW 'S'
                      02257         F@CALL PRINT
0B5E   3054           02258         MOVLW 'T'
                      02259         F@CALL PRINT
  00000B61            02260 F6_000056 EQU $ ; in [SCROLLH.INC] RETURN
0B61   0008           02261         RETURN
  00000B62            02262 F6_000057 EQU $ ; in [SCROLLH.INC] ENDIF
0B62                  02263 BC@LL115
  00000B62            02264 F6_000059 EQU $ ; in [SCROLLH.INC] GoSUB GetUser#
                      02265         F@CALL GETUSER#
  00000B65            02266 F6_000060 EQU $ ; in [SCROLLH.INC] GoSub Split
                      02267         F@CALL SPLIT
  00000B68            02268 F6_000061 EQU $ ; in [SCROLLH.INC] PRINT AT 2,1, DEC EmpIN[0], DEC EmpIN[1], DEC EmpIN[2], DEC EmpIN[3], DEC EmpIN[4], DEC EmpIN[5]
0B68   3080           02269         MOVLW 128
0B69   00A1           02270         MOVWF BPFH
0B6A   30C0           02271         MOVLW 192
                      02272         F@CALL LCD@CRS
0B6D   0844           02273         MOVFW EMPIN#0
                      02274         F@CALL OUT@DECB
0B70   0845           02275         MOVFW EMPIN#1
                      02276         F@CALL OUT@DECB
0B73   0846           02277         MOVFW EMPIN#2
                      02278         F@CALL OUT@DECB
0B76   0847           02279         MOVFW EMPIN#3
                      02280         F@CALL OUT@DECB
0B79   0848           02281         MOVFW EMPIN#4
                      02282         F@CALL OUT@DECB
0B7C   0849           02283         MOVFW EMPIN#5
                      02284         F@CALL OUT@DECB
  00000B7F            02285 F6_000062 EQU $ ; in [SCROLLH.INC] CurrentLine = CurrentLine + 3   'Get next User from history records
0B7F   3003           02286         MOVLW 3
0B80   07C0           02287         ADDWF CURRENTLINE,F
  00000B81            02288 F6_000063 EQU $ ; in [SCROLLH.INC] IF CurrentLine = LastUser then
0B81   0840           02289         MOVFW CURRENTLINE
0B82   0243           02290         SUBWF LASTUSER,W
                      02291         SET@PAGE BC@LL117
0B85   1D03           02292         BTFSS STATUS,2
0B86   2BAE           02293         GOTO BC@LL117
  00000B87            02294 F6_000064 EQU $ ; in [SCROLLH.INC] Print AT 1,17, "END OF LIST"
0B87   3080           02295         MOVLW 128
0B88   00A1           02296         MOVWF BPFH
0B89   3090           02297         MOVLW 144
                      02298         F@CALL LCD@CRS
0B8C   3045           02299         MOVLW 'E'
                      02300         F@CALL PRINT
0B8F   304E           02301         MOVLW 'N'
                      02302         F@CALL PRINT
0B92   3044           02303         MOVLW 'D'
                      02304         F@CALL PRINT
0B95   3020           02305         MOVLW ' '
                      02306         F@CALL PRINT
0B98   304F           02307         MOVLW 'O'
                      02308         F@CALL PRINT
0B9B   3046           02309         MOVLW 'F'
                      02310         F@CALL PRINT
0B9E   3020           02311         MOVLW ' '
                      02312         F@CALL PRINT
0BA1   304C           02313         MOVLW 'L'
                      02314         F@CALL PRINT
0BA4   3049           02315         MOVLW 'I'
                      02316         F@CALL PRINT
0BA7   3053           02317         MOVLW 'S'
                      02318         F@CALL PRINT
0BAA   3054           02319         MOVLW 'T'
                      02320         F@CALL PRINT
  00000BAD            02321 F6_000065 EQU $ ; in [SCROLLH.INC] RETURN
0BAD   0008           02322         RETURN
  00000BAE            02323 F6_000066 EQU $ ; in [SCROLLH.INC] ENDIF
0BAE                  02324 BC@LL117
  00000BAE            02325 F6_000068 EQU $ ; in [SCROLLH.INC] GoSUB GetUser#
                      02326         F@CALL GETUSER#
  00000BB1            02327 F6_000069 EQU $ ; in [SCROLLH.INC] GoSub Split
                      02328         F@CALL SPLIT
  00000BB4            02329 F6_000070 EQU $ ; in [SCROLLH.INC] PRINT AT 1,17, DEC EmpIN[0], DEC EmpIN[1], DEC EmpIN[2], DEC EmpIN[3], DEC EmpIN[4], DEC EmpIN[5]
0BB4   3080           02330         MOVLW 128
0BB5   00A1           02331         MOVWF BPFH
0BB6   3090           02332         MOVLW 144
                      02333         F@CALL LCD@CRS
0BB9   0844           02334         MOVFW EMPIN#0
                      02335         F@CALL OUT@DECB
0BBC   0845           02336         MOVFW EMPIN#1
                      02337         F@CALL OUT@DECB
0BBF   0846           02338         MOVFW EMPIN#2
                      02339         F@CALL OUT@DECB
0BC2   0847           02340         MOVFW EMPIN#3
                      02341         F@CALL OUT@DECB
0BC5   0848           02342         MOVFW EMPIN#4
                      02343         F@CALL OUT@DECB
0BC8   0849           02344         MOVFW EMPIN#5
                      02345         F@CALL OUT@DECB
  00000BCB            02346 F6_000071 EQU $ ; in [SCROLLH.INC] CurrentLine = CurrentLine + 3   'Get next User from history records
0BCB   3003           02347         MOVLW 3
0BCC   07C0           02348         ADDWF CURRENTLINE,F
  00000BCD            02349 F6_000072 EQU $ ; in [SCROLLH.INC] IF CurrentLine = LastUser then
0BCD   0840           02350         MOVFW CURRENTLINE
0BCE   0243           02351         SUBWF LASTUSER,W
                      02352         SET@PAGE BC@LL119
0BD1   1D03           02353         BTFSS STATUS,2
0BD2   2BFA           02354         GOTO BC@LL119
  00000BD3            02355 F6_000073 EQU $ ; in [SCROLLH.INC] Print AT 2,17, "END OF LIST"
0BD3   3080           02356         MOVLW 128
0BD4   00A1           02357         MOVWF BPFH
0BD5   30D0           02358         MOVLW 208
                      02359         F@CALL LCD@CRS
0BD8   3045           02360         MOVLW 'E'
                      02361         F@CALL PRINT
0BDB   304E           02362         MOVLW 'N'
                      02363         F@CALL PRINT
0BDE   3044           02364         MOVLW 'D'
                      02365         F@CALL PRINT
0BE1   3020           02366         MOVLW ' '
                      02367         F@CALL PRINT
0BE4   304F           02368         MOVLW 'O'
                      02369         F@CALL PRINT
0BE7   3046           02370         MOVLW 'F'
                      02371         F@CALL PRINT
0BEA   3020           02372         MOVLW ' '
                      02373         F@CALL PRINT
0BED   304C           02374         MOVLW 'L'
                      02375         F@CALL PRINT
0BF0   3049           02376         MOVLW 'I'
                      02377         F@CALL PRINT
0BF3   3053           02378         MOVLW 'S'
                      02379         F@CALL PRINT
0BF6   3054           02380         MOVLW 'T'
                      02381         F@CALL PRINT
  00000BF9            02382 F6_000074 EQU $ ; in [SCROLLH.INC] RETURN
0BF9   0008           02383         RETURN
  00000BFA            02384 F6_000075 EQU $ ; in [SCROLLH.INC] ENDIF
0BFA                  02385 BC@LL119
  00000BFA            02386 F6_000076 EQU $ ; in [SCROLLH.INC] GoSUB GetUser#
                      02387         F@CALL GETUSER#
  00000BFD            02388 F6_000077 EQU $ ; in [SCROLLH.INC] GoSub Split
                      02389         F@CALL SPLIT
  00000C00            02390 F6_000078 EQU $ ; in [SCROLLH.INC] PRINT AT 2,17, DEC EmpIN[0], DEC EmpIN[1], DEC EmpIN[2], DEC EmpIN[3], DEC EmpIN[4], DEC EmpIN[5]
0C00   3080           02391         MOVLW 128
0C01   00A1           02392         MOVWF BPFH
0C02   30D0           02393         MOVLW 208
                      02394         F@CALL LCD@CRS
0C05   0844           02395         MOVFW EMPIN#0
                      02396         F@CALL OUT@DECB
0C08   0845           02397         MOVFW EMPIN#1
                      02398         F@CALL OUT@DECB
0C0B   0846           02399         MOVFW EMPIN#2
                      02400         F@CALL OUT@DECB
0C0E   0847           02401         MOVFW EMPIN#3
                      02402         F@CALL OUT@DECB
0C11   0848           02403         MOVFW EMPIN#4
                      02404         F@CALL OUT@DECB
0C14   0849           02405         MOVFW EMPIN#5
                      02406         F@CALL OUT@DECB
  00000C17            02407 F6_000079 EQU $ ; in [SCROLLH.INC] RETURN
0C17   0008           02408         RETURN
0C18                  02409 GETUSER#
  00000C18            02410 F6_000086 EQU $ ; in [SCROLLH.INC] GetUser#:  Index = 0
0C18   01BA           02411         CLRF INDEX
  00000C19            02412 F6_000087 EQU $ ; in [SCROLLH.INC] REPEAT           'Get each employee
0C19                  02413 BC@LL120
  00000C19            02414 F6_000088 EQU $ ; in [SCROLLH.INC] B1 = EREAD CurrentLine + Index  'in the 3 byte history spots
0C19   0840           02415         MOVFW CURRENTLINE
0C1A   073A           02416         ADDWF INDEX,W
                      02417         F@CALL EE_RD
0C1D   00BD           02418         MOVWF B1
  00000C1E            02419 F6_000089 EQU $ ; in [SCROLLH.INC] CE[Index] = B1  'Get first digit of employee #
0C1E   083A           02420         MOVFW INDEX
0C1F   3E4A           02421         ADDLW CE
0C20   0084           02422         MOVWF FSR
0C21   083D           02423         MOVFW B1
0C22   0080           02424         MOVWF INDF
  00000C23            02425 F6_000090 EQU $ ; in [SCROLLH.INC] INC Index      'Get Next Digit
0C23   0ABA           02426         INCF INDEX,F
  00000C24            02427 F6_000091 EQU $ ; in [SCROLLH.INC] UNTIL Index > 2
0C24   3003           02428         MOVLW 3
0C25   023A           02429         SUBWF INDEX,W
                      02430         SET@PAGE BC@LL120
0C28   1C03           02431         BTFSS STATUS,0
0C29   2C19           02432         GOTO BC@LL120
0C2A                  02433 BC@LL121
  00000C2A            02434 F6_000092 EQU $ ; in [SCROLLH.INC] B1 = "C"
0C2A   3043           02435         MOVLW 67
0C2B   00BD           02436         MOVWF B1
  00000C2C            02437 F6_000093 EQU $ ; in [SCROLLH.INC] Return
0C2C   0008           02438         RETURN
  00000C2D            02439 F6_EOF EQU $ ; SCROLLH.INC
  00000C2D            02440 F7_SOF EQU $ ; CHECKUSER.INC
0C2D                  02441 CHECKUSER
  00000C2D            02442 F7_000003 EQU $ ; in [CHECKUSER.INC] CheckUser:    If NUA = 5 then 'there are no User entries in the table
0C2D   3005           02443         MOVLW 5
0C2E   025D           02444         SUBWF NUA,W
                      02445         SET@PAGE BC@LL123
0C31   1D03           02446         BTFSS STATUS,2
0C32   2C34           02447         GOTO BC@LL123
  00000C33            02448 F7_000004 EQU $ ; in [CHECKUSER.INC] Return
0C33   0008           02449         RETURN
  00000C34            02450 F7_000005 EQU $ ; in [CHECKUSER.INC] EndIf
0C34                  02451 BC@LL123
  00000C34            02452 F7_000007 EQU $ ; in [CHECKUSER.INC] ENDline = NUA   'Set Endline to first empty spot
0C34   085D           02453         MOVFW NUA
0C35   00C2           02454         MOVWF ENDLINE
  00000C36            02455 F7_000009 EQU $ ; in [CHECKUSER.INC] Index2 = 5   ' Start search in first memory spot
0C36   3005           02456         MOVLW 5
0C37   00BB           02457         MOVWF INDEX2
0C38                  02458 NEXTUSER
  00000C38            02459 F7_000010 EQU $ ; in [CHECKUSER.INC] NextUser:      For Index = 0 to 2   'Cycle through employee #
0C38   01BA           02460         CLRF INDEX
0C39                  02461 FR@LB125
0C39   3003           02462         MOVLW 3
0C3A   023A           02463         SUBWF INDEX,W
                      02464         SET@PAGE NX@LB126
0C3D   1803           02465         BTFSC STATUS,0
0C3E   2C61           02466         GOTO NX@LB126
  00000C3F            02467 F7_000011 EQU $ ; in [CHECKUSER.INC] Flag = 0    'If the User exists then we will set the Flag to 1
0C3F   103F           02468         BCF _B#VR1,0
  00000C40            02469 F7_000012 EQU $ ; in [CHECKUSER.INC] B1 = EREAD Index2 + Index
0C40   083B           02470         MOVFW INDEX2
0C41   073A           02471         ADDWF INDEX,W
                      02472         F@CALL EE_RD
0C44   00BD           02473         MOVWF B1
  00000C45            02474 F7_000013 EQU $ ; in [CHECKUSER.INC] If NOT B1 = CE[Index]then 'If any digit does not match then
0C45   083A           02475         MOVFW INDEX
0C46   3E4A           02476         ADDLW CE
0C47   0084           02477         MOVWF FSR
0C48   0800           02478         MOVFW INDF
0C49   00A9           02479         MOVWF PBP#VAR0
0C4A   083D           02480         MOVFW B1
0C4B   0229           02481         SUBWF PBP#VAR0,W
0C4C   1903           02482         BTFSC STATUS,2
0C4D   3001           02483         MOVLW 1
0C4E   1D03           02484         BTFSS STATUS,2
0C4F   0103           02485         CLRW
0C50   3C00           02486         SUBLW 0
                      02487         SET@PAGE BC@LL127
0C53   1D03           02488         BTFSS STATUS,2
0C54   2C5B           02489         GOTO BC@LL127
  00000C55            02490 F7_000014 EQU $ ; in [CHECKUSER.INC] Break           'Break out of For/Next loop
                      02491         F@JUMP NX@LB126
                      02492         F@JUMP BC@LL128
0C5B                  02493 BC@LL127
  00000C5B            02494 F7_000015 EQU $ ; in [CHECKUSER.INC] Else
  00000C5B            02495 F7_000016 EQU $ ; in [CHECKUSER.INC] Flag = 1 ' The digit Matches
0C5B   143F           02496         BSF _B#VR1,0
  00000C5C            02497 F7_000017 EQU $ ; in [CHECKUSER.INC] ENDIF
0C5C                  02498 BC@LL128
  00000C5C            02499 F7_000018 EQU $ ; in [CHECKUSER.INC] Next Index   'Look at the next digit
0C5C   0ABA           02500         INCF INDEX,F
                      02501         SET@PAGE FR@LB125
0C5F   1D03           02502         BTFSS STATUS,2
0C60   2C39           02503         GOTO FR@LB125
0C61                  02504 NX@LB126
  00000C61            02505 F7_000019 EQU $ ; in [CHECKUSER.INC] If Flag = 1 then Goto EmployeeExists
                      02506         SET@PAGE BC@LL130
0C63   1C3F           02507         BTFSS _B#VR1,0
0C64   2C68           02508         GOTO BC@LL130
                      02509         F@JUMP EMPLOYEEEXISTS
0C68                  02510 BC@LL130
  00000C68            02511 F7_000020 EQU $ ; in [CHECKUSER.INC] Index2 = Index2 + 8
0C68   3008           02512         MOVLW 8
0C69   07BB           02513         ADDWF INDEX2,F
  00000C6A            02514 F7_000021 EQU $ ; in [CHECKUSER.INC] If Index2 = Endline then Return
0C6A   083B           02515         MOVFW INDEX2
0C6B   0242           02516         SUBWF ENDLINE,W
                      02517         SET@PAGE BC@LL132
0C6E   1D03           02518         BTFSS STATUS,2
0C6F   2C71           02519         GOTO BC@LL132
0C70   0008           02520         RETURN
0C71                  02521 BC@LL132
  00000C71            02522 F7_000022 EQU $ ; in [CHECKUSER.INC] B1 = "C"
0C71   3043           02523         MOVLW 67
0C72   00BD           02524         MOVWF B1
  00000C73            02525 F7_000023 EQU $ ; in [CHECKUSER.INC] Goto NextUser
                      02526         F@JUMP NEXTUSER
0C76                  02527 EMPLOYEEEXISTS
  00000C76            02528 F7_000025 EQU $ ; in [CHECKUSER.INC] EmployeeExists:   Gosub BadSound
                      02529         F@CALL BADSOUND
  00000C79            02530 F7_000026 EQU $ ; in [CHECKUSER.INC] CLS
                      02531         F@CALL LCD@CLS
  00000C7B            02532 F7_000027 EQU $ ; in [CHECKUSER.INC] PRINT AT 1,1,"User Exists!"
0C7B   3080           02533         MOVLW 128
0C7C   00A1           02534         MOVWF BPFH
0C7D   3080           02535         MOVLW 128
                      02536         F@CALL LCD@CRS
0C80   3055           02537         MOVLW 'U'
                      02538         F@CALL PRINT
0C83   3073           02539         MOVLW 's'
                      02540         F@CALL PRINT
0C86   3065           02541         MOVLW 'e'
                      02542         F@CALL PRINT
0C89   3072           02543         MOVLW 'r'
                      02544         F@CALL PRINT
0C8C   3020           02545         MOVLW ' '
                      02546         F@CALL PRINT
0C8F   3045           02547         MOVLW 'E'
                      02548         F@CALL PRINT
0C92   3078           02549         MOVLW 'x'
                      02550         F@CALL PRINT
0C95   3069           02551         MOVLW 'i'
                      02552         F@CALL PRINT
0C98   3073           02553         MOVLW 's'
                      02554         F@CALL PRINT
0C9B   3074           02555         MOVLW 't'
                      02556         F@CALL PRINT
0C9E   3073           02557         MOVLW 's'
                      02558         F@CALL PRINT
0CA1   3021           02559         MOVLW '!'
                      02560         F@CALL PRINT
  00000CA4            02561 F7_000028 EQU $ ; in [CHECKUSER.INC] PRINT AT 2,1, "Delete User?"
0CA4   3080           02562         MOVLW 128
0CA5   00A1           02563         MOVWF BPFH
0CA6   30C0           02564         MOVLW 192
                      02565         F@CALL LCD@CRS
0CA9   3044           02566         MOVLW 'D'
                      02567         F@CALL PRINT
0CAC   3065           02568         MOVLW 'e'
                      02569         F@CALL PRINT
0CAF   306C           02570         MOVLW 'l'
                      02571         F@CALL PRINT
0CB2   3065           02572         MOVLW 'e'
                      02573         F@CALL PRINT
0CB5   3074           02574         MOVLW 't'
                      02575         F@CALL PRINT
0CB8   3065           02576         MOVLW 'e'
                      02577         F@CALL PRINT
0CBB   3020           02578         MOVLW ' '
                      02579         F@CALL PRINT
0CBE   3055           02580         MOVLW 'U'
                      02581         F@CALL PRINT
0CC1   3073           02582         MOVLW 's'
                      02583         F@CALL PRINT
0CC4   3065           02584         MOVLW 'e'
                      02585         F@CALL PRINT
0CC7   3072           02586         MOVLW 'r'
                      02587         F@CALL PRINT
0CCA   303F           02588         MOVLW '?'
                      02589         F@CALL PRINT
  00000CCD            02590 F7_000029 EQU $ ; in [CHECKUSER.INC] Print AT 1,17,"(1) = Yes"
0CCD   3080           02591         MOVLW 128
0CCE   00A1           02592         MOVWF BPFH
0CCF   3090           02593         MOVLW 144
                      02594         F@CALL LCD@CRS
0CD2   3028           02595         MOVLW '('
                      02596         F@CALL PRINT
0CD5   3031           02597         MOVLW '1'
                      02598         F@CALL PRINT
0CD8   3029           02599         MOVLW ')'
                      02600         F@CALL PRINT
0CDB   3020           02601         MOVLW ' '
                      02602         F@CALL PRINT
0CDE   303D           02603         MOVLW '='
                      02604         F@CALL PRINT
0CE1   3020           02605         MOVLW ' '
                      02606         F@CALL PRINT
0CE4   3059           02607         MOVLW 'Y'
                      02608         F@CALL PRINT
0CE7   3065           02609         MOVLW 'e'
                      02610         F@CALL PRINT
0CEA   3073           02611         MOVLW 's'
                      02612         F@CALL PRINT
  00000CED            02613 F7_000030 EQU $ ; in [CHECKUSER.INC] Print At 2,17,"(2) = No"
0CED   3080           02614         MOVLW 128
0CEE   00A1           02615         MOVWF BPFH
0CEF   30D0           02616         MOVLW 208
                      02617         F@CALL LCD@CRS
0CF2   3028           02618         MOVLW '('
                      02619         F@CALL PRINT
0CF5   3032           02620         MOVLW '2'
                      02621         F@CALL PRINT
0CF8   3029           02622         MOVLW ')'
                      02623         F@CALL PRINT
0CFB   3020           02624         MOVLW ' '
                      02625         F@CALL PRINT
0CFE   303D           02626         MOVLW '='
                      02627         F@CALL PRINT
0D01   3020           02628         MOVLW ' '
                      02629         F@CALL PRINT
0D04   304E           02630         MOVLW 'N'
                      02631         F@CALL PRINT
0D07   306F           02632         MOVLW 'o'
                      02633         F@CALL PRINT
  00000D0A            02634 F7_000031 EQU $ ; in [CHECKUSER.INC] GOSUB GetKey
                      02635         F@CALL GETKEY
  00000D0C            02636 F7_000032 EQU $ ; in [CHECKUSER.INC] Select Key
  00000D0C            02637 F7_000033 EQU $ ; in [CHECKUSER.INC] Case 2 'Choice was not to delete User
0D0C   3002           02638         MOVLW 2
0D0D   0261           02639         SUBWF KEY,W
                      02640         SET@PAGE BC@LL134
0D10   1D03           02641         BTFSS STATUS,2
0D11   2D18           02642         GOTO BC@LL134
  00000D12            02643 F7_000034 EQU $ ; in [CHECKUSER.INC] GoTo MainMenu  'Exit adding user
                      02644         F@JUMP MAINMENU
                      02645         F@JUMP BC@LL133
0D18                  02646 BC@LL134
  00000D18            02647 F7_000035 EQU $ ; in [CHECKUSER.INC] Case 1 'Yes, delete this user. We will add a new key for him
0D18   3001           02648         MOVLW 1
0D19   0261           02649         SUBWF KEY,W
                      02650         SET@PAGE BC@LL137
0D1C   1D03           02651         BTFSS STATUS,2
0D1D   2D24           02652         GOTO BC@LL137
  00000D1E            02653 F7_000036 EQU $ ; in [CHECKUSER.INC] Goto DeleteUser
                      02654         F@JUMP DELETEUSER
  00000D21            02655 F7_000037 EQU $ ; in [CHECKUSER.INC] Case Else 'Key was not 1 or 2"
                      02656         F@JUMP BC@LL139
0D24                  02657 BC@LL137
  00000D24            02658 F7_000038 EQU $ ; in [CHECKUSER.INC] Goto EmployeeExists
                      02659         F@JUMP EMPLOYEEEXISTS
  00000D27            02660 F7_000039 EQU $ ; in [CHECKUSER.INC] EndSelect
0D27                  02661 BC@LL139
0D27                  02662 BC@LL133
0D27                  02663 DELETEUSER
  00000D27            02664 F7_000041 EQU $ ; in [CHECKUSER.INC] DeleteUser:   If Index2  = EndLine - 8  then 'If the Employee# is the last one in the table then
0D27   30F8           02665         MOVLW LOW (-8)
0D28   0742           02666         ADDWF ENDLINE,W
0D29   00A9           02667         MOVWF PBP#VAR0
0D2A   30FF           02668         MOVLW LOW ((-8) >> 8)
0D2B   1803           02669         SKPNC
0D2C   3E01           02670         ADDLW 1
0D2D   00AA           02671         MOVWF PBP#VAR0H
0D2E   082A           02672         MOVFW PBP#VAR0H
                      02673         SET@PAGE BC@LL141
0D31   1D03           02674         BTFSS STATUS,2
0D32   2D46           02675         GOTO BC@LL141
0D33   0829           02676         MOVFW PBP#VAR0
0D34   023B           02677         SUBWF INDEX2,W
                      02678         SET@PAGE BC@LL141
0D37   1D03           02679         BTFSS STATUS,2
0D38   2D46           02680         GOTO BC@LL141
  00000D39            02681 F7_000042 EQU $ ; in [CHECKUSER.INC] NUA = NUA - 8 'remove last entry
0D39   3008           02682         MOVLW 8
0D3A   02DD           02683         SUBWF NUA,F
  00000D3B            02684 F7_000043 EQU $ ; in [CHECKUSER.INC] EWRITE 255, [NUA]    'Enter new next user address into pointer spot
0D3B   1703           02685         BSF STATUS,6
  00000002            02686 RAM_BANK = 2
0D3C   30FF           02687         MOVLW 255
0D3D   008D           02688         MOVWF EEADR
0D3E   1303           02689         BCF STATUS,6
  00000000            02690 RAM_BANK = 0
0D3F   085D           02691         MOVFW NUA
                      02692         F@CALL EE_WR
  00000D42            02693 F7_000044 EQU $ ; in [CHECKUSER.INC] Return
0D42   0008           02694         RETURN
                      02695         F@JUMP BC@LL142
0D46                  02696 BC@LL141
  00000D46            02697 F7_000045 EQU $ ; in [CHECKUSER.INC] Else
0D46                  02698 MOVESPOT
  00000D46            02699 F7_000046 EQU $ ; in [CHECKUSER.INC] MoveSpot:    NUA = NUA - 8
0D46   3008           02700         MOVLW 8
0D47   02DD           02701         SUBWF NUA,F
  00000D48            02702 F7_000047 EQU $ ; in [CHECKUSER.INC] EWRITE 255, [NUA]   'Enter new next user address into pointer spot
0D48   1703           02703         BSF STATUS,6
  00000002            02704 RAM_BANK = 2
0D49   30FF           02705         MOVLW 255
0D4A   008D           02706         MOVWF EEADR
0D4B   1303           02707         BCF STATUS,6
  00000000            02708 RAM_BANK = 0
0D4C   085D           02709         MOVFW NUA
                      02710         F@CALL EE_WR
  00000D4F            02711 F7_000049 EQU $ ; in [CHECKUSER.INC] For Index = 0 to 7
0D4F   01BA           02712         CLRF INDEX
0D50                  02713 FR@LB144
0D50   3008           02714         MOVLW 8
0D51   023A           02715         SUBWF INDEX,W
                      02716         SET@PAGE NX@LB145
0D54   1803           02717         BTFSC STATUS,0
0D55   2D68           02718         GOTO NX@LB145
  00000D56            02719 F7_000050 EQU $ ; in [CHECKUSER.INC] B1 = EREAD NUA + Index
0D56   085D           02720         MOVFW NUA
0D57   073A           02721         ADDWF INDEX,W
                      02722         F@CALL EE_RD
0D5A   00BD           02723         MOVWF B1
  00000D5B            02724 F7_000051 EQU $ ; in [CHECKUSER.INC] EWRITE Index2 + Index, [B1]
0D5B   083B           02725         MOVFW INDEX2
0D5C   073A           02726         ADDWF INDEX,W
0D5D   1703           02727         BSF STATUS,6
  00000002            02728 RAM_BANK = 2
0D5E   008D           02729         MOVWF EEADR
0D5F   1303           02730         BCF STATUS,6
  00000000            02731 RAM_BANK = 0
0D60   083D           02732         MOVFW B1
                      02733         F@CALL EE_WR
  00000D63            02734 F7_000052 EQU $ ; in [CHECKUSER.INC] Next
0D63   0ABA           02735         INCF INDEX,F
                      02736         SET@PAGE FR@LB144
0D66   1D03           02737         BTFSS STATUS,2
0D67   2D50           02738         GOTO FR@LB144
0D68                  02739 NX@LB145
  00000D68            02740 F7_000053 EQU $ ; in [CHECKUSER.INC] B1 = "C"
0D68   3043           02741         MOVLW 67
0D69   00BD           02742         MOVWF B1
  00000D6A            02743 F7_000054 EQU $ ; in [CHECKUSER.INC] Return
0D6A   0008           02744         RETURN
  00000D6B            02745 F7_000055 EQU $ ; in [CHECKUSER.INC] ENDIF
0D6B                  02746 BC@LL142
  00000D6B            02747 F7_EOF EQU $ ; CHECKUSER.INC
  00000D6B            02748 F8_SOF EQU $ ; CHECKTAG.INC
0D6B                  02749 CHECKTAG
  00000D6B            02750 F8_000004 EQU $ ; in [CHECKTAG.INC] CheckTag:    Flag = 0        'Process will set Flag to 1 if Tag is found
0D6B   103F           02751         BCF _B#VR1,0
  00000D6C            02752 F8_000005 EQU $ ; in [CHECKTAG.INC] If NUA = 5 then    'there are no User entries in the table
0D6C   3005           02753         MOVLW 5
0D6D   025D           02754         SUBWF NUA,W
                      02755         SET@PAGE BC@LL146
0D70   1D03           02756         BTFSS STATUS,2
0D71   2D73           02757         GOTO BC@LL146
  00000D72            02758 F8_000006 EQU $ ; in [CHECKTAG.INC] Return
0D72   0008           02759         RETURN
  00000D73            02760 F8_000007 EQU $ ; in [CHECKTAG.INC] EndIf
0D73                  02761 BC@LL146
  00000D73            02762 F8_000008 EQU $ ; in [CHECKTAG.INC] ENDline = NUA   'Set Endline to first empty spot
0D73   085D           02763         MOVFW NUA
0D74   00C2           02764         MOVWF ENDLINE
  00000D75            02765 F8_000009 EQU $ ; in [CHECKTAG.INC] Index2 = 5   ' Start search in first user memory spot
0D75   3005           02766         MOVLW 5
0D76   00BB           02767         MOVWF INDEX2
0D77                  02768 NEXTTAG
  00000D77            02769 F8_000010 EQU $ ; in [CHECKTAG.INC] NextTag:  Index = 0
0D77   01BA           02770         CLRF INDEX
  00000D78            02771 F8_000011 EQU $ ; in [CHECKTAG.INC] Flag = 0     'Process will set Flag to 1 if Tag is found
0D78   103F           02772         BCF _B#VR1,0
  00000D79            02773 F8_000012 EQU $ ; in [CHECKTAG.INC] REPEAT      'Repeat until all Tag digits are checked
0D79                  02774 BC@LL147
  00000D79            02775 F8_000013 EQU $ ; in [CHECKTAG.INC] B1 = EREAD TagOffset + Index2 + Index   'TagOffset jumps over User #
0D79   083C           02776         MOVFW TAGOFFSET
0D7A   073B           02777         ADDWF INDEX2,W
0D7B   00B8           02778         MOVWF PP7
0D7C   01B9           02779         CLRF PP7H
0D7D   0DB9           02780         RLF PP7H,F
0D7E   083A           02781         MOVFW INDEX
0D7F   0738           02782         ADDWF PP7,W
                      02783         F@CALL EE_RD
0D82   00BD           02784         MOVWF B1
  00000D83            02785 F8_000014 EQU $ ; in [CHECKTAG.INC] If B1 = CT[Index] then
0D83   083A           02786         MOVFW INDEX
0D84   3E57           02787         ADDLW CT
0D85   0084           02788         MOVWF FSR
0D86   0800           02789         MOVFW INDF
0D87   00A9           02790         MOVWF PBP#VAR0
0D88   083D           02791         MOVFW B1
0D89   0229           02792         SUBWF PBP#VAR0,W
                      02793         SET@PAGE BC@LL150
0D8C   1D03           02794         BTFSS STATUS,2
0D8D   2D93           02795         GOTO BC@LL150
  00000D8E            02796 F8_000015 EQU $ ; in [CHECKTAG.INC] Flag = 1      'Digits Match
0D8E   143F           02797         BSF _B#VR1,0
  00000D8F            02798 F8_000016 EQU $ ; in [CHECKTAG.INC] INC Index      'Check Next Digit
0D8F   0ABA           02799         INCF INDEX,F
                      02800         F@JUMP BC@LL151
0D93                  02801 BC@LL150
  00000D93            02802 F8_000017 EQU $ ; in [CHECKTAG.INC] Else
  00000D93            02803 F8_000018 EQU $ ; in [CHECKTAG.INC] Flag = 0     'Digit does not match, therefore
0D93   103F           02804         BCF _B#VR1,0
  00000D94            02805 F8_000019 EQU $ ; in [CHECKTAG.INC] Index = 5  'we are finished with this Tag
0D94   3005           02806         MOVLW 5
0D95   00BA           02807         MOVWF INDEX
  00000D96            02808 F8_000020 EQU $ ; in [CHECKTAG.INC] ENDIF
0D96                  02809 BC@LL151
  00000D96            02810 F8_000021 EQU $ ; in [CHECKTAG.INC] UNTIL Index > 4
0D96   3005           02811         MOVLW 5
0D97   023A           02812         SUBWF INDEX,W
                      02813         SET@PAGE BC@LL147
0D9A   1C03           02814         BTFSS STATUS,0
0D9B   2D79           02815         GOTO BC@LL147
0D9C                  02816 BC@LL148
  00000D9C            02817 F8_000022 EQU $ ; in [CHECKTAG.INC] If Flag = 1 then Return
                      02818         SET@PAGE BC@LL153
0D9E   1C3F           02819         BTFSS _B#VR1,0
0D9F   2DA1           02820         GOTO BC@LL153
0DA0   0008           02821         RETURN
0DA1                  02822 BC@LL153
  00000DA1            02823 F8_000023 EQU $ ; in [CHECKTAG.INC] B1 = "C"
0DA1   3043           02824         MOVLW 67
0DA2   00BD           02825         MOVWF B1
  00000DA3            02826 F8_000024 EQU $ ; in [CHECKTAG.INC] Index2 = Index2 + 8
0DA3   3008           02827         MOVLW 8
0DA4   07BB           02828         ADDWF INDEX2,F
  00000DA5            02829 F8_000025 EQU $ ; in [CHECKTAG.INC] If Index2 = Endline then Return
0DA5   083B           02830         MOVFW INDEX2
0DA6   0242           02831         SUBWF ENDLINE,W
                      02832         SET@PAGE BC@LL155
0DA9   1D03           02833         BTFSS STATUS,2
0DAA   2DAC           02834         GOTO BC@LL155
0DAB   0008           02835         RETURN
0DAC                  02836 BC@LL155
  00000DAC            02837 F8_000026 EQU $ ; in [CHECKTAG.INC] B1 = "C"
0DAC   3043           02838         MOVLW 67
0DAD   00BD           02839         MOVWF B1
  00000DAE            02840 F8_000027 EQU $ ; in [CHECKTAG.INC] Goto NextTag
                      02841         F@JUMP NEXTTAG
  00000DB1            02842 F8_EOF EQU $ ; CHECKTAG.INC
  00000DB1            02843 F9_SOF EQU $ ; READTAG.INC
0DB1                  02844 READTAG
  00000DB1            02845 F9_000002 EQU $ ; in [READTAG.INC] ReadTag:  CLS
                      02846         F@CALL LCD@CLS
  00000DB3            02847 F9_000003 EQU $ ; in [READTAG.INC] Print AT 1,1, "To Scan Tag"
0DB3   3080           02848         MOVLW 128
0DB4   00A1           02849         MOVWF BPFH
0DB5   3080           02850         MOVLW 128
                      02851         F@CALL LCD@CRS
0DB8   3054           02852         MOVLW 'T'
                      02853         F@CALL PRINT
0DBB   306F           02854         MOVLW 'o'
                      02855         F@CALL PRINT
0DBE   3020           02856         MOVLW ' '
                      02857         F@CALL PRINT
0DC1   3053           02858         MOVLW 'S'
                      02859         F@CALL PRINT
0DC4   3063           02860         MOVLW 'c'
                      02861         F@CALL PRINT
0DC7   3061           02862         MOVLW 'a'
                      02863         F@CALL PRINT
0DCA   306E           02864         MOVLW 'n'
                      02865         F@CALL PRINT
0DCD   3020           02866         MOVLW ' '
                      02867         F@CALL PRINT
0DD0   3054           02868         MOVLW 'T'
                      02869         F@CALL PRINT
0DD3   3061           02870         MOVLW 'a'
                      02871         F@CALL PRINT
0DD6   3067           02872         MOVLW 'g'
                      02873         F@CALL PRINT
  00000DD9            02874 F9_000004 EQU $ ; in [READTAG.INC] Print AT 2,1, "press ENTER when"
0DD9   3080           02875         MOVLW 128
0DDA   00A1           02876         MOVWF BPFH
0DDB   30C0           02877         MOVLW 192
                      02878         F@CALL LCD@CRS
0DDE   3070           02879         MOVLW 'p'
                      02880         F@CALL PRINT
0DE1   3072           02881         MOVLW 'r'
                      02882         F@CALL PRINT
0DE4   3065           02883         MOVLW 'e'
                      02884         F@CALL PRINT
0DE7   3073           02885         MOVLW 's'
                      02886         F@CALL PRINT
                      02887         F@CALL PRINT
0DEC   3020           02888         MOVLW ' '
                      02889         F@CALL PRINT
0DEF   3045           02890         MOVLW 'E'
                      02891         F@CALL PRINT
0DF2   304E           02892         MOVLW 'N'
                      02893         F@CALL PRINT
0DF5   3054           02894         MOVLW 'T'
                      02895         F@CALL PRINT
0DF8   3045           02896         MOVLW 'E'
                      02897         F@CALL PRINT
0DFB   3052           02898         MOVLW 'R'
                      02899         F@CALL PRINT
0DFE   3020           02900         MOVLW ' '
                      02901         F@CALL PRINT
0E01   3077           02902         MOVLW 'w'
                      02903         F@CALL PRINT
0E04   3068           02904         MOVLW 'h'
                      02905         F@CALL PRINT
0E07   3065           02906         MOVLW 'e'
                      02907         F@CALL PRINT
0E0A   306E           02908         MOVLW 'n'
                      02909         F@CALL PRINT
  00000E0D            02910 F9_000005 EQU $ ; in [READTAG.INC] Print AT 1,17, "ready"
0E0D   3080           02911         MOVLW 128
0E0E   00A1           02912         MOVWF BPFH
0E0F   3090           02913         MOVLW 144
                      02914         F@CALL LCD@CRS
0E12   3072           02915         MOVLW 'r'
                      02916         F@CALL PRINT
0E15   3065           02917         MOVLW 'e'
                      02918         F@CALL PRINT
0E18   3061           02919         MOVLW 'a'
                      02920         F@CALL PRINT
0E1B   3064           02921         MOVLW 'd'
                      02922         F@CALL PRINT
0E1E   3079           02923         MOVLW 'y'
                      02924         F@CALL PRINT
  00000E21            02925 F9_000006 EQU $ ; in [READTAG.INC] Print AT 2,17, "CLEAR to Cancel"
0E21   3080           02926         MOVLW 128
0E22   00A1           02927         MOVWF BPFH
0E23   30D0           02928         MOVLW 208
                      02929         F@CALL LCD@CRS
0E26   3043           02930         MOVLW 'C'
                      02931         F@CALL PRINT
0E29   304C           02932         MOVLW 'L'
                      02933         F@CALL PRINT
0E2C   3045           02934         MOVLW 'E'
                      02935         F@CALL PRINT
0E2F   3041           02936         MOVLW 'A'
                      02937         F@CALL PRINT
0E32   3052           02938         MOVLW 'R'
                      02939         F@CALL PRINT
0E35   3020           02940         MOVLW ' '
                      02941         F@CALL PRINT
0E38   3074           02942         MOVLW 't'
                      02943         F@CALL PRINT
0E3B   306F           02944         MOVLW 'o'
                      02945         F@CALL PRINT
0E3E   3020           02946         MOVLW ' '
                      02947         F@CALL PRINT
0E41   3043           02948         MOVLW 'C'
                      02949         F@CALL PRINT
0E44   3061           02950         MOVLW 'a'
                      02951         F@CALL PRINT
0E47   306E           02952         MOVLW 'n'
                      02953         F@CALL PRINT
0E4A   3063           02954         MOVLW 'c'
                      02955         F@CALL PRINT
0E4D   3065           02956         MOVLW 'e'
                      02957         F@CALL PRINT
0E50   306C           02958         MOVLW 'l'
                      02959         F@CALL PRINT
  00000E53            02960 F9_000008 EQU $ ; in [READTAG.INC] Gosub GetKey
                      02961         F@CALL GETKEY
  00000E55            02962 F9_000009 EQU $ ; in [READTAG.INC] Select Key
  00000E55            02963 F9_000010 EQU $ ; in [READTAG.INC] Case "C"
0E55   3043           02964         MOVLW 67
0E56   0261           02965         SUBWF KEY,W
                      02966         SET@PAGE BC@LL157
0E59   1D03           02967         BTFSS STATUS,2
0E5A   2E61           02968         GOTO BC@LL157
  00000E5B            02969 F9_000011 EQU $ ; in [READTAG.INC] GoTo Mainmenu   'User chose to cancel
                      02970         F@JUMP MAINMENU
                      02971         F@JUMP BC@LL156
0E61                  02972 BC@LL157
  00000E61            02973 F9_000012 EQU $ ; in [READTAG.INC] Case "E"    'User is ready to have tag read
0E61   3045           02974         MOVLW 69
0E62   0261           02975         SUBWF KEY,W
                      02976         SET@PAGE BC@LL160
0E65   1D03           02977         BTFSS STATUS,2
0E66   2F71           02978         GOTO BC@LL160
  00000E67            02979 F9_000013 EQU $ ; in [READTAG.INC] CLS
                      02980         F@CALL LCD@CLS
  00000E69            02981 F9_000014 EQU $ ; in [READTAG.INC] Print AT 1,1, "Attempting to"
0E69   3080           02982         MOVLW 128
0E6A   00A1           02983         MOVWF BPFH
0E6B   3080           02984         MOVLW 128
                      02985         F@CALL LCD@CRS
0E6E   3041           02986         MOVLW 'A'
                      02987         F@CALL PRINT
0E71   3074           02988         MOVLW 't'
                      02989         F@CALL PRINT
                      02990         F@CALL PRINT
0E76   3065           02991         MOVLW 'e'
                      02992         F@CALL PRINT
0E79   306D           02993         MOVLW 'm'
                      02994         F@CALL PRINT
0E7C   3070           02995         MOVLW 'p'
                      02996         F@CALL PRINT
0E7F   3074           02997         MOVLW 't'
                      02998         F@CALL PRINT
0E82   3069           02999         MOVLW 'i'
                      03000         F@CALL PRINT
0E85   306E           03001         MOVLW 'n'
                      03002         F@CALL PRINT
0E88   3067           03003         MOVLW 'g'
                      03004         F@CALL PRINT
0E8B   3020           03005         MOVLW ' '
                      03006         F@CALL PRINT
0E8E   3074           03007         MOVLW 't'
                      03008         F@CALL PRINT
0E91   306F           03009         MOVLW 'o'
                      03010         F@CALL PRINT
  00000E94            03011 F9_000015 EQU $ ; in [READTAG.INC] Print AT 2,1, "read Tag...."
0E94   3080           03012         MOVLW 128
0E95   00A1           03013         MOVWF BPFH
0E96   30C0           03014         MOVLW 192
                      03015         F@CALL LCD@CRS
0E99   3072           03016         MOVLW 'r'
                      03017         F@CALL PRINT
0E9C   3065           03018         MOVLW 'e'
                      03019         F@CALL PRINT
0E9F   3061           03020         MOVLW 'a'
                      03021         F@CALL PRINT
0EA2   3064           03022         MOVLW 'd'
                      03023         F@CALL PRINT
0EA5   3020           03024         MOVLW ' '
                      03025         F@CALL PRINT
0EA8   3054           03026         MOVLW 'T'
                      03027         F@CALL PRINT
0EAB   3061           03028         MOVLW 'a'
                      03029         F@CALL PRINT
0EAE   3067           03030         MOVLW 'g'
                      03031         F@CALL PRINT
0EB1   302E           03032         MOVLW '.'
                      03033         F@CALL PRINT
                      03034         F@CALL PRINT
                      03035         F@CALL PRINT
                      03036         F@CALL PRINT
0EBA                  03037 READAGAIN
  00000EBA            03038 F9_000017 EQU $ ; in [READTAG.INC] ReadAgain: Flag = 0       'Used to indicate a good read
0EBA   103F           03039         BCF _B#VR1,0
  00000EBB            03040 F9_000018 EQU $ ; in [READTAG.INC] LOW RFIDEnable        ' Turn on RFID Reader
0EBB   1208           03041         BCF PORTD,4
0EBC   1683           03042         BSF STATUS,5
  00000001            03043 RAM_BANK = 1
0EBD   1208           03044         BCF TRISD,4
  00000EBE            03045 F9_000019 EQU $ ; in [READTAG.INC] Pause 10    'Time for Reader to settle
0EBE   300A           03046         MOVLW 10
0EBF   1283           03047         BCF STATUS,5
  00000000            03048 RAM_BANK = 0
                      03049         F@CALL DL@MS
  00000EC2            03050 F9_000020 EQU $ ; in [READTAG.INC] HSERIN 30000, Timeout, [WAIT( 0x0A ) , STR TagIN] 'timeout in 30 sec
0EC2   3075           03051         MOVLW 117
0EC3   00A6           03052         MOVWF GENH
0EC4   3030           03053         MOVLW 48
0EC5   00A2           03054         MOVWF GEN
0EC6                  03055 PB@LB162
                      03056         F@CALL HRSIN2
                      03057         SET@PAGE TIMEOUT
0ECA   1C03           03058         BTFSS STATUS,0
0ECB   2F2B           03059         GOTO TIMEOUT
0ECC   3C0A           03060         SUBLW 10
                      03061         SET@PAGE PB@LB162
0ECF   1D03           03062         BTFSS STATUS,2
0ED0   2EC6           03063         GOTO PB@LB162
0ED1   01A9           03064         CLRF PBP#VAR0
0ED2                  03065 PB@LB165
0ED2   1403           03066         SETC
                      03067         F@CALL HRSIN2
                      03068         SET@PAGE TIMEOUT
0ED7   1C03           03069         BTFSS STATUS,0
0ED8   2F2B           03070         GOTO TIMEOUT
0ED9   0829           03071         MOVFW PBP#VAR0
0EDA   3E4D           03072         ADDLW TAGIN
0EDB   0084           03073         MOVWF FSR
0EDC   081A           03074         MOVFW RCREG
0EDD   0080           03075         MOVWF INDF
0EDE   0AA9           03076         INCF PBP#VAR0,F
0EDF   0829           03077         MOVFW PBP#VAR0
0EE0   3C0A           03078         SUBLW 10
                      03079         SET@PAGE PB@LB165
0EE3   1D03           03080         BTFSS STATUS,2
0EE4   2ED2           03081         GOTO PB@LB165
  00000EE5            03082 F9_000021 EQU $ ; in [READTAG.INC] HSERIN [Footer]' Receive a byte serially into Footer
                      03083         F@CALL HRSIN
0EE7   00DC           03084         MOVWF FOOTER
  00000EE8            03085 F9_000023 EQU $ ; in [READTAG.INC] If Footer = 0x0D then   'The footer (last byte) should always be 0X0D
0EE8   300D           03086         MOVLW 13
0EE9   025C           03087         SUBWF FOOTER,W
                      03088         SET@PAGE BC@LL166
0EEC   1D03           03089         BTFSS STATUS,2
0EED   2F24           03090         GOTO BC@LL166
  00000EEE            03091 F9_000024 EQU $ ; in [READTAG.INC] High RFIDEnable  ' Turn off RFID Reader
0EEE   1608           03092         BSF PORTD,4
0EEF   1683           03093         BSF STATUS,5
  00000001            03094 RAM_BANK = 1
0EF0   1208           03095         BCF TRISD,4
  00000EF1            03096 F9_000025 EQU $ ; in [READTAG.INC] Flag = 1   'Tag was read OK
0EF1   1283           03097         BCF STATUS,5
  00000000            03098 RAM_BANK = 0
0EF2   143F           03099         BSF _B#VR1,0
  00000EF3            03100 F9_000026 EQU $ ; in [READTAG.INC] B1 = TagIN[0] + TagIN[1]     'We combine each pair of digits into 1... we can do this
0EF3   084D           03101         MOVFW TAGIN#0
0EF4   00A9           03102         MOVWF PBP#VAR0
0EF5   084E           03103         MOVFW TAGIN#1
0EF6   00AB           03104         MOVWF PBP#VAR1
0EF7   0829           03105         MOVFW PBP#VAR0
0EF8   072B           03106         ADDWF PBP#VAR1,W
0EF9   00BD           03107         MOVWF B1
  00000EFA            03108 F9_000027 EQU $ ; in [READTAG.INC] CT[0] = B1         ' because each digit is always less than 128 bits so
0EFA   083D           03109         MOVFW B1
0EFB   00D7           03110         MOVWF CT#0
  00000EFC            03111 F9_000028 EQU $ ; in [READTAG.INC] B1 = TagIN[2] + TagIN[3]   ' by adding 2 together we never exceed the 256 bit maximum
0EFC   084F           03112         MOVFW TAGIN#2
0EFD   00A9           03113         MOVWF PBP#VAR0
0EFE   0850           03114         MOVFW TAGIN#3
0EFF   00AB           03115         MOVWF PBP#VAR1
0F00   0829           03116         MOVFW PBP#VAR0
0F01   072B           03117         ADDWF PBP#VAR1,W
0F02   00BD           03118         MOVWF B1
  00000F03            03119 F9_000029 EQU $ ; in [READTAG.INC] CT[1] = B1         ' This saves space for data storage when we write the tags numbers
0F03   083D           03120         MOVFW B1
0F04   00D8           03121         MOVWF CT#1
  00000F05            03122 F9_000030 EQU $ ; in [READTAG.INC] B1 = TagIN[4] + TagIN[5]   ' to the flash memeory
0F05   0851           03123         MOVFW TAGIN#4
0F06   00A9           03124         MOVWF PBP#VAR0
0F07   0852           03125         MOVFW TAGIN#5
0F08   00AB           03126         MOVWF PBP#VAR1
0F09   0829           03127         MOVFW PBP#VAR0
0F0A   072B           03128         ADDWF PBP#VAR1,W
0F0B   00BD           03129         MOVWF B1
  00000F0C            03130 F9_000031 EQU $ ; in [READTAG.INC] CT[2] = B1
0F0C   083D           03131         MOVFW B1
0F0D   00D9           03132         MOVWF CT#2
  00000F0E            03133 F9_000032 EQU $ ; in [READTAG.INC] B1 = TagIN[6] + TagIN[7]
0F0E   0853           03134         MOVFW TAGIN#6
0F0F   00A9           03135         MOVWF PBP#VAR0
0F10   0854           03136         MOVFW TAGIN#7
0F11   00AB           03137         MOVWF PBP#VAR1
0F12   0829           03138         MOVFW PBP#VAR0
0F13   072B           03139         ADDWF PBP#VAR1,W
0F14   00BD           03140         MOVWF B1
  00000F15            03141 F9_000033 EQU $ ; in [READTAG.INC] CT[3] = B1
0F15   083D           03142         MOVFW B1
0F16   00DA           03143         MOVWF CT#3
  00000F17            03144 F9_000034 EQU $ ; in [READTAG.INC] B1 = TagIN[8] + TagIN[9]
0F17   0855           03145         MOVFW TAGIN#8
0F18   00A9           03146         MOVWF PBP#VAR0
0F19   0856           03147         MOVFW TAGIN#9
0F1A   00AB           03148         MOVWF PBP#VAR1
0F1B   0829           03149         MOVFW PBP#VAR0
0F1C   072B           03150         ADDWF PBP#VAR1,W
0F1D   00BD           03151         MOVWF B1
  00000F1E            03152 F9_000035 EQU $ ; in [READTAG.INC] CT[4] = B1
0F1E   083D           03153         MOVFW B1
0F1F   00DB           03154         MOVWF CT#4
  00000F20            03155 F9_000036 EQU $ ; in [READTAG.INC] Return
0F20   0008           03156         RETURN
                      03157         F@JUMP BC@LL167
0F24                  03158 BC@LL166
  00000F24            03159 F9_000037 EQU $ ; in [READTAG.INC] Else           'Footer not right
  00000F24            03160 F9_000038 EQU $ ; in [READTAG.INC] High RFIDEnable    ' Turn off RFID Reader
0F24   1608           03161         BSF PORTD,4
0F25   1683           03162         BSF STATUS,5
  00000001            03163 RAM_BANK = 1
0F26   1208           03164         BCF TRISD,4
  00000F27            03165 F9_000039 EQU $ ; in [READTAG.INC] Goto ReadAgain   'Read was not good..Try again
0F27   1283           03166         BCF STATUS,5
  00000000            03167 RAM_BANK = 0
                      03168         F@JUMP READAGAIN
  00000F2B            03169 F9_000040 EQU $ ; in [READTAG.INC] End if
0F2B                  03170 BC@LL167
0F2B                  03171 TIMEOUT
  00000F2B            03172 F9_000043 EQU $ ; in [READTAG.INC] Timeout: High RFIDEnable       ' Turn off RFID Reader ..No Tag detected for 10 sec
0F2B   1608           03173         BSF PORTD,4
0F2C   1683           03174         BSF STATUS,5
  00000001            03175 RAM_BANK = 1
0F2D   1208           03176         BCF TRISD,4
  00000F2E            03177 F9_000044 EQU $ ; in [READTAG.INC] Gosub BadSound
0F2E   1283           03178         BCF STATUS,5
  00000000            03179 RAM_BANK = 0
                      03180         F@CALL BADSOUND
  00000F32            03181 F9_000045 EQU $ ; in [READTAG.INC] CLS
                      03182         F@CALL LCD@CLS
  00000F34            03183 F9_000046 EQU $ ; in [READTAG.INC] Print at 1,1, "No Tag Detected"
0F34   3080           03184         MOVLW 128
0F35   00A1           03185         MOVWF BPFH
0F36   3080           03186         MOVLW 128
                      03187         F@CALL LCD@CRS
0F39   304E           03188         MOVLW 'N'
                      03189         F@CALL PRINT
0F3C   306F           03190         MOVLW 'o'
                      03191         F@CALL PRINT
0F3F   3020           03192         MOVLW ' '
                      03193         F@CALL PRINT
0F42   3054           03194         MOVLW 'T'
                      03195         F@CALL PRINT
0F45   3061           03196         MOVLW 'a'
                      03197         F@CALL PRINT
0F48   3067           03198         MOVLW 'g'
                      03199         F@CALL PRINT
0F4B   3020           03200         MOVLW ' '
                      03201         F@CALL PRINT
0F4E   3044           03202         MOVLW 'D'
                      03203         F@CALL PRINT
0F51   3065           03204         MOVLW 'e'
                      03205         F@CALL PRINT
0F54   3074           03206         MOVLW 't'
                      03207         F@CALL PRINT
0F57   3065           03208         MOVLW 'e'
                      03209         F@CALL PRINT
0F5A   3063           03210         MOVLW 'c'
                      03211         F@CALL PRINT
0F5D   3074           03212         MOVLW 't'
                      03213         F@CALL PRINT
0F60   3065           03214         MOVLW 'e'
                      03215         F@CALL PRINT
0F63   3064           03216         MOVLW 'd'
                      03217         F@CALL PRINT
  00000F66            03218 F9_000047 EQU $ ; in [READTAG.INC] Pause 3000
0F66   300B           03219         MOVLW 11
0F67   00AF           03220         MOVWF PP1H
0F68   30B8           03221         MOVLW 184
                      03222         F@CALL DLY@W
  00000F6B            03223 F9_000048 EQU $ ; in [READTAG.INC] Goto GoSleep
                      03224         F@JUMP GOSLEEP
  00000F6E            03225 F9_000049 EQU $ ; in [READTAG.INC] Case ELSE
                      03226         F@JUMP BC@LL169
0F71                  03227 BC@LL160
  00000F71            03228 F9_000050 EQU $ ; in [READTAG.INC] Goto ReadTag   'wrong key pressed on keypad
                      03229         F@JUMP READTAG
  00000F74            03230 F9_000051 EQU $ ; in [READTAG.INC] ENDSELECT
0F74                  03231 BC@LL169
0F74                  03232 BC@LL156
  00000F74            03233 F9_EOF EQU $ ; READTAG.INC
  00000F74            03234 F10_SOF EQU $ ; WRITE.INC
0F74                  03235 WRITETAG
  00000F74            03236 F10_000003 EQU $ ; in [WRITE.INC] WriteTag:     For Index = 0 to 2
0F74   01BA           03237         CLRF INDEX
0F75                  03238 FR@LB171
0F75   3003           03239         MOVLW 3
0F76   023A           03240         SUBWF INDEX,W
                      03241         SET@PAGE NX@LB172
0F79   1803           03242         BTFSC STATUS,0
0F7A   2F8D           03243         GOTO NX@LB172
  00000F7B            03244 F10_000004 EQU $ ; in [WRITE.INC] B1 = CE[Index]
0F7B   083A           03245         MOVFW INDEX
0F7C   3E4A           03246         ADDLW CE
0F7D   0084           03247         MOVWF FSR
0F7E   0800           03248         MOVFW INDF
0F7F   00BD           03249         MOVWF B1
  00000F80            03250 F10_000005 EQU $ ; in [WRITE.INC] EWRITE NUA + Index, [B1]
0F80   085D           03251         MOVFW NUA
0F81   073A           03252         ADDWF INDEX,W
0F82   1703           03253         BSF STATUS,6
  00000002            03254 RAM_BANK = 2
0F83   008D           03255         MOVWF EEADR
0F84   1303           03256         BCF STATUS,6
  00000000            03257 RAM_BANK = 0
0F85   083D           03258         MOVFW B1
                      03259         F@CALL EE_WR
  00000F88            03260 F10_000006 EQU $ ; in [WRITE.INC] Next 'Index
0F88   0ABA           03261         INCF INDEX,F
                      03262         SET@PAGE FR@LB171
0F8B   1D03           03263         BTFSS STATUS,2
0F8C   2F75           03264         GOTO FR@LB171
0F8D                  03265 NX@LB172
  00000F8D            03266 F10_000008 EQU $ ; in [WRITE.INC] For Index = 0 to 4
0F8D   01BA           03267         CLRF INDEX
0F8E                  03268 FR@LB173
0F8E   3005           03269         MOVLW 5
0F8F   023A           03270         SUBWF INDEX,W
                      03271         SET@PAGE NX@LB174
0F92   1803           03272         BTFSC STATUS,0
0F93   2FAB           03273         GOTO NX@LB174
  00000F94            03274 F10_000009 EQU $ ; in [WRITE.INC] B1 = CT[Index]
0F94   083A           03275         MOVFW INDEX
0F95   3E57           03276         ADDLW CT
0F96   0084           03277         MOVWF FSR
0F97   0800           03278         MOVFW INDF
0F98   00BD           03279         MOVWF B1
  00000F99            03280 F10_000010 EQU $ ; in [WRITE.INC] EWRITE NUA + TagOffset + Index, [B1]
0F99   085D           03281         MOVFW NUA
0F9A   073C           03282         ADDWF TAGOFFSET,W
0F9B   00B8           03283         MOVWF PP7
0F9C   01B9           03284         CLRF PP7H
0F9D   0DB9           03285         RLF PP7H,F
0F9E   083A           03286         MOVFW INDEX
0F9F   0738           03287         ADDWF PP7,W
0FA0   1703           03288         BSF STATUS,6
  00000002            03289 RAM_BANK = 2
0FA1   008D           03290         MOVWF EEADR
0FA2   1303           03291         BCF STATUS,6
  00000000            03292 RAM_BANK = 0
0FA3   083D           03293         MOVFW B1
                      03294         F@CALL EE_WR
  00000FA6            03295 F10_000011 EQU $ ; in [WRITE.INC] Next 'Index
0FA6   0ABA           03296         INCF INDEX,F
                      03297         SET@PAGE FR@LB173
0FA9   1D03           03298         BTFSS STATUS,2
0FAA   2F8E           03299         GOTO FR@LB173
0FAB                  03300 NX@LB174
  00000FAB            03301 F10_000012 EQU $ ; in [WRITE.INC] B1 = "C"
0FAB   3043           03302         MOVLW 67
0FAC   00BD           03303         MOVWF B1
  00000FAD            03304 F10_000014 EQU $ ; in [WRITE.INC] NUA = NUA + 8
0FAD   3008           03305         MOVLW 8
0FAE   07DD           03306         ADDWF NUA,F
  00000FAF            03307 F10_000015 EQU $ ; in [WRITE.INC] EWRITE 255, [NUA]
0FAF   1703           03308         BSF STATUS,6
  00000002            03309 RAM_BANK = 2
0FB0   30FF           03310         MOVLW 255
0FB1   008D           03311         MOVWF EEADR
0FB2   1303           03312         BCF STATUS,6
  00000000            03313 RAM_BANK = 0
0FB3   085D           03314         MOVFW NUA
                      03315         F@CALL EE_WR
  00000FB6            03316 F10_000016 EQU $ ; in [WRITE.INC] Return
0FB6   0008           03317         RETURN
0FB7                  03318 WRITEMASTER
  00000FB7            03319 F10_000019 EQU $ ; in [WRITE.INC] For Index = 0 to 4
0FB7   01BA           03320         CLRF INDEX
0FB8                  03321 FR@LB175
0FB8   3005           03322         MOVLW 5
0FB9   023A           03323         SUBWF INDEX,W
                      03324         SET@PAGE NX@LB176
0FBC   1803           03325         BTFSC STATUS,0
0FBD   2FCD           03326         GOTO NX@LB176
  00000FBE            03327 F10_000020 EQU $ ; in [WRITE.INC] EWRITE Index, [CT[Index]]
0FBE   083A           03328         MOVFW INDEX
0FBF   1703           03329         BSF STATUS,6
  00000002            03330 RAM_BANK = 2
0FC0   008D           03331         MOVWF EEADR
0FC1   1303           03332         BCF STATUS,6
  00000000            03333 RAM_BANK = 0
0FC2   083A           03334         MOVFW INDEX
0FC3   3E57           03335         ADDLW CT
0FC4   0084           03336         MOVWF FSR
0FC5   0800           03337         MOVFW INDF
                      03338         F@CALL EE_WR
  00000FC8            03339 F10_000021 EQU $ ; in [WRITE.INC] Next
0FC8   0ABA           03340         INCF INDEX,F
                      03341         SET@PAGE FR@LB175
0FCB   1D03           03342         BTFSS STATUS,2
0FCC   2FB8           03343         GOTO FR@LB175
0FCD                  03344 NX@LB176
  00000FCD            03345 F10_000022 EQU $ ; in [WRITE.INC] Return
0FCD   0008           03346         RETURN
  00000FCE            03347 F10_EOF EQU $ ; WRITE.INC
  00000FCE            03348 F11_SOF EQU $ ; WRITEH.INC
0FCE                  03349 WRITEH
  00000FCE            03350 F11_000005 EQU $ ; in [WRITEH.INC] StartLine = 202 'Starting address of history table
0FCE   30CA           03351         MOVLW 202
0FCF   00C1           03352         MOVWF STARTLINE
  00000FD0            03353 F11_000006 EQU $ ; in [WRITEH.INC] EndLine = 250 'End Address of history Table
0FD0   30FA           03354         MOVLW 250
0FD1   00C2           03355         MOVWF ENDLINE
  00000FD2            03356 F11_000008 EQU $ ; in [WRITEH.INC] CurrentLine = ERead 254  'Get last User History address
0FD2   30FE           03357         MOVLW 254
                      03358         F@CALL EE_RD
0FD5   00C0           03359         MOVWF CURRENTLINE
0FD6                  03360 SHIFTAGAIN
  00000FD6            03361 F11_000009 EQU $ ; in [WRITEH.INC] ShiftAgain: If CurrentLine = 202 then Goto WriteHNow 'Empty spot is first spot
0FD6   30CA           03362         MOVLW 202
0FD7   0240           03363         SUBWF CURRENTLINE,W
                      03364         SET@PAGE BC@LL177
0FDA   1D03           03365         BTFSS STATUS,2
0FDB   2FDF           03366         GOTO BC@LL177
                      03367         F@JUMP WRITEHNOW
0FDF                  03368 BC@LL177
  00000FDF            03369 F11_000013 EQU $ ; in [WRITEH.INC] For Index = 0 to 2
0FDF   01BA           03370         CLRF INDEX
0FE0                  03371 FR@LB179
0FE0   3003           03372         MOVLW 3
0FE1   023A           03373         SUBWF INDEX,W
                      03374         SET@PAGE NX@LB180
0FE4   1803           03375         BTFSC STATUS,0
0FE5   2FFF           03376         GOTO NX@LB180
  00000FE6            03377 F11_000014 EQU $ ; in [WRITEH.INC] B1 = EREAD CurrentLine - 3 + Index
0FE6   30FD           03378         MOVLW LOW (-3)
0FE7   0740           03379         ADDWF CURRENTLINE,W
0FE8   00B8           03380         MOVWF PP7
0FE9   30FF           03381         MOVLW LOW ((-3) >> 8)
0FEA   1803           03382         SKPNC
0FEB   3E01           03383         ADDLW 1
0FEC   00B9           03384         MOVWF PP7H
0FED   083A           03385         MOVFW INDEX
0FEE   0738           03386         ADDWF PP7,W
                      03387         F@CALL EE_RD
0FF1   00BD           03388         MOVWF B1
  00000FF2            03389 F11_000015 EQU $ ; in [WRITEH.INC] EWRITE CurrentLine + Index, [B1]
0FF2   0840           03390         MOVFW CURRENTLINE
0FF3   073A           03391         ADDWF INDEX,W
0FF4   1703           03392         BSF STATUS,6
  00000002            03393 RAM_BANK = 2
0FF5   008D           03394         MOVWF EEADR
0FF6   1303           03395         BCF STATUS,6
  00000000            03396 RAM_BANK = 0
0FF7   083D           03397         MOVFW B1
                      03398         F@CALL EE_WR
  00000FFA            03399 F11_000016 EQU $ ; in [WRITEH.INC] Next 'Index = 0 to 2
0FFA   0ABA           03400         INCF INDEX,F
                      03401         SET@PAGE FR@LB179
0FFD   1D03           03402         BTFSS STATUS,2
0FFE   2FE0           03403         GOTO FR@LB179
0FFF                  03404 NX@LB180
  00000FFF            03405 F11_000017 EQU $ ; in [WRITEH.INC] CurrentLine = CurrentLine - 3
0FFF   3003           03406         MOVLW 3
1000   02C0           03407         SUBWF CURRENTLINE,F
  00001001            03408 F11_000018 EQU $ ; in [WRITEH.INC] Goto ShiftAgain
                      03409         F@JUMP SHIFTAGAIN
1004                  03410 WRITEHNOW
  00001004            03411 F11_000021 EQU $ ; in [WRITEH.INC] For Index = 0 to 2               'Write User # to History
1004   01BA           03412         CLRF INDEX
1005                  03413 FR@LB181
1005   3003           03414         MOVLW 3
1006   023A           03415         SUBWF INDEX,W
                      03416         SET@PAGE NX@LB182
1009   1803           03417         BTFSC STATUS,0
100A   281D           03418         GOTO NX@LB182
  0000100B            03419 F11_000022 EQU $ ; in [WRITEH.INC] B1 = CE[Index]
100B   083A           03420         MOVFW INDEX
100C   3E4A           03421         ADDLW CE
100D   0084           03422         MOVWF FSR
100E   0800           03423         MOVFW INDF
100F   00BD           03424         MOVWF B1
  00001010            03425 F11_000023 EQU $ ; in [WRITEH.INC] EWRITE CurrentLine + Index, [B1]
1010   0840           03426         MOVFW CURRENTLINE
1011   073A           03427         ADDWF INDEX,W
1012   1703           03428         BSF STATUS,6
  00000002            03429 RAM_BANK = 2
1013   008D           03430         MOVWF EEADR
1014   1303           03431         BCF STATUS,6
  00000000            03432 RAM_BANK = 0
1015   083D           03433         MOVFW B1
                      03434         F@CALL EE_WR
  00001018            03435 F11_000024 EQU $ ; in [WRITEH.INC] Next 'Index
1018   0ABA           03436         INCF INDEX,F
                      03437         SET@PAGE FR@LB181
101B   1D03           03438         BTFSS STATUS,2
101C   2805           03439         GOTO FR@LB181
101D                  03440 NX@LB182
  0000101D            03441 F11_000026 EQU $ ; in [WRITEH.INC] CurrentLine = EREAD 254
101D   30FE           03442         MOVLW 254
                      03443         F@CALL EE_RD
1020   00C0           03444         MOVWF CURRENTLINE
  00001021            03445 F11_000027 EQU $ ; in [WRITEH.INC] If CurrentLine < 244 then CurrentLine = CurrentLine + 3
1021   30F4           03446         MOVLW 244
1022   0240           03447         SUBWF CURRENTLINE,W
                      03448         SET@PAGE BC@LL183
1025   1803           03449         BTFSC STATUS,0
1026   2829           03450         GOTO BC@LL183
1027   3003           03451         MOVLW 3
1028   07C0           03452         ADDWF CURRENTLINE,F
1029                  03453 BC@LL183
  00001029            03454 F11_000028 EQU $ ; in [WRITEH.INC] Ewrite 254, [CurrentLine]  'We now set the address pointer to next empty history record spot
1029   30FE           03455         MOVLW 254
102A   1703           03456         BSF STATUS,6
  00000002            03457 RAM_BANK = 2
102B   008D           03458         MOVWF EEADR
102C   1303           03459         BCF STATUS,6
  00000000            03460 RAM_BANK = 0
102D   0840           03461         MOVFW CURRENTLINE
                      03462         F@CALL EE_WR
  00001030            03463 F11_000029 EQU $ ; in [WRITEH.INC] Return
1030   0008           03464         RETURN
  00001031            03465 F11_EOF EQU $ ; WRITEH.INC
  00001031            03466 F12_SOF EQU $ ; USERMENU.INC
1031                  03467 USERMENU
  00001031            03468 F12_000003 EQU $ ; in [USERMENU.INC] CLS
                      03469         F@CALL LCD@CLS
  00001033            03470 F12_000004 EQU $ ; in [USERMENU.INC] Print AT 1,1,  "(1) Add New User"
1033   3080           03471         MOVLW 128
1034   00A1           03472         MOVWF BPFH
1035   3080           03473         MOVLW 128
                      03474         F@CALL LCD@CRS
1038   3028           03475         MOVLW '('
                      03476         F@CALL PRINT
103B   3031           03477         MOVLW '1'
                      03478         F@CALL PRINT
103E   3029           03479         MOVLW ')'
                      03480         F@CALL PRINT
1041   3020           03481         MOVLW ' '
                      03482         F@CALL PRINT
1044   3041           03483         MOVLW 'A'
                      03484         F@CALL PRINT
1047   3064           03485         MOVLW 'd'
                      03486         F@CALL PRINT
                      03487         F@CALL PRINT
104C   3020           03488         MOVLW ' '
                      03489         F@CALL PRINT
104F   304E           03490         MOVLW 'N'
                      03491         F@CALL PRINT
1052   3065           03492         MOVLW 'e'
                      03493         F@CALL PRINT
1055   3077           03494         MOVLW 'w'
                      03495         F@CALL PRINT
1058   3020           03496         MOVLW ' '
                      03497         F@CALL PRINT
105B   3055           03498         MOVLW 'U'
                      03499         F@CALL PRINT
105E   3073           03500         MOVLW 's'
                      03501         F@CALL PRINT
1061   3065           03502         MOVLW 'e'
                      03503         F@CALL PRINT
1064   3072           03504         MOVLW 'r'
                      03505         F@CALL PRINT
  00001067            03506 F12_000005 EQU $ ; in [USERMENU.INC] Print AT 2,1,  "(2) Delete User"
1067   3080           03507         MOVLW 128
1068   00A1           03508         MOVWF BPFH
1069   30C0           03509         MOVLW 192
                      03510         F@CALL LCD@CRS
106C   3028           03511         MOVLW '('
                      03512         F@CALL PRINT
106F   3032           03513         MOVLW '2'
                      03514         F@CALL PRINT
1072   3029           03515         MOVLW ')'
                      03516         F@CALL PRINT
1075   3020           03517         MOVLW ' '
                      03518         F@CALL PRINT
1078   3044           03519         MOVLW 'D'
                      03520         F@CALL PRINT
107B   3065           03521         MOVLW 'e'
                      03522         F@CALL PRINT
107E   306C           03523         MOVLW 'l'
                      03524         F@CALL PRINT
1081   3065           03525         MOVLW 'e'
                      03526         F@CALL PRINT
1084   3074           03527         MOVLW 't'
                      03528         F@CALL PRINT
1087   3065           03529         MOVLW 'e'
                      03530         F@CALL PRINT
108A   3020           03531         MOVLW ' '
                      03532         F@CALL PRINT
108D   3055           03533         MOVLW 'U'
                      03534         F@CALL PRINT
1090   3073           03535         MOVLW 's'
                      03536         F@CALL PRINT
1093   3065           03537         MOVLW 'e'
                      03538         F@CALL PRINT
1096   3072           03539         MOVLW 'r'
                      03540         F@CALL PRINT
  00001099            03541 F12_000006 EQU $ ; in [USERMENU.INC] Print AT 1,17, "(3) Delete ALL"
1099   3080           03542         MOVLW 128
109A   00A1           03543         MOVWF BPFH
109B   3090           03544         MOVLW 144
                      03545         F@CALL LCD@CRS
109E   3028           03546         MOVLW '('
                      03547         F@CALL PRINT
10A1   3033           03548         MOVLW '3'
                      03549         F@CALL PRINT
10A4   3029           03550         MOVLW ')'
                      03551         F@CALL PRINT
10A7   3020           03552         MOVLW ' '
                      03553         F@CALL PRINT
10AA   3044           03554         MOVLW 'D'
                      03555         F@CALL PRINT
10AD   3065           03556         MOVLW 'e'
                      03557         F@CALL PRINT
10B0   306C           03558         MOVLW 'l'
                      03559         F@CALL PRINT
10B3   3065           03560         MOVLW 'e'
                      03561         F@CALL PRINT
10B6   3074           03562         MOVLW 't'
                      03563         F@CALL PRINT
10B9   3065           03564         MOVLW 'e'
                      03565         F@CALL PRINT
10BC   3020           03566         MOVLW ' '
                      03567         F@CALL PRINT
10BF   3041           03568         MOVLW 'A'
                      03569         F@CALL PRINT
10C2   304C           03570         MOVLW 'L'
                      03571         F@CALL PRINT
                      03572         F@CALL PRINT
  000010C7            03573 F12_000007 EQU $ ; in [USERMENU.INC] Print AT 2,17, "(4) View Users"
10C7   3080           03574         MOVLW 128
10C8   00A1           03575         MOVWF BPFH
10C9   30D0           03576         MOVLW 208
                      03577         F@CALL LCD@CRS
10CC   3028           03578         MOVLW '('
                      03579         F@CALL PRINT
10CF   3034           03580         MOVLW '4'
                      03581         F@CALL PRINT
10D2   3029           03582         MOVLW ')'
                      03583         F@CALL PRINT
10D5   3020           03584         MOVLW ' '
                      03585         F@CALL PRINT
10D8   3056           03586         MOVLW 'V'
                      03587         F@CALL PRINT
10DB   3069           03588         MOVLW 'i'
                      03589         F@CALL PRINT
10DE   3065           03590         MOVLW 'e'
                      03591         F@CALL PRINT
10E1   3077           03592         MOVLW 'w'
                      03593         F@CALL PRINT
10E4   3020           03594         MOVLW ' '
                      03595         F@CALL PRINT
10E7   3055           03596         MOVLW 'U'
                      03597         F@CALL PRINT
10EA   3073           03598         MOVLW 's'
                      03599         F@CALL PRINT
10ED   3065           03600         MOVLW 'e'
                      03601         F@CALL PRINT
10F0   3072           03602         MOVLW 'r'
                      03603         F@CALL PRINT
10F3   3073           03604         MOVLW 's'
                      03605         F@CALL PRINT
  000010F6            03606 F12_000009 EQU $ ; in [USERMENU.INC] GoSub GetKey   'Get response from keypad
                      03607         F@CALL GETKEY
  000010F8            03608 F12_000010 EQU $ ; in [USERMENU.INC] SELECT Key
  000010F8            03609 F12_000011 EQU $ ; in [USERMENU.INC] CASE 1   ' Is Key equal to 1 ?
10F8   3001           03610         MOVLW 1
10F9   0261           03611         SUBWF KEY,W
                      03612         SET@PAGE BC@LL185
10FC   1D03           03613         BTFSS STATUS,2
10FD   2903           03614         GOTO BC@LL185
  000010FE            03615 F12_000012 EQU $ ; in [USERMENU.INC] GoTo AddNewUser
                      03616         F@JUMP ADDNEWUSER
                      03617         F@JUMP BC@LL184
1103                  03618 BC@LL185
  00001103            03619 F12_000015 EQU $ ; in [USERMENU.INC] CASE 2   ' Is KEY equal to 2 ?
1103   3002           03620         MOVLW 2
1104   0261           03621         SUBWF KEY,W
                      03622         SET@PAGE BC@LL188
1107   1D03           03623         BTFSS STATUS,2
1108   29AE           03624         GOTO BC@LL188
  00001109            03625 F12_000016 EQU $ ; in [USERMENU.INC] GoSub GetEmployee#
                      03626         F@CALL GETEMPLOYEE#
  0000110B            03627 F12_000017 EQU $ ; in [USERMENU.INC] GoSub CheckUser
                      03628         F@CALL CHECKUSER
  0000110E            03629 F12_000018 EQU $ ; in [USERMENU.INC] CLS
                      03630         F@CALL LCD@CLS
  00001110            03631 F12_000019 EQU $ ; in [USERMENU.INC] If Flag = 1 then
                      03632         SET@PAGE BC@LL190
1112   1C3F           03633         BTFSS _B#VR1,0
1113   2948           03634         GOTO BC@LL190
  00001114            03635 F12_000020 EQU $ ; in [USERMENU.INC] Print AT 1,1,"User deleted"
1114   3080           03636         MOVLW 128
1115   00A1           03637         MOVWF BPFH
1116   3080           03638         MOVLW 128
                      03639         F@CALL LCD@CRS
1119   3055           03640         MOVLW 'U'
                      03641         F@CALL PRINT
111C   3073           03642         MOVLW 's'
                      03643         F@CALL PRINT
111F   3065           03644         MOVLW 'e'
                      03645         F@CALL PRINT
1122   3072           03646         MOVLW 'r'
                      03647         F@CALL PRINT
1125   3020           03648         MOVLW ' '
                      03649         F@CALL PRINT
1128   3064           03650         MOVLW 'd'
                      03651         F@CALL PRINT
112B   3065           03652         MOVLW 'e'
                      03653         F@CALL PRINT
112E   306C           03654         MOVLW 'l'
                      03655         F@CALL PRINT
1131   3065           03656         MOVLW 'e'
                      03657         F@CALL PRINT
1134   3074           03658         MOVLW 't'
                      03659         F@CALL PRINT
1137   3065           03660         MOVLW 'e'
                      03661         F@CALL PRINT
113A   3064           03662         MOVLW 'd'
                      03663         F@CALL PRINT
  0000113D            03664 F12_000021 EQU $ ; in [USERMENU.INC] Pause 4000
113D   300F           03665         MOVLW 15
113E   00AF           03666         MOVWF PP1H
113F   30A0           03667         MOVLW 160
                      03668         F@CALL DLY@W
  00001142            03669 F12_000022 EQU $ ; in [USERMENU.INC] Goto MainMenu
                      03670         F@JUMP MAINMENU
                      03671         F@JUMP BC@LL191
1148                  03672 BC@LL190
  00001148            03673 F12_000023 EQU $ ; in [USERMENU.INC] Else
  00001148            03674 F12_000024 EQU $ ; in [USERMENU.INC] Print AT 1,1,"User is not"
1148   3080           03675         MOVLW 128
1149   00A1           03676         MOVWF BPFH
114A   3080           03677         MOVLW 128
                      03678         F@CALL LCD@CRS
114D   3055           03679         MOVLW 'U'
                      03680         F@CALL PRINT
1150   3073           03681         MOVLW 's'
                      03682         F@CALL PRINT
1153   3065           03683         MOVLW 'e'
                      03684         F@CALL PRINT
1156   3072           03685         MOVLW 'r'
                      03686         F@CALL PRINT
1159   3020           03687         MOVLW ' '
                      03688         F@CALL PRINT
115C   3069           03689         MOVLW 'i'
                      03690         F@CALL PRINT
115F   3073           03691         MOVLW 's'
                      03692         F@CALL PRINT
1162   3020           03693         MOVLW ' '
                      03694         F@CALL PRINT
1165   306E           03695         MOVLW 'n'
                      03696         F@CALL PRINT
1168   306F           03697         MOVLW 'o'
                      03698         F@CALL PRINT
116B   3074           03699         MOVLW 't'
                      03700         F@CALL PRINT
  0000116E            03701 F12_000025 EQU $ ; in [USERMENU.INC] Print AT 2,1,"in the database!"
116E   3080           03702         MOVLW 128
116F   00A1           03703         MOVWF BPFH
1170   30C0           03704         MOVLW 192
                      03705         F@CALL LCD@CRS
1173   3069           03706         MOVLW 'i'
                      03707         F@CALL PRINT
1176   306E           03708         MOVLW 'n'
                      03709         F@CALL PRINT
1179   3020           03710         MOVLW ' '
                      03711         F@CALL PRINT
117C   3074           03712         MOVLW 't'
                      03713         F@CALL PRINT
117F   3068           03714         MOVLW 'h'
                      03715         F@CALL PRINT
1182   3065           03716         MOVLW 'e'
                      03717         F@CALL PRINT
1185   3020           03718         MOVLW ' '
                      03719         F@CALL PRINT
1188   3064           03720         MOVLW 'd'
                      03721         F@CALL PRINT
118B   3061           03722         MOVLW 'a'
                      03723         F@CALL PRINT
118E   3074           03724         MOVLW 't'
                      03725         F@CALL PRINT
1191   3061           03726         MOVLW 'a'
                      03727         F@CALL PRINT
1194   3062           03728         MOVLW 'b'
                      03729         F@CALL PRINT
1197   3061           03730         MOVLW 'a'
                      03731         F@CALL PRINT
119A   3073           03732         MOVLW 's'
                      03733         F@CALL PRINT
119D   3065           03734         MOVLW 'e'
                      03735         F@CALL PRINT
11A0   3021           03736         MOVLW '!'
                      03737         F@CALL PRINT
  000011A3            03738 F12_000026 EQU $ ; in [USERMENU.INC] Pause 4000
11A3   300F           03739         MOVLW 15
11A4   00AF           03740         MOVWF PP1H
11A5   30A0           03741         MOVLW 160
                      03742         F@CALL DLY@W
  000011A8            03743 F12_000027 EQU $ ; in [USERMENU.INC] Goto MainMenu
                      03744         F@JUMP MAINMENU
  000011AB            03745 F12_000028 EQU $ ; in [USERMENU.INC] ENDIF
11AB                  03746 BC@LL191
                      03747         F@JUMP BC@LL184
11AE                  03748 BC@LL188
  000011AE            03749 F12_000029 EQU $ ; in [USERMENU.INC] Case 3   'Delete all users
11AE   3003           03750         MOVLW 3
11AF   0261           03751         SUBWF KEY,W
                      03752         SET@PAGE BC@LL193
11B2   1D03           03753         BTFSS STATUS,2
11B3   2AB2           03754         GOTO BC@LL193
  000011B4            03755 F12_000030 EQU $ ; in [USERMENU.INC] CLS
                      03756         F@CALL LCD@CLS
  000011B6            03757 F12_000031 EQU $ ; in [USERMENU.INC] Print AT 1,1, "Warning!"
11B6   3080           03758         MOVLW 128
11B7   00A1           03759         MOVWF BPFH
11B8   3080           03760         MOVLW 128
                      03761         F@CALL LCD@CRS
11BB   3057           03762         MOVLW 'W'
                      03763         F@CALL PRINT
11BE   3061           03764         MOVLW 'a'
                      03765         F@CALL PRINT
11C1   3072           03766         MOVLW 'r'
                      03767         F@CALL PRINT
11C4   306E           03768         MOVLW 'n'
                      03769         F@CALL PRINT
11C7   3069           03770         MOVLW 'i'
                      03771         F@CALL PRINT
11CA   306E           03772         MOVLW 'n'
                      03773         F@CALL PRINT
11CD   3067           03774         MOVLW 'g'
                      03775         F@CALL PRINT
11D0   3021           03776         MOVLW '!'
                      03777         F@CALL PRINT
  000011D3            03778 F12_000032 EQU $ ; in [USERMENU.INC] Print AT 2,1, "Delete ALL?"
11D3   3080           03779         MOVLW 128
11D4   00A1           03780         MOVWF BPFH
11D5   30C0           03781         MOVLW 192
                      03782         F@CALL LCD@CRS
11D8   3044           03783         MOVLW 'D'
                      03784         F@CALL PRINT
11DB   3065           03785         MOVLW 'e'
                      03786         F@CALL PRINT
11DE   306C           03787         MOVLW 'l'
                      03788         F@CALL PRINT
11E1   3065           03789         MOVLW 'e'
                      03790         F@CALL PRINT
11E4   3074           03791         MOVLW 't'
                      03792         F@CALL PRINT
11E7   3065           03793         MOVLW 'e'
                      03794         F@CALL PRINT
11EA   3020           03795         MOVLW ' '
                      03796         F@CALL PRINT
11ED   3041           03797         MOVLW 'A'
                      03798         F@CALL PRINT
11F0   304C           03799         MOVLW 'L'
                      03800         F@CALL PRINT
                      03801         F@CALL PRINT
11F5   303F           03802         MOVLW '?'
                      03803         F@CALL PRINT
  000011F8            03804 F12_000033 EQU $ ; in [USERMENU.INC] Print AT 1,17, "(1) = YES"
11F8   3080           03805         MOVLW 128
11F9   00A1           03806         MOVWF BPFH
11FA   3090           03807         MOVLW 144
                      03808         F@CALL LCD@CRS
11FD   3028           03809         MOVLW '('
                      03810         F@CALL PRINT
1200   3031           03811         MOVLW '1'
                      03812         F@CALL PRINT
1203   3029           03813         MOVLW ')'
                      03814         F@CALL PRINT
1206   3020           03815         MOVLW ' '
                      03816         F@CALL PRINT
1209   303D           03817         MOVLW '='
                      03818         F@CALL PRINT
120C   3020           03819         MOVLW ' '
                      03820         F@CALL PRINT
120F   3059           03821         MOVLW 'Y'
                      03822         F@CALL PRINT
1212   3045           03823         MOVLW 'E'
                      03824         F@CALL PRINT
1215   3053           03825         MOVLW 'S'
                      03826         F@CALL PRINT
  00001218            03827 F12_000034 EQU $ ; in [USERMENU.INC] Print AT 2,17, "(2) = NO"
1218   3080           03828         MOVLW 128
1219   00A1           03829         MOVWF BPFH
121A   30D0           03830         MOVLW 208
                      03831         F@CALL LCD@CRS
121D   3028           03832         MOVLW '('
                      03833         F@CALL PRINT
1220   3032           03834         MOVLW '2'
                      03835         F@CALL PRINT
1223   3029           03836         MOVLW ')'
                      03837         F@CALL PRINT
1226   3020           03838         MOVLW ' '
                      03839         F@CALL PRINT
1229   303D           03840         MOVLW '='
                      03841         F@CALL PRINT
122C   3020           03842         MOVLW ' '
                      03843         F@CALL PRINT
122F   304E           03844         MOVLW 'N'
                      03845         F@CALL PRINT
1232   304F           03846         MOVLW 'O'
                      03847         F@CALL PRINT
  00001235            03848 F12_000035 EQU $ ; in [USERMENU.INC] Gosub GetKey           'Get response from keypad
                      03849         F@CALL GETKEY
  00001237            03850 F12_000036 EQU $ ; in [USERMENU.INC] Select Key
  00001237            03851 F12_000037 EQU $ ; in [USERMENU.INC] Case 1
1237   3001           03852         MOVLW 1
1238   0261           03853         SUBWF KEY,W
                      03854         SET@PAGE BC@LL195
123B   1D03           03855         BTFSS STATUS,2
123C   2AA6           03856         GOTO BC@LL195
  0000123D            03857 F12_000038 EQU $ ; in [USERMENU.INC] CLS
                      03858         F@CALL LCD@CLS
  0000123F            03859 F12_000039 EQU $ ; in [USERMENU.INC] Print AT 1,1, "ALL Users"
123F   3080           03860         MOVLW 128
1240   00A1           03861         MOVWF BPFH
1241   3080           03862         MOVLW 128
                      03863         F@CALL LCD@CRS
1244   3041           03864         MOVLW 'A'
                      03865         F@CALL PRINT
1247   304C           03866         MOVLW 'L'
                      03867         F@CALL PRINT
                      03868         F@CALL PRINT
124C   3020           03869         MOVLW ' '
                      03870         F@CALL PRINT
124F   3055           03871         MOVLW 'U'
                      03872         F@CALL PRINT
1252   3073           03873         MOVLW 's'
                      03874         F@CALL PRINT
1255   3065           03875         MOVLW 'e'
                      03876         F@CALL PRINT
1258   3072           03877         MOVLW 'r'
                      03878         F@CALL PRINT
125B   3073           03879         MOVLW 's'
                      03880         F@CALL PRINT
  0000125E            03881 F12_000040 EQU $ ; in [USERMENU.INC] Print AT 2,1, "will be deleted!"
125E   3080           03882         MOVLW 128
125F   00A1           03883         MOVWF BPFH
1260   30C0           03884         MOVLW 192
                      03885         F@CALL LCD@CRS
1263   3077           03886         MOVLW 'w'
                      03887         F@CALL PRINT
1266   3069           03888         MOVLW 'i'
                      03889         F@CALL PRINT
1269   306C           03890         MOVLW 'l'
                      03891         F@CALL PRINT
                      03892         F@CALL PRINT
126E   3020           03893         MOVLW ' '
                      03894         F@CALL PRINT
1271   3062           03895         MOVLW 'b'
                      03896         F@CALL PRINT
1274   3065           03897         MOVLW 'e'
                      03898         F@CALL PRINT
1277   3020           03899         MOVLW ' '
                      03900         F@CALL PRINT
127A   3064           03901         MOVLW 'd'
                      03902         F@CALL PRINT
127D   3065           03903         MOVLW 'e'
                      03904         F@CALL PRINT
1280   306C           03905         MOVLW 'l'
                      03906         F@CALL PRINT
1283   3065           03907         MOVLW 'e'
                      03908         F@CALL PRINT
1286   3074           03909         MOVLW 't'
                      03910         F@CALL PRINT
1289   3065           03911         MOVLW 'e'
                      03912         F@CALL PRINT
128C   3064           03913         MOVLW 'd'
                      03914         F@CALL PRINT
128F   3021           03915         MOVLW '!'
                      03916         F@CALL PRINT
  00001292            03917 F12_000041 EQU $ ; in [USERMENU.INC] Pause 4000
1292   300F           03918         MOVLW 15
1293   00AF           03919         MOVWF PP1H
1294   30A0           03920         MOVLW 160
                      03921         F@CALL DLY@W
  00001297            03922 F12_000042 EQU $ ; in [USERMENU.INC] NUA = 5    'set # users to zero
1297   3005           03923         MOVLW 5
1298   00DD           03924         MOVWF NUA
  00001299            03925 F12_000043 EQU $ ; in [USERMENU.INC] EWRITE 255, [NUA]
1299   1703           03926         BSF STATUS,6
  00000002            03927 RAM_BANK = 2
129A   30FF           03928         MOVLW 255
129B   008D           03929         MOVWF EEADR
129C   1303           03930         BCF STATUS,6
  00000000            03931 RAM_BANK = 0
129D   085D           03932         MOVFW NUA
                      03933         F@CALL EE_WR
  000012A0            03934 F12_000044 EQU $ ; in [USERMENU.INC] Goto MainMenu
                      03935         F@JUMP MAINMENU
                      03936         F@JUMP BC@LL194
12A6                  03937 BC@LL195
  000012A6            03938 F12_000045 EQU $ ; in [USERMENU.INC] Case 2
12A6   3002           03939         MOVLW 2
12A7   0261           03940         SUBWF KEY,W
                      03941         SET@PAGE BC@LL198
12AA   1D03           03942         BTFSS STATUS,2
12AB   2AAF           03943         GOTO BC@LL198
  000012AC            03944 F12_000046 EQU $ ; in [USERMENU.INC] Goto MainMenu
                      03945         F@JUMP MAINMENU
  000012AF            03946 F12_000047 EQU $ ; in [USERMENU.INC] EndSelect
12AF                  03947 BC@LL198
12AF                  03948 BC@LL194
                      03949         F@JUMP BC@LL184
12B2                  03950 BC@LL193
  000012B2            03951 F12_000048 EQU $ ; in [USERMENU.INC] CASE 4   'Key is equal to 4 'Scroll'
12B2   3004           03952         MOVLW 4
12B3   0261           03953         SUBWF KEY,W
                      03954         SET@PAGE BC@LL200
12B6   1D03           03955         BTFSS STATUS,2
12B7   2B3C           03956         GOTO BC@LL200
  000012B8            03957 F12_000049 EQU $ ; in [USERMENU.INC] If NUA = 5 then
12B8   3005           03958         MOVLW 5
12B9   025D           03959         SUBWF NUA,W
                      03960         SET@PAGE BC@LL202
12BC   1D03           03961         BTFSS STATUS,2
12BD   2B37           03962         GOTO BC@LL202
  000012BE            03963 F12_000050 EQU $ ; in [USERMENU.INC] CLS
                      03964         F@CALL LCD@CLS
  000012C0            03965 F12_000051 EQU $ ; in [USERMENU.INC] Print AT 1,1, "There are no"
12C0   3080           03966         MOVLW 128
12C1   00A1           03967         MOVWF BPFH
12C2   3080           03968         MOVLW 128
                      03969         F@CALL LCD@CRS
12C5   3054           03970         MOVLW 'T'
                      03971         F@CALL PRINT
12C8   3068           03972         MOVLW 'h'
                      03973         F@CALL PRINT
12CB   3065           03974         MOVLW 'e'
                      03975         F@CALL PRINT
12CE   3072           03976         MOVLW 'r'
                      03977         F@CALL PRINT
12D1   3065           03978         MOVLW 'e'
                      03979         F@CALL PRINT
12D4   3020           03980         MOVLW ' '
                      03981         F@CALL PRINT
12D7   3061           03982         MOVLW 'a'
                      03983         F@CALL PRINT
12DA   3072           03984         MOVLW 'r'
                      03985         F@CALL PRINT
12DD   3065           03986         MOVLW 'e'
                      03987         F@CALL PRINT
12E0   3020           03988         MOVLW ' '
                      03989         F@CALL PRINT
12E3   306E           03990         MOVLW 'n'
                      03991         F@CALL PRINT
12E6   306F           03992         MOVLW 'o'
                      03993         F@CALL PRINT
  000012E9            03994 F12_000052 EQU $ ; in [USERMENU.INC] Print AT 2,1, "Users in the"
12E9   3080           03995         MOVLW 128
12EA   00A1           03996         MOVWF BPFH
12EB   30C0           03997         MOVLW 192
                      03998         F@CALL LCD@CRS
12EE   3055           03999         MOVLW 'U'
                      04000         F@CALL PRINT
12F1   3073           04001         MOVLW 's'
                      04002         F@CALL PRINT
12F4   3065           04003         MOVLW 'e'
                      04004         F@CALL PRINT
12F7   3072           04005         MOVLW 'r'
                      04006         F@CALL PRINT
12FA   3073           04007         MOVLW 's'
                      04008         F@CALL PRINT
12FD   3020           04009         MOVLW ' '
                      04010         F@CALL PRINT
1300   3069           04011         MOVLW 'i'
                      04012         F@CALL PRINT
1303   306E           04013         MOVLW 'n'
                      04014         F@CALL PRINT
1306   3020           04015         MOVLW ' '
                      04016         F@CALL PRINT
1309   3074           04017         MOVLW 't'
                      04018         F@CALL PRINT
130C   3068           04019         MOVLW 'h'
                      04020         F@CALL PRINT
130F   3065           04021         MOVLW 'e'
                      04022         F@CALL PRINT
  00001312            04023 F12_000053 EQU $ ; in [USERMENU.INC] Print AT 1,17, "Database"
1312   3080           04024         MOVLW 128
1313   00A1           04025         MOVWF BPFH
1314   3090           04026         MOVLW 144
                      04027         F@CALL LCD@CRS
1317   3044           04028         MOVLW 'D'
                      04029         F@CALL PRINT
131A   3061           04030         MOVLW 'a'
                      04031         F@CALL PRINT
131D   3074           04032         MOVLW 't'
                      04033         F@CALL PRINT
1320   3061           04034         MOVLW 'a'
                      04035         F@CALL PRINT
1323   3062           04036         MOVLW 'b'
                      04037         F@CALL PRINT
1326   3061           04038         MOVLW 'a'
                      04039         F@CALL PRINT
1329   3073           04040         MOVLW 's'
                      04041         F@CALL PRINT
132C   3065           04042         MOVLW 'e'
                      04043         F@CALL PRINT
  0000132F            04044 F12_000054 EQU $ ; in [USERMENU.INC] Pause 4000
132F   300F           04045         MOVLW 15
1330   00AF           04046         MOVWF PP1H
1331   30A0           04047         MOVLW 160
                      04048         F@CALL DLY@W
  00001334            04049 F12_000055 EQU $ ; in [USERMENU.INC] Goto MainMenu
                      04050         F@JUMP MAINMENU
  00001337            04051 F12_000056 EQU $ ; in [USERMENU.INC] ENDIF 'If NUA = 5
1337                  04052 BC@LL202
  00001337            04053 F12_000058 EQU $ ; in [USERMENU.INC] GoTo ScrollUsers
                      04054         F@JUMP SCROLLUSERS
  00001339            04055 F12_000060 EQU $ ; in [USERMENU.INC] CASE ELSE   ' Otherwise...
                      04056         F@JUMP BC@LL204
133C                  04057 BC@LL200
  0000133C            04058 F12_000061 EQU $ ; in [USERMENU.INC] Goto MainMenu
                      04059         F@JUMP MAINMENU
  0000133F            04060 F12_000062 EQU $ ; in [USERMENU.INC] ENDSELECT  'End of User Menu
133F                  04061 BC@LL204
133F                  04062 BC@LL184
  0000133F            04063 F12_EOF EQU $ ; USERMENU.INC
  0000133F            04064 F13_SOF EQU $ ; MAINMENU.INC
133F                  04065 MAINMENU
  0000133F            04066 F13_000005 EQU $ ; in [MAINMENU.INC] CLS
                      04067         F@CALL LCD@CLS
  00001341            04068 F13_000006 EQU $ ; in [MAINMENU.INC] Print AT 1,1, "(1)User Tag Menu"
1341   3080           04069         MOVLW 128
1342   00A1           04070         MOVWF BPFH
1343   3080           04071         MOVLW 128
                      04072         F@CALL LCD@CRS
1346   3028           04073         MOVLW '('
                      04074         F@CALL PRINT
1349   3031           04075         MOVLW '1'
                      04076         F@CALL PRINT
134C   3029           04077         MOVLW ')'
                      04078         F@CALL PRINT
134F   3055           04079         MOVLW 'U'
                      04080         F@CALL PRINT
1352   3073           04081         MOVLW 's'
                      04082         F@CALL PRINT
1355   3065           04083         MOVLW 'e'
                      04084         F@CALL PRINT
1358   3072           04085         MOVLW 'r'
                      04086         F@CALL PRINT
135B   3020           04087         MOVLW ' '
                      04088         F@CALL PRINT
135E   3054           04089         MOVLW 'T'
                      04090         F@CALL PRINT
1361   3061           04091         MOVLW 'a'
                      04092         F@CALL PRINT
1364   3067           04093         MOVLW 'g'
                      04094         F@CALL PRINT
1367   3020           04095         MOVLW ' '
                      04096         F@CALL PRINT
136A   304D           04097         MOVLW 'M'
                      04098         F@CALL PRINT
136D   3065           04099         MOVLW 'e'
                      04100         F@CALL PRINT
1370   306E           04101         MOVLW 'n'
                      04102         F@CALL PRINT
1373   3075           04103         MOVLW 'u'
                      04104         F@CALL PRINT
  00001376            04105 F13_000007 EQU $ ; in [MAINMENU.INC] Print AT 2,1, "(2)View last 14"
1376   3080           04106         MOVLW 128
1377   00A1           04107         MOVWF BPFH
1378   30C0           04108         MOVLW 192
                      04109         F@CALL LCD@CRS
137B   3028           04110         MOVLW '('
                      04111         F@CALL PRINT
137E   3032           04112         MOVLW '2'
                      04113         F@CALL PRINT
1381   3029           04114         MOVLW ')'
                      04115         F@CALL PRINT
1384   3056           04116         MOVLW 'V'
                      04117         F@CALL PRINT
1387   3069           04118         MOVLW 'i'
                      04119         F@CALL PRINT
138A   3065           04120         MOVLW 'e'
                      04121         F@CALL PRINT
138D   3077           04122         MOVLW 'w'
                      04123         F@CALL PRINT
1390   3020           04124         MOVLW ' '
                      04125         F@CALL PRINT
1393   306C           04126         MOVLW 'l'
                      04127         F@CALL PRINT
1396   3061           04128         MOVLW 'a'
                      04129         F@CALL PRINT
1399   3073           04130         MOVLW 's'
                      04131         F@CALL PRINT
139C   3074           04132         MOVLW 't'
                      04133         F@CALL PRINT
139F   3020           04134         MOVLW ' '
                      04135         F@CALL PRINT
13A2   3031           04136         MOVLW '1'
                      04137         F@CALL PRINT
13A5   3034           04138         MOVLW '4'
                      04139         F@CALL PRINT
  000013A8            04140 F13_000008 EQU $ ; in [MAINMENU.INC] PRINT AT 1,17, "Vehicle users"
13A8   3080           04141         MOVLW 128
13A9   00A1           04142         MOVWF BPFH
13AA   3090           04143         MOVLW 144
                      04144         F@CALL LCD@CRS
13AD   3056           04145         MOVLW 'V'
                      04146         F@CALL PRINT
13B0   3065           04147         MOVLW 'e'
                      04148         F@CALL PRINT
13B3   3068           04149         MOVLW 'h'
                      04150         F@CALL PRINT
13B6   3069           04151         MOVLW 'i'
                      04152         F@CALL PRINT
13B9   3063           04153         MOVLW 'c'
                      04154         F@CALL PRINT
13BC   306C           04155         MOVLW 'l'
                      04156         F@CALL PRINT
13BF   3065           04157         MOVLW 'e'
                      04158         F@CALL PRINT
13C2   3020           04159         MOVLW ' '
                      04160         F@CALL PRINT
13C5   3075           04161         MOVLW 'u'
                      04162         F@CALL PRINT
13C8   3073           04163         MOVLW 's'
                      04164         F@CALL PRINT
13CB   3065           04165         MOVLW 'e'
                      04166         F@CALL PRINT
13CE   3072           04167         MOVLW 'r'
                      04168         F@CALL PRINT
13D1   3073           04169         MOVLW 's'
                      04170         F@CALL PRINT
  000013D4            04171 F13_000009 EQU $ ; in [MAINMENU.INC] Gosub GetKey
                      04172         F@CALL GETKEY
  000013D6            04173 F13_000010 EQU $ ; in [MAINMENU.INC] Select Key
  000013D6            04174 F13_000011 EQU $ ; in [MAINMENU.INC] Case 1
13D6   3001           04175         MOVLW 1
13D7   0261           04176         SUBWF KEY,W
                      04177         SET@PAGE BC@LL206
13DA   1D03           04178         BTFSS STATUS,2
13DB   2BE2           04179         GOTO BC@LL206
  000013DC            04180 F13_000012 EQU $ ; in [MAINMENU.INC] Goto UserMenu
                      04181         F@JUMP USERMENU
                      04182         F@JUMP BC@LL205
13E2                  04183 BC@LL206
  000013E2            04184 F13_000013 EQU $ ; in [MAINMENU.INC] Case 2
13E2   3002           04185         MOVLW 2
13E3   0261           04186         SUBWF KEY,W
                      04187         SET@PAGE BC@LL209
13E6   1D03           04188         BTFSS STATUS,2
13E7   2C83           04189         GOTO BC@LL209
  000013E8            04190 F13_000014 EQU $ ; in [MAINMENU.INC] LastUser = EREAD 254
13E8   30FE           04191         MOVLW 254
                      04192         F@CALL EE_RD
13EB   00C3           04193         MOVWF LASTUSER
  000013EC            04194 F13_000015 EQU $ ; in [MAINMENU.INC] If LastUser = 202 then
13EC   30CA           04195         MOVLW 202
13ED   0243           04196         SUBWF LASTUSER,W
                      04197         SET@PAGE BC@LL211
13F0   1D03           04198         BTFSS STATUS,2
13F1   2C7D           04199         GOTO BC@LL211
  000013F2            04200 F13_000016 EQU $ ; in [MAINMENU.INC] CLS
                      04201         F@CALL LCD@CLS
  000013F4            04202 F13_000017 EQU $ ; in [MAINMENU.INC] Print AT 1,1, "There is no"
13F4   3080           04203         MOVLW 128
13F5   00A1           04204         MOVWF BPFH
13F6   3080           04205         MOVLW 128
                      04206         F@CALL LCD@CRS
13F9   3054           04207         MOVLW 'T'
                      04208         F@CALL PRINT
13FC   3068           04209         MOVLW 'h'
                      04210         F@CALL PRINT
13FF   3065           04211         MOVLW 'e'
                      04212         F@CALL PRINT
1402   3072           04213         MOVLW 'r'
                      04214         F@CALL PRINT
1405   3065           04215         MOVLW 'e'
                      04216         F@CALL PRINT
1408   3020           04217         MOVLW ' '
                      04218         F@CALL PRINT
140B   3069           04219         MOVLW 'i'
                      04220         F@CALL PRINT
140E   3073           04221         MOVLW 's'
                      04222         F@CALL PRINT
1411   3020           04223         MOVLW ' '
                      04224         F@CALL PRINT
1414   306E           04225         MOVLW 'n'
                      04226         F@CALL PRINT
1417   306F           04227         MOVLW 'o'
                      04228         F@CALL PRINT
  0000141A            04229 F13_000018 EQU $ ; in [MAINMENU.INC] Print AT 2,1, "User History"
141A   3080           04230         MOVLW 128
141B   00A1           04231         MOVWF BPFH
141C   30C0           04232         MOVLW 192
                      04233         F@CALL LCD@CRS
141F   3055           04234         MOVLW 'U'
                      04235         F@CALL PRINT
1422   3073           04236         MOVLW 's'
                      04237         F@CALL PRINT
1425   3065           04238         MOVLW 'e'
                      04239         F@CALL PRINT
1428   3072           04240         MOVLW 'r'
                      04241         F@CALL PRINT
142B   3020           04242         MOVLW ' '
                      04243         F@CALL PRINT
142E   3048           04244         MOVLW 'H'
                      04245         F@CALL PRINT
1431   3069           04246         MOVLW 'i'
                      04247         F@CALL PRINT
1434   3073           04248         MOVLW 's'
                      04249         F@CALL PRINT
1437   3074           04250         MOVLW 't'
                      04251         F@CALL PRINT
143A   306F           04252         MOVLW 'o'
                      04253         F@CALL PRINT
143D   3072           04254         MOVLW 'r'
                      04255         F@CALL PRINT
1440   3079           04256         MOVLW 'y'
                      04257         F@CALL PRINT
  00001443            04258 F13_000019 EQU $ ; in [MAINMENU.INC] Print AT 1,17, "in the Database"
1443   3080           04259         MOVLW 128
1444   00A1           04260         MOVWF BPFH
1445   3090           04261         MOVLW 144
                      04262         F@CALL LCD@CRS
1448   3069           04263         MOVLW 'i'
                      04264         F@CALL PRINT
144B   306E           04265         MOVLW 'n'
                      04266         F@CALL PRINT
144E   3020           04267         MOVLW ' '
                      04268         F@CALL PRINT
1451   3074           04269         MOVLW 't'
                      04270         F@CALL PRINT
1454   3068           04271         MOVLW 'h'
                      04272         F@CALL PRINT
1457   3065           04273         MOVLW 'e'
                      04274         F@CALL PRINT
145A   3020           04275         MOVLW ' '
                      04276         F@CALL PRINT
145D   3044           04277         MOVLW 'D'
                      04278         F@CALL PRINT
1460   3061           04279         MOVLW 'a'
                      04280         F@CALL PRINT
1463   3074           04281         MOVLW 't'
                      04282         F@CALL PRINT
1466   3061           04283         MOVLW 'a'
                      04284         F@CALL PRINT
1469   3062           04285         MOVLW 'b'
                      04286         F@CALL PRINT
146C   3061           04287         MOVLW 'a'
                      04288         F@CALL PRINT
146F   3073           04289         MOVLW 's'
                      04290         F@CALL PRINT
1472   3065           04291         MOVLW 'e'
                      04292         F@CALL PRINT
  00001475            04293 F13_000020 EQU $ ; in [MAINMENU.INC] Pause 4000
1475   300F           04294         MOVLW 15
1476   00AF           04295         MOVWF PP1H
1477   30A0           04296         MOVLW 160
                      04297         F@CALL DLY@W
  0000147A            04298 F13_000021 EQU $ ; in [MAINMENU.INC] Goto MainMenu
                      04299         F@JUMP MAINMENU
  0000147D            04300 F13_000022 EQU $ ; in [MAINMENU.INC] ENDIF 'If LastUser = 202
147D                  04301 BC@LL211
  0000147D            04302 F13_000024 EQU $ ; in [MAINMENU.INC] GoTo StartScrollH
                      04303         F@JUMP STARTSCROLLH
  00001480            04304 F13_000026 EQU $ ; in [MAINMENU.INC] Case Else
                      04305         F@JUMP BC@LL213
1483                  04306 BC@LL209
  00001483            04307 F13_000027 EQU $ ; in [MAINMENU.INC] Goto MainMenu
                      04308         F@JUMP MAINMENU
  00001486            04309 F13_000028 EQU $ ; in [MAINMENU.INC] EndSelect
1486                  04310 BC@LL213
1486                  04311 BC@LL205
  00001486            04312 F13_EOF EQU $ ; MAINMENU.INC
  00001486            04313 F14_SOF EQU $ ; STARTUNIT.INC
1486                  04314 STARTUNIT
  00001486            04315 F14_000003 EQU $ ; in [STARTUNIT.INC] High Green
1486   1507           04316         BSF PORTC,2
1487   1683           04317         BSF STATUS,5
  00000001            04318 RAM_BANK = 1
1488   1107           04319         BCF TRISC,2
  00001489            04320 F14_000004 EQU $ ; in [STARTUNIT.INC] High RED
1489   1283           04321         BCF STATUS,5
  00000000            04322 RAM_BANK = 0
148A   1487           04323         BSF PORTC,1
148B   1683           04324         BSF STATUS,5
  00000001            04325 RAM_BANK = 1
148C   1087           04326         BCF TRISC,1
  0000148D            04327 F14_000006 EQU $ ; in [STARTUNIT.INC] GoSub ReadAgain      ' Go Read Tag
148D   1283           04328         BCF STATUS,5
  00000000            04329 RAM_BANK = 0
                      04330         F@CALL READAGAIN
  00001491            04331 F14_000007 EQU $ ; in [STARTUNIT.INC] GoSub CheckTag
                      04332         F@CALL CHECKTAG
  00001494            04333 F14_000008 EQU $ ; in [STARTUNIT.INC] IF Flag = 0 then    'Tag is not in table
                      04334         SET@PAGE BC@LL215
1496   183F           04335         BTFSC _B#VR1,0
1497   2CE7           04336         GOTO BC@LL215
  00001498            04337 F14_000009 EQU $ ; in [STARTUNIT.INC] CLS
                      04338         F@CALL LCD@CLS
  0000149A            04339 F14_000010 EQU $ ; in [STARTUNIT.INC] Print AT 1,1, "Tag not found"
149A   3080           04340         MOVLW 128
149B   00A1           04341         MOVWF BPFH
149C   3080           04342         MOVLW 128
                      04343         F@CALL LCD@CRS
149F   3054           04344         MOVLW 'T'
                      04345         F@CALL PRINT
14A2   3061           04346         MOVLW 'a'
                      04347         F@CALL PRINT
14A5   3067           04348         MOVLW 'g'
                      04349         F@CALL PRINT
14A8   3020           04350         MOVLW ' '
                      04351         F@CALL PRINT
14AB   306E           04352         MOVLW 'n'
                      04353         F@CALL PRINT
14AE   306F           04354         MOVLW 'o'
                      04355         F@CALL PRINT
14B1   3074           04356         MOVLW 't'
                      04357         F@CALL PRINT
14B4   3020           04358         MOVLW ' '
                      04359         F@CALL PRINT
14B7   3066           04360         MOVLW 'f'
                      04361         F@CALL PRINT
14BA   306F           04362         MOVLW 'o'
                      04363         F@CALL PRINT
14BD   3075           04364         MOVLW 'u'
                      04365         F@CALL PRINT
14C0   306E           04366         MOVLW 'n'
                      04367         F@CALL PRINT
14C3   3064           04368         MOVLW 'd'
                      04369         F@CALL PRINT
  000014C6            04370 F14_000013 EQU $ ; in [STARTUNIT.INC] Low Green
14C6   1107           04371         BCF PORTC,2
14C7   1683           04372         BSF STATUS,5
  00000001            04373 RAM_BANK = 1
14C8   1107           04374         BCF TRISC,2
  000014C9            04375 F14_000014 EQU $ ; in [STARTUNIT.INC] For Index = 0 to 10
14C9   1283           04376         BCF STATUS,5
  00000000            04377 RAM_BANK = 0
14CA   01BA           04378         CLRF INDEX
14CB                  04379 FR@LB217
14CB   300B           04380         MOVLW 11
14CC   023A           04381         SUBWF INDEX,W
                      04382         SET@PAGE NX@LB218
14CF   1803           04383         BTFSC STATUS,0
14D0   2CE0           04384         GOTO NX@LB218
  000014D1            04385 F14_000015 EQU $ ; in [STARTUNIT.INC] Toggle Red
14D1   3002           04386         MOVLW 2
14D2   0687           04387         XORWF PORTC,F
14D3   1683           04388         BSF STATUS,5
  00000001            04389 RAM_BANK = 1
14D4   1087           04390         BCF TRISC,1
  000014D5            04391 F14_000016 EQU $ ; in [STARTUNIT.INC] DELAYMS 300
14D5   3001           04392         MOVLW 1
14D6   1283           04393         BCF STATUS,5
  00000000            04394 RAM_BANK = 0
14D7   00AF           04395         MOVWF PP1H
14D8   302C           04396         MOVLW 44
                      04397         F@CALL DLY@W
  000014DB            04398 F14_000017 EQU $ ; in [STARTUNIT.INC] Next 'Index = 0 to 10
14DB   0ABA           04399         INCF INDEX,F
                      04400         SET@PAGE FR@LB217
14DE   1D03           04401         BTFSS STATUS,2
14DF   2CCB           04402         GOTO FR@LB217
14E0                  04403 NX@LB218
  000014E0            04404 F14_000018 EQU $ ; in [STARTUNIT.INC] Low Red
14E0   1087           04405         BCF PORTC,1
14E1   1683           04406         BSF STATUS,5
  00000001            04407 RAM_BANK = 1
14E2   1087           04408         BCF TRISC,1
  000014E3            04409 F14_000019 EQU $ ; in [STARTUNIT.INC] Goto GoSleep
14E3   1283           04410         BCF STATUS,5
  00000000            04411 RAM_BANK = 0
                      04412         F@JUMP GOSLEEP
  000014E7            04413 F14_000021 EQU $ ; in [STARTUNIT.INC] ENDIF 'Flag = 0
14E7                  04414 BC@LL215
  000014E7            04415 F14_000023 EQU $ ; in [STARTUNIT.INC] CLS
                      04416         F@CALL LCD@CLS
  000014E9            04417 F14_000024 EQU $ ; in [STARTUNIT.INC] Print AT 1,1, "Unit can now"
14E9   3080           04418         MOVLW 128
14EA   00A1           04419         MOVWF BPFH
14EB   3080           04420         MOVLW 128
                      04421         F@CALL LCD@CRS
14EE   3055           04422         MOVLW 'U'
                      04423         F@CALL PRINT
14F1   306E           04424         MOVLW 'n'
                      04425         F@CALL PRINT
14F4   3069           04426         MOVLW 'i'
                      04427         F@CALL PRINT
14F7   3074           04428         MOVLW 't'
                      04429         F@CALL PRINT
14FA   3020           04430         MOVLW ' '
                      04431         F@CALL PRINT
14FD   3063           04432         MOVLW 'c'
                      04433         F@CALL PRINT
1500   3061           04434         MOVLW 'a'
                      04435         F@CALL PRINT
1503   306E           04436         MOVLW 'n'
                      04437         F@CALL PRINT
1506   3020           04438         MOVLW ' '
                      04439         F@CALL PRINT
1509   306E           04440         MOVLW 'n'
                      04441         F@CALL PRINT
150C   306F           04442         MOVLW 'o'
                      04443         F@CALL PRINT
150F   3077           04444         MOVLW 'w'
                      04445         F@CALL PRINT
  00001512            04446 F14_000025 EQU $ ; in [STARTUNIT.INC] Print AT 2,1, "be started!"
1512   3080           04447         MOVLW 128
1513   00A1           04448         MOVWF BPFH
1514   30C0           04449         MOVLW 192
                      04450         F@CALL LCD@CRS
1517   3062           04451         MOVLW 'b'
                      04452         F@CALL PRINT
151A   3065           04453         MOVLW 'e'
                      04454         F@CALL PRINT
151D   3020           04455         MOVLW ' '
                      04456         F@CALL PRINT
1520   3073           04457         MOVLW 's'
                      04458         F@CALL PRINT
1523   3074           04459         MOVLW 't'
                      04460         F@CALL PRINT
1526   3061           04461         MOVLW 'a'
                      04462         F@CALL PRINT
1529   3072           04463         MOVLW 'r'
                      04464         F@CALL PRINT
152C   3074           04465         MOVLW 't'
                      04466         F@CALL PRINT
152F   3065           04467         MOVLW 'e'
                      04468         F@CALL PRINT
1532   3064           04469         MOVLW 'd'
                      04470         F@CALL PRINT
1535   3021           04471         MOVLW '!'
                      04472         F@CALL PRINT
  00001538            04473 F14_000026 EQU $ ; in [STARTUNIT.INC] For Index = 0 to 2                'Get User # that is starting Unit
1538   01BA           04474         CLRF INDEX
1539                  04475 FR@LB219
1539   3003           04476         MOVLW 3
153A   023A           04477         SUBWF INDEX,W
                      04478         SET@PAGE NX@LB220
153D   1803           04479         BTFSC STATUS,0
153E   2D4E           04480         GOTO NX@LB220
  0000153F            04481 F14_000027 EQU $ ; in [STARTUNIT.INC] CE[Index] = EREAD INDEX2 + INDEX
153F   083B           04482         MOVFW INDEX2
1540   073A           04483         ADDWF INDEX,W
                      04484         F@CALL EE_RD
1543   00A9           04485         MOVWF PBP#VAR0
1544   083A           04486         MOVFW INDEX
1545   3E4A           04487         ADDLW CE
1546   0084           04488         MOVWF FSR
1547   0829           04489         MOVFW PBP#VAR0
1548   0080           04490         MOVWF INDF
  00001549            04491 F14_000028 EQU $ ; in [STARTUNIT.INC] Next 'Index
1549   0ABA           04492         INCF INDEX,F
                      04493         SET@PAGE FR@LB219
154C   1D03           04494         BTFSS STATUS,2
154D   2D39           04495         GOTO FR@LB219
154E                  04496 NX@LB220
  0000154E            04497 F14_000030 EQU $ ; in [STARTUNIT.INC] Gosub WriteH             'Go write the User into the history file
                      04498         F@CALL WRITEH
  00001551            04499 F14_000031 EQU $ ; in [STARTUNIT.INC] HIGH StartEnable    'Turn On Start Relay
1551   1688           04500         BSF PORTD,5
1552   1683           04501         BSF STATUS,5
  00000001            04502 RAM_BANK = 1
1553   1288           04503         BCF TRISD,5
  00001554            04504 F14_000034 EQU $ ; in [STARTUNIT.INC] Low Red
1554   1283           04505         BCF STATUS,5
  00000000            04506 RAM_BANK = 0
1555   1087           04507         BCF PORTC,1
1556   1683           04508         BSF STATUS,5
  00000001            04509 RAM_BANK = 1
1557   1087           04510         BCF TRISC,1
  00001558            04511 F14_000035 EQU $ ; in [STARTUNIT.INC] Low Green
1558   1283           04512         BCF STATUS,5
  00000000            04513 RAM_BANK = 0
1559   1107           04514         BCF PORTC,2
155A   1683           04515         BSF STATUS,5
  00000001            04516 RAM_BANK = 1
155B   1107           04517         BCF TRISC,2
  0000155C            04518 F14_000036 EQU $ ; in [STARTUNIT.INC] For Index = 0 to 5
155C   1283           04519         BCF STATUS,5
  00000000            04520 RAM_BANK = 0
155D   01BA           04521         CLRF INDEX
155E                  04522 FR@LB221
155E   3006           04523         MOVLW 6
155F   023A           04524         SUBWF INDEX,W
                      04525         SET@PAGE NX@LB222
1562   1803           04526         BTFSC STATUS,0
1563   2D73           04527         GOTO NX@LB222
  00001564            04528 F14_000037 EQU $ ; in [STARTUNIT.INC] Toggle Green
1564   3004           04529         MOVLW 4
1565   0687           04530         XORWF PORTC,F
1566   1683           04531         BSF STATUS,5
  00000001            04532 RAM_BANK = 1
1567   1107           04533         BCF TRISC,2
  00001568            04534 F14_000038 EQU $ ; in [STARTUNIT.INC] DELAYMS 300
1568   3001           04535         MOVLW 1
1569   1283           04536         BCF STATUS,5
  00000000            04537 RAM_BANK = 0
156A   00AF           04538         MOVWF PP1H
156B   302C           04539         MOVLW 44
                      04540         F@CALL DLY@W
  0000156E            04541 F14_000039 EQU $ ; in [STARTUNIT.INC] Next Index
156E   0ABA           04542         INCF INDEX,F
                      04543         SET@PAGE FR@LB221
1571   1D03           04544         BTFSS STATUS,2
1572   2D5E           04545         GOTO FR@LB221
1573                  04546 NX@LB222
  00001573            04547 F14_000040 EQU $ ; in [STARTUNIT.INC] High Green
1573   1507           04548         BSF PORTC,2
1574   1683           04549         BSF STATUS,5
  00000001            04550 RAM_BANK = 1
1575   1107           04551         BCF TRISC,2
  00001576            04552 F14_000042 EQU $ ; in [STARTUNIT.INC] DelayMS 60000  'Leave start relay on for 60 sec
1576   30EA           04553         MOVLW 234
1577   1283           04554         BCF STATUS,5
  00000000            04555 RAM_BANK = 0
1578   00AF           04556         MOVWF PP1H
1579   3060           04557         MOVLW 96
                      04558         F@CALL DLY@W
  0000157C            04559 F14_000043 EQU $ ; in [STARTUNIT.INC] LOW StartEnable     'Shut off Start Relay
157C   1288           04560         BCF PORTD,5
157D   1683           04561         BSF STATUS,5
  00000001            04562 RAM_BANK = 1
157E   1288           04563         BCF TRISD,5
  0000157F            04564 F14_000044 EQU $ ; in [STARTUNIT.INC] Low Green      'Shut off the Green Led
157F   1283           04565         BCF STATUS,5
  00000000            04566 RAM_BANK = 0
1580   1107           04567         BCF PORTC,2
1581   1683           04568         BSF STATUS,5
  00000001            04569 RAM_BANK = 1
1582   1107           04570         BCF TRISC,2
  00001583            04571 F14_000045 EQU $ ; in [STARTUNIT.INC] CLS
1583   1283           04572         BCF STATUS,5
  00000000            04573 RAM_BANK = 0
                      04574         F@CALL LCD@CLS
  00001586            04575 F14_000047 EQU $ ; in [STARTUNIT.INC] Goto GoSleep     'Sleep Forever
                      04576         F@JUMP GOSLEEP
1589                  04577 TIMEOUT2
  00001589            04578 F14_000051 EQU $ ; in [STARTUNIT.INC] Timeout2: High RFIDEnable       ' Turn off RFID Reader ..No Tag detected for 30 sec
1589   1608           04579         BSF PORTD,4
158A   1683           04580         BSF STATUS,5
  00000001            04581 RAM_BANK = 1
158B   1208           04582         BCF TRISD,4
  0000158C            04583 F14_000053 EQU $ ; in [STARTUNIT.INC] Low Green
158C   1283           04584         BCF STATUS,5
  00000000            04585 RAM_BANK = 0
158D   1107           04586         BCF PORTC,2
158E   1683           04587         BSF STATUS,5
  00000001            04588 RAM_BANK = 1
158F   1107           04589         BCF TRISC,2
  00001590            04590 F14_000054 EQU $ ; in [STARTUNIT.INC] For Index = 0 to 10
1590   1283           04591         BCF STATUS,5
  00000000            04592 RAM_BANK = 0
1591   01BA           04593         CLRF INDEX
1592                  04594 FR@LB223
1592   300B           04595         MOVLW 11
1593   023A           04596         SUBWF INDEX,W
                      04597         SET@PAGE NX@LB224
1596   1803           04598         BTFSC STATUS,0
1597   2DA7           04599         GOTO NX@LB224
  00001598            04600 F14_000055 EQU $ ; in [STARTUNIT.INC] Toggle Red
1598   3002           04601         MOVLW 2
1599   0687           04602         XORWF PORTC,F
159A   1683           04603         BSF STATUS,5
  00000001            04604 RAM_BANK = 1
159B   1087           04605         BCF TRISC,1
  0000159C            04606 F14_000056 EQU $ ; in [STARTUNIT.INC] DELAYMS 300
159C   3001           04607         MOVLW 1
159D   1283           04608         BCF STATUS,5
  00000000            04609 RAM_BANK = 0
159E   00AF           04610         MOVWF PP1H
159F   302C           04611         MOVLW 44
                      04612         F@CALL DLY@W
  000015A2            04613 F14_000057 EQU $ ; in [STARTUNIT.INC] Next Index
15A2   0ABA           04614         INCF INDEX,F
                      04615         SET@PAGE FR@LB223
15A5   1D03           04616         BTFSS STATUS,2
15A6   2D92           04617         GOTO FR@LB223
15A7                  04618 NX@LB224
  000015A7            04619 F14_000058 EQU $ ; in [STARTUNIT.INC] Low Red
15A7   1087           04620         BCF PORTC,1
15A8   1683           04621         BSF STATUS,5
  00000001            04622 RAM_BANK = 1
15A9   1087           04623         BCF TRISC,1
  000015AA            04624 F14_000059 EQU $ ; in [STARTUNIT.INC] Goto GoSleep
15AA   1283           04625         BCF STATUS,5
  00000000            04626 RAM_BANK = 0
                      04627         F@JUMP GOSLEEP
  000015AE            04628 F14_EOF EQU $ ; STARTUNIT.INC
  000015AE            04629 F15_SOF EQU $ ; GOSLEEP.INC
15AE                  04630 GOSLEEP
  000015AE            04631 F15_000003 EQU $ ; in [GOSLEEP.INC] CLS
                      04632         F@CALL LCD@CLS
  000015B0            04633 F15_000004 EQU $ ; in [GOSLEEP.INC] Print AT 1,1, "Going to sleep.."
15B0   3080           04634         MOVLW 128
15B1   00A1           04635         MOVWF BPFH
15B2   3080           04636         MOVLW 128
                      04637         F@CALL LCD@CRS
15B5   3047           04638         MOVLW 'G'
                      04639         F@CALL PRINT
15B8   306F           04640         MOVLW 'o'
                      04641         F@CALL PRINT
15BB   3069           04642         MOVLW 'i'
                      04643         F@CALL PRINT
15BE   306E           04644         MOVLW 'n'
                      04645         F@CALL PRINT
15C1   3067           04646         MOVLW 'g'
                      04647         F@CALL PRINT
15C4   3020           04648         MOVLW ' '
                      04649         F@CALL PRINT
15C7   3074           04650         MOVLW 't'
                      04651         F@CALL PRINT
15CA   306F           04652         MOVLW 'o'
                      04653         F@CALL PRINT
15CD   3020           04654         MOVLW ' '
                      04655         F@CALL PRINT
15D0   3073           04656         MOVLW 's'
                      04657         F@CALL PRINT
15D3   306C           04658         MOVLW 'l'
                      04659         F@CALL PRINT
15D6   3065           04660         MOVLW 'e'
                      04661         F@CALL PRINT
                      04662         F@CALL PRINT
15DB   3070           04663         MOVLW 'p'
                      04664         F@CALL PRINT
15DE   302E           04665         MOVLW '.'
                      04666         F@CALL PRINT
                      04667         F@CALL PRINT
  000015E3            04668 F15_000005 EQU $ ; in [GOSLEEP.INC] Pause 2000
15E3   3007           04669         MOVLW 7
15E4   00AF           04670         MOVWF PP1H
15E5   30D0           04671         MOVLW 208
                      04672         F@CALL DLY@W
  000015E8            04673 F15_000006 EQU $ ; in [GOSLEEP.INC] INTCON.4 = 1 'Allow a the pulse on PortB.0 to wake program from sleep
15E8   160B           04674         BSF INTCON,4
  000015E9            04675 F15_000007 EQU $ ; in [GOSLEEP.INC] INTCON.1 = 0  'Clear the interrupt flag for PortB.0
15E9   108B           04676         BCF INTCON,1
  000015EA            04677 F15_000008 EQU $ ; in [GOSLEEP.INC] LOW Red      'Turn off the Tri-Led
15EA   1087           04678         BCF PORTC,1
15EB   1683           04679         BSF STATUS,5
  00000001            04680 RAM_BANK = 1
15EC   1087           04681         BCF TRISC,1
  000015ED            04682 F15_000009 EQU $ ; in [GOSLEEP.INC] LOW Green  'Turn off the Tri-Led
15ED   1283           04683         BCF STATUS,5
  00000000            04684 RAM_BANK = 0
15EE   1107           04685         BCF PORTC,2
15EF   1683           04686         BSF STATUS,5
  00000001            04687 RAM_BANK = 1
15F0   1107           04688         BCF TRISC,2
  000015F1            04689 F15_000010 EQU $ ; in [GOSLEEP.INC] Sleep    'Chip goes into low power until it is triggered by a High to Low pulse on PortB.0
15F1   0063           04690         SLEEP
  000015F2            04691 F15_000011 EQU $ ; in [GOSLEEP.INC] INTCON.4 = 0 'Stop any pulse from waking up program cause we just woke up
15F2   120B           04692         BCF INTCON,4
  000015F3            04693 F15_000012 EQU $ ; in [GOSLEEP.INC] CLS
15F3   1283           04694         BCF STATUS,5
  00000000            04695 RAM_BANK = 0
                      04696         F@CALL LCD@CLS
  000015F6            04697 F15_000013 EQU $ ; in [GOSLEEP.INC] Print AT 1,1, "I just woke up!!"
15F6   3080           04698         MOVLW 128
15F7   00A1           04699         MOVWF BPFH
15F8   3080           04700         MOVLW 128
                      04701         F@CALL LCD@CRS
15FB   3049           04702         MOVLW 'I'
                      04703         F@CALL PRINT
15FE   3020           04704         MOVLW ' '
                      04705         F@CALL PRINT
1601   306A           04706         MOVLW 'j'
                      04707         F@CALL PRINT
1604   3075           04708         MOVLW 'u'
                      04709         F@CALL PRINT
1607   3073           04710         MOVLW 's'
                      04711         F@CALL PRINT
160A   3074           04712         MOVLW 't'
                      04713         F@CALL PRINT
160D   3020           04714         MOVLW ' '
                      04715         F@CALL PRINT
1610   3077           04716         MOVLW 'w'
                      04717         F@CALL PRINT
1613   306F           04718         MOVLW 'o'
                      04719         F@CALL PRINT
1616   306B           04720         MOVLW 'k'
                      04721         F@CALL PRINT
1619   3065           04722         MOVLW 'e'
                      04723         F@CALL PRINT
161C   3020           04724         MOVLW ' '
                      04725         F@CALL PRINT
161F   3075           04726         MOVLW 'u'
                      04727         F@CALL PRINT
1622   3070           04728         MOVLW 'p'
                      04729         F@CALL PRINT
1625   3021           04730         MOVLW '!'
                      04731         F@CALL PRINT
                      04732         F@CALL PRINT
  0000162A            04733 F15_000018 EQU $ ; in [GOSLEEP.INC] Pause 500
162A   3001           04734         MOVLW 1
162B   00AF           04735         MOVWF PP1H
162C   30F4           04736         MOVLW 244
                      04737         F@CALL DLY@W
  0000162F            04738 F15_000019 EQU $ ; in [GOSLEEP.INC] CE[0] = 0
162F   01CA           04739         CLRF CE#0
  00001630            04740 F15_000020 EQU $ ; in [GOSLEEP.INC] CE[1] = 0
1630   01CB           04741         CLRF CE#1
  00001631            04742 F15_000021 EQU $ ; in [GOSLEEP.INC] CE[2] = 0
1631   01CC           04743         CLRF CE#2
  00001632            04744 F15_000023 EQU $ ; in [GOSLEEP.INC] GoSub WriteH      'Here we will go write "000000" into the history file
                      04745         F@CALL WRITEH
  00001635            04746 F15_000025 EQU $ ; in [GOSLEEP.INC] DELAYMS 60000     'Wait until unit has been started
1635   30EA           04747         MOVLW 234
1636   00AF           04748         MOVWF PP1H
1637   3060           04749         MOVLW 96
                      04750         F@CALL DLY@W
  0000163A            04751 F15_000026 EQU $ ; in [GOSLEEP.INC] Goto GoSleep      'Go back to sleep
                      04752         F@JUMP GOSLEEP
  0000163D            04753 F15_EOF EQU $ ; GOSLEEP.INC
  0000163D            04754 F16_SOF EQU $ ; BINARY.INC
163D                  04755 SPLIT
  0000163D            04756 F16_000002 EQU $ ; in [BINARY.INC] B1 = CE[0]
163D   084A           04757         MOVFW CE#0
163E   00BD           04758         MOVWF B1
  0000163F            04759 F16_000003 EQU $ ; in [BINARY.INC] B2 = 0
163F   01BE           04760         CLRF B2
  00001640            04761 F16_000004 EQU $ ; in [BINARY.INC] B2.3 = B1.7
                      04762 ; Bit_Bit B1,7,B2,3
1640   15BE           04763         BSF B2,3
1641   1FBD           04764         BTFSS B1,7
1642   11BE           04765         BCF B2,3
  00001643            04766 F16_000005 EQU $ ; in [BINARY.INC] B2.2 = B1.6
                      04767 ; Bit_Bit B1,6,B2,2
1643   153E           04768         BSF B2,2
1644   1F3D           04769         BTFSS B1,6
1645   113E           04770         BCF B2,2
  00001646            04771 F16_000006 EQU $ ; in [BINARY.INC] B2.1 = B1.5
                      04772 ; Bit_Bit B1,5,B2,1
1646   14BE           04773         BSF B2,1
1647   1EBD           04774         BTFSS B1,5
1648   10BE           04775         BCF B2,1
  00001649            04776 F16_000007 EQU $ ; in [BINARY.INC] B2.0 = B1.4
                      04777 ; Bit_Bit B1,4,B2,0
1649   143E           04778         BSF B2,0
164A   1E3D           04779         BTFSS B1,4
164B   103E           04780         BCF B2,0
  0000164C            04781 F16_000008 EQU $ ; in [BINARY.INC] EmpIN[0] = B2
164C   083E           04782         MOVFW B2
164D   00C4           04783         MOVWF EMPIN#0
  0000164E            04784 F16_000009 EQU $ ; in [BINARY.INC] B2 = 0
164E   01BE           04785         CLRF B2
  0000164F            04786 F16_000010 EQU $ ; in [BINARY.INC] B2.3 = B1.3
                      04787 ; Bit_Bit B1,3,B2,3
164F   15BE           04788         BSF B2,3
1650   1DBD           04789         BTFSS B1,3
1651   11BE           04790         BCF B2,3
  00001652            04791 F16_000011 EQU $ ; in [BINARY.INC] B2.2 = B1.2
                      04792 ; Bit_Bit B1,2,B2,2
1652   153E           04793         BSF B2,2
1653   1D3D           04794         BTFSS B1,2
1654   113E           04795         BCF B2,2
  00001655            04796 F16_000012 EQU $ ; in [BINARY.INC] B2.1 = B1.1
                      04797 ; Bit_Bit B1,1,B2,1
1655   14BE           04798         BSF B2,1
1656   1CBD           04799         BTFSS B1,1
1657   10BE           04800         BCF B2,1
  00001658            04801 F16_000013 EQU $ ; in [BINARY.INC] B2.0 = B1.0
                      04802 ; Bit_Bit B1,0,B2,0
1658   143E           04803         BSF B2,0
1659   1C3D           04804         BTFSS B1,0
165A   103E           04805         BCF B2,0
  0000165B            04806 F16_000014 EQU $ ; in [BINARY.INC] EmpIN[1] = B2
165B   083E           04807         MOVFW B2
165C   00C5           04808         MOVWF EMPIN#1
  0000165D            04809 F16_000016 EQU $ ; in [BINARY.INC] B1 = CE[1]
165D   084B           04810         MOVFW CE#1
165E   00BD           04811         MOVWF B1
  0000165F            04812 F16_000017 EQU $ ; in [BINARY.INC] B2 = 0
165F   01BE           04813         CLRF B2
  00001660            04814 F16_000018 EQU $ ; in [BINARY.INC] B2.3 = B1.7
                      04815 ; Bit_Bit B1,7,B2,3
1660   15BE           04816         BSF B2,3
1661   1FBD           04817         BTFSS B1,7
1662   11BE           04818         BCF B2,3
  00001663            04819 F16_000019 EQU $ ; in [BINARY.INC] B2.2 = B1.6
                      04820 ; Bit_Bit B1,6,B2,2
1663   153E           04821         BSF B2,2
1664   1F3D           04822         BTFSS B1,6
1665   113E           04823         BCF B2,2
  00001666            04824 F16_000020 EQU $ ; in [BINARY.INC] B2.1 = B1.5
                      04825 ; Bit_Bit B1,5,B2,1
1666   14BE           04826         BSF B2,1
1667   1EBD           04827         BTFSS B1,5
1668   10BE           04828         BCF B2,1
  00001669            04829 F16_000021 EQU $ ; in [BINARY.INC] B2.0 = B1.4
                      04830 ; Bit_Bit B1,4,B2,0
1669   143E           04831         BSF B2,0
166A   1E3D           04832         BTFSS B1,4
166B   103E           04833         BCF B2,0
  0000166C            04834 F16_000022 EQU $ ; in [BINARY.INC] EmpIN[2] = B2
166C   083E           04835         MOVFW B2
166D   00C6           04836         MOVWF EMPIN#2
  0000166E            04837 F16_000023 EQU $ ; in [BINARY.INC] B2 = 0
166E   01BE           04838         CLRF B2
  0000166F            04839 F16_000024 EQU $ ; in [BINARY.INC] B2.3 = B1.3
                      04840 ; Bit_Bit B1,3,B2,3
166F   15BE           04841         BSF B2,3
1670   1DBD           04842         BTFSS B1,3
1671   11BE           04843         BCF B2,3
  00001672            04844 F16_000025 EQU $ ; in [BINARY.INC] B2.2 = B1.2
                      04845 ; Bit_Bit B1,2,B2,2
1672   153E           04846         BSF B2,2
1673   1D3D           04847         BTFSS B1,2
1674   113E           04848         BCF B2,2
  00001675            04849 F16_000026 EQU $ ; in [BINARY.INC] B2.1 = B1.1
                      04850 ; Bit_Bit B1,1,B2,1
1675   14BE           04851         BSF B2,1
1676   1CBD           04852         BTFSS B1,1
1677   10BE           04853         BCF B2,1
  00001678            04854 F16_000027 EQU $ ; in [BINARY.INC] B2.0 = B1.0
                      04855 ; Bit_Bit B1,0,B2,0
1678   143E           04856         BSF B2,0
1679   1C3D           04857         BTFSS B1,0
167A   103E           04858         BCF B2,0
  0000167B            04859 F16_000028 EQU $ ; in [BINARY.INC] EmpIN[3] = B2
167B   083E           04860         MOVFW B2
167C   00C7           04861         MOVWF EMPIN#3
  0000167D            04862 F16_000030 EQU $ ; in [BINARY.INC] B1 = CE[2]
167D   084C           04863         MOVFW CE#2
167E   00BD           04864         MOVWF B1
  0000167F            04865 F16_000031 EQU $ ; in [BINARY.INC] B2 = 0
167F   01BE           04866         CLRF B2
  00001680            04867 F16_000032 EQU $ ; in [BINARY.INC] B2.3 = B1.7
                      04868 ; Bit_Bit B1,7,B2,3
1680   15BE           04869         BSF B2,3
1681   1FBD           04870         BTFSS B1,7
1682   11BE           04871         BCF B2,3
  00001683            04872 F16_000033 EQU $ ; in [BINARY.INC] B2.2 = B1.6
                      04873 ; Bit_Bit B1,6,B2,2
1683   153E           04874         BSF B2,2
1684   1F3D           04875         BTFSS B1,6
1685   113E           04876         BCF B2,2
  00001686            04877 F16_000034 EQU $ ; in [BINARY.INC] B2.1 = B1.5
                      04878 ; Bit_Bit B1,5,B2,1
1686   14BE           04879         BSF B2,1
1687   1EBD           04880         BTFSS B1,5
1688   10BE           04881         BCF B2,1
  00001689            04882 F16_000035 EQU $ ; in [BINARY.INC] B2.0 = B1.4
                      04883 ; Bit_Bit B1,4,B2,0
1689   143E           04884         BSF B2,0
168A   1E3D           04885         BTFSS B1,4
168B   103E           04886         BCF B2,0
  0000168C            04887 F16_000036 EQU $ ; in [BINARY.INC] EmpIN[4] = B2
168C   083E           04888         MOVFW B2
168D   00C8           04889         MOVWF EMPIN#4
  0000168E            04890 F16_000037 EQU $ ; in [BINARY.INC] B2 = 0
168E   01BE           04891         CLRF B2
  0000168F            04892 F16_000038 EQU $ ; in [BINARY.INC] B2.3 = B1.3
                      04893 ; Bit_Bit B1,3,B2,3
168F   15BE           04894         BSF B2,3
1690   1DBD           04895         BTFSS B1,3
1691   11BE           04896         BCF B2,3
  00001692            04897 F16_000039 EQU $ ; in [BINARY.INC] B2.2 = B1.2
                      04898 ; Bit_Bit B1,2,B2,2
1692   153E           04899         BSF B2,2
1693   1D3D           04900         BTFSS B1,2
1694   113E           04901         BCF B2,2
  00001695            04902 F16_000040 EQU $ ; in [BINARY.INC] B2.1 = B1.1
                      04903 ; Bit_Bit B1,1,B2,1
1695   14BE           04904         BSF B2,1
1696   1CBD           04905         BTFSS B1,1
1697   10BE           04906         BCF B2,1
  00001698            04907 F16_000041 EQU $ ; in [BINARY.INC] B2.0 = B1.0
                      04908 ; Bit_Bit B1,0,B2,0
1698   143E           04909         BSF B2,0
1699   1C3D           04910         BTFSS B1,0
169A   103E           04911         BCF B2,0
  0000169B            04912 F16_000042 EQU $ ; in [BINARY.INC] EmpIN[5] = B2
169B   083E           04913         MOVFW B2
169C   00C9           04914         MOVWF EMPIN#5
  0000169D            04915 F16_000044 EQU $ ; in [BINARY.INC] Return
169D   0008           04916         RETURN
  0000169E            04917 F16_EOF EQU $ ; BINARY.INC
  0000169E            04918 F17_SOF EQU $ ; SOUND.INC
169E                  04919 GOODSOUND
  0000169E            04920 F17_000002 EQU $ ; in [SOUND.INC] GoodSound:    Sound SPIN, [123,20]
169E   3007           04921         MOVLW PORTC
169F   00A2           04922         MOVWF GEN
16A0   3010           04923         MOVLW 16
16A1   00A6           04924         MOVWF GENH
16A2   307B           04925         MOVLW 123
16A3   00AE           04926         MOVWF PP1
16A4   3014           04927         MOVLW 20
                      04928         F@CALL NOISE
  000016A7            04929 F17_000003 EQU $ ; in [SOUND.INC] Pause 30
16A7   301E           04930         MOVLW 30
                      04931         F@CALL DL@MS
  000016AA            04932 F17_000004 EQU $ ; in [SOUND.INC] Sound SPin, [123,20]
16AA   3007           04933         MOVLW PORTC
16AB   00A2           04934         MOVWF GEN
16AC   3010           04935         MOVLW 16
16AD   00A6           04936         MOVWF GENH
16AE   307B           04937         MOVLW 123
16AF   00AE           04938         MOVWF PP1
16B0   3014           04939         MOVLW 20
                      04940         F@CALL NOISE
  000016B3            04941 F17_000005 EQU $ ; in [SOUND.INC] Return
16B3   0008           04942         RETURN
16B4                  04943 BADSOUND
  000016B4            04944 F17_000009 EQU $ ; in [SOUND.INC] BadSound:   Sound SPin, [107,40]
16B4   3007           04945         MOVLW PORTC
16B5   00A2           04946         MOVWF GEN
16B6   3010           04947         MOVLW 16
16B7   00A6           04948         MOVWF GENH
16B8   306B           04949         MOVLW 107
16B9   00AE           04950         MOVWF PP1
16BA   3028           04951         MOVLW 40
                      04952         F@CALL NOISE
  000016BD            04953 F17_000010 EQU $ ; in [SOUND.INC] Pause 10
16BD   300A           04954         MOVLW 10
                      04955         F@CALL DL@MS
  000016C0            04956 F17_000011 EQU $ ; in [SOUND.INC] Sound SPin, [97,40]
16C0   3007           04957         MOVLW PORTC
16C1   00A2           04958         MOVWF GEN
16C2   3010           04959         MOVLW 16
16C3   00A6           04960         MOVWF GENH
16C4   3061           04961         MOVLW 97
16C5   00AE           04962         MOVWF PP1
16C6   3028           04963         MOVLW 40
                      04964         F@CALL NOISE
  000016C9            04965 F17_000012 EQU $ ; in [SOUND.INC] Return
16C9   0008           04966         RETURN
  000016CA            04967 F17_EOF EQU $ ; SOUND.INC
                      04968         END
MPASM 03.50.03 Released                          RFIDSY~1.ASM   11-6-2008  17:10:35         PAGE  3


SYMBOL TABLE
  LABEL                             VALUE 

ACKDT                             00000005
ACKEN                             00000004
ACKSTAT                           00000006
ADCON0                            0000001F
ADCON1                            0000009F
ADCS0                             00000006
ADCS1                             00000007
ADDEN                             00000003
ADDNEWUSER                        00000359
ADFM                              00000007
ADIE                              00000006
ADIF                              00000006
ADON                              00000000
ADRES                             0000009E
ADRESH                            0000001E
ADRESL                            0000009E
ADRESLH                           0000001E
ANULOOP2                          00000365
B1                                0000003D
B2                                0000003E
BADSOUND                          000016B4
BANK0_END                         0000007F
BANK0_START                       00000020
BANK1_END                         000000EF
BANK1_START                       000000A0
BANK2_END                         0000016F
BANK2_START                       00000110
BANK3_END                         000001EF
BANK3_START                       00000190
BC@LL1                            0000019F
BC@LL100                          00000AE3
BC@LL103                          00000AAA
BC@LL104                          00000AE0
BC@LL106                          00000B07
BC@LL108                          00000B01
BC@LL109                          00000B04
BC@LL111                          00000B13
BC@LL113                          00000B16
BC@LL115                          00000B62
BC@LL117                          00000BAE
BC@LL119                          00000BFA
BC@LL120                          00000C19
BC@LL121                          00000C2A
BC@LL123                          00000C34
BC@LL127                          00000C5B
BC@LL128                          00000C5C
BC@LL13                           000002B2
BC@LL130                          00000C68
BC@LL132                          00000C71
BC@LL133                          00000D27
BC@LL134                          00000D18
BC@LL137                          00000D24
BC@LL139                          00000D27
BC@LL14                           00000358
BC@LL141                          00000D46
BC@LL142                          00000D6B
BC@LL146                          00000D73
BC@LL147                          00000D79
BC@LL148                          00000D9C
BC@LL15                           000002D8
BC@LL150                          00000D93
BC@LL151                          00000D96
BC@LL153                          00000DA1
BC@LL155                          00000DAC
BC@LL156                          00000F74
BC@LL157                          00000E61
BC@LL160                          00000F71
BC@LL166                          00000F24
BC@LL167                          00000F2B
BC@LL169                          00000F74
BC@LL177                          00000FDF
BC@LL18                           000002E3
BC@LL183                          00001029
BC@LL184                          0000133F
BC@LL185                          00001103
BC@LL188                          000011AE
BC@LL190                          00001148
BC@LL191                          000011AB
BC@LL193                          000012B2
BC@LL194                          000012AF
BC@LL195                          000012A6
BC@LL198                          000012AF
BC@LL2                            000001A7
BC@LL20                           000002EE
BC@LL200                          0000133C
BC@LL202                          00001337
BC@LL204                          0000133F
BC@LL205                          00001486
BC@LL206                          000013E2
BC@LL209                          00001483
BC@LL211                          0000147D
BC@LL213                          00001486
BC@LL215                          000014E7
BC@LL22                           000002F9
BC@LL24                           00000304
BC@LL26                           0000030F
BC@LL28                           0000031A
BC@LL30                           00000325
BC@LL32                           00000330
BC@LL34                           0000033B
BC@LL36                           00000345
BC@LL38                           00000350
BC@LL4                            000001D4
BC@LL40                           00000358
BC@LL42                           0000041C
BC@LL44                           0000041A
BC@LL45                           0000041C
BC@LL47                           0000042C
BC@LL49                           000005C7
BC@LL50                           000005A6
BC@LL51                           00000509
BC@LL54                           000005A4
BC@LL56                           000005A6
BC@LL58                           000005C4
BC@LL59                           000005C7
BC@LL6                            00000236
BC@LL62                           000006C4
BC@LL63                           000006B6
BC@LL66                           000006C2
BC@LL68                           000006C4
BC@LL69                           000007CF
BC@LL7                            0000027B
BC@LL70                           0000078D
BC@LL73                           000007CD
BC@LL75                           000007CF
BC@LL76                           000008E5
BC@LL77                           000008B3
BC@LL80                           0000087A
BC@LL81                           000008B0
BC@LL83                           000008D7
BC@LL85                           000008D1
BC@LL86                           000008D4
BC@LL88                           000008E3
BC@LL9                            00000290
BC@LL90                           000008E5
BC@LL92                           00000931
BC@LL94                           0000097D
BC@LL96                           000009C9
BC@LL97                           000009E8
BC@LL98                           000009F9
BC@LL99                           00000B16
BCLIE                             00000003
BCLIF                             00000003
BF                                00000000
BIT_BIT                           
BIT_BYTE                          
BIT_DWORD                         
BIT_WORD                          
BIT_WREG                          
BODEN_OFF                         00003FBF
BODEN_ON                          00003FFF
BPF                               00000020
BPFH                              00000021
BRGH                              00000002
BYTE_BIT                          
BYTE_BYTE                         
BYTE_DWORD                        
BYTE_WORD                         
BYTE_WREG                         
C                                 00000000
C1INV                             00000004
C1OUT                             00000006
C2INV                             00000005
C2OUT                             00000007
C@BT                              00000137
C@TBL                             0000013C
CCP1CON                           00000017
CCP1IE                            00000002
CCP1IF                            00000002
CCP1M0                            00000000
CCP1M1                            00000001
CCP1M2                            00000002
CCP1M3                            00000003
CCP1X                             00000005
CCP1Y                             00000004
CCP2CON                           0000001D
CCP2IE                            00000000
CCP2IF                            00000000
CCP2M0                            00000000
CCP2M1                            00000001
CCP2M2                            00000002
CCP2M3                            00000003
CCP2X                             00000005
CCP2Y                             00000004
CCPR1H                            00000016
CCPR1L                            00000015
CCPR1LH                           00000016
CCPR2H                            0000001C
CCPR2L                            0000001B
CCPR2LH                           0000001C
CE                                0000004A
CE#0                              0000004A
CE#1                              0000004B
CE#2                              0000004C
CH@SND                            000000BD
CHECKTAG                          00000D6B
CHECKUSER                         00000C2D
CHS0                              00000003
CHS1                              00000004
CHS2                              00000005
CIS                               00000003
CKE                               00000006
CKP                               00000004
CLS                               00000006
CM0                               00000000
CM1                               00000001
CM2                               00000002
CMCON                             0000009C
CMIE                              00000006
CMIF                              00000006
COL                               0000005F
CONFIG_REQ                        1
CPD_OFF                           00003FFF
CPD_ON                            00003EFF
CP_ALL                            00001FFF
CP_OFF                            00003FFF
CREN                              00000004
CSRC                              00000007
CT                                00000057
CT#0                              00000057
CT#1                              00000058
CT#2                              00000059
CT#3                              0000005A
CT#4                              0000005B
CURRENTLINE                       00000040
CURS@                             00000010
CVR0                              00000000
CVR1                              00000001
CVR2                              00000002
CVR3                              00000003
CVRCON                            0000009D
CVREN                             00000007
CVROE                             00000006
CVRR                              00000005
D@DIG                             0000002E
D@VD                              00000144
D@VD2                             00000146
DATA_ADDRESS                      00000005
DC                                00000001
DC@D                              00000160
DEBUG_OFF                         00003FFF
DEBUG_ON                          000037FF
DELETETAG                         000005A6
DELETEUSER                        00000D27
DL@MS                             00000115
DL@US                             00000122
DLUS@W                            00000123
DLY@W                             00000116
DWORD_BIT                         
DWORD_BYTE                        
DWORD_DWORD                       
DWORD_WORD                        
DWORD_WREG                        
D_A                               00000005
EEADR                             0000010D
EEADRH                            0000010F
EECON1                            0000018C
EECON2                            0000018D
EEDAT                             0000010C
EEDATA                            0000010C
EEDATH                            0000010E
EEIE                              00000004
EEIF                              00000004
EEPGD                             00000007
EE_RD                             000000BF
EE_RD@W                           000000C1
EE_WR                             000000C9
EE_WR@W                           000000C9
EMPIN                             00000044
EMPIN#0                           00000044
EMPIN#1                           00000045
EMPIN#2                           00000046
EMPIN#3                           00000047
EMPIN#4                           00000048
EMPIN#5                           00000049
EMPLOYEEEXISTS                    00000C76
ENDLINE                           00000042
F                                 00000001
F10_000003                        00000F74
F10_000004                        00000F7B
F10_000005                        00000F80
F10_000006                        00000F88
F10_000008                        00000F8D
F10_000009                        00000F94
F10_000010                        00000F99
F10_000011                        00000FA6
F10_000012                        00000FAB
F10_000014                        00000FAD
F10_000015                        00000FAF
F10_000016                        00000FB6
F10_000019                        00000FB7
F10_000020                        00000FBE
F10_000021                        00000FC8
F10_000022                        00000FCD
F10_EOF                           00000FCE
F10_SOF                           00000F74
F11_000005                        00000FCE
F11_000006                        00000FD0
F11_000008                        00000FD2
F11_000009                        00000FD6
F11_000013                        00000FDF
F11_000014                        00000FE6
F11_000015                        00000FF2
F11_000016                        00000FFA
F11_000017                        00000FFF
F11_000018                        00001001
F11_000021                        00001004
F11_000022                        0000100B
F11_000023                        00001010
F11_000024                        00001018
F11_000026                        0000101D
F11_000027                        00001021
F11_000028                        00001029
F11_000029                        00001030
F11_EOF                           00001031
F11_SOF                           00000FCE
F12_000003                        00001031
F12_000004                        00001033
F12_000005                        00001067
F12_000006                        00001099
F12_000007                        000010C7
F12_000009                        000010F6
F12_000010                        000010F8
F12_000011                        000010F8
F12_000012                        000010FE
F12_000015                        00001103
F12_000016                        00001109
F12_000017                        0000110B
F12_000018                        0000110E
F12_000019                        00001110
F12_000020                        00001114
F12_000021                        0000113D
F12_000022                        00001142
F12_000023                        00001148
F12_000024                        00001148
F12_000025                        0000116E
F12_000026                        000011A3
F12_000027                        000011A8
F12_000028                        000011AB
F12_000029                        000011AE
F12_000030                        000011B4
F12_000031                        000011B6
F12_000032                        000011D3
F12_000033                        000011F8
F12_000034                        00001218
F12_000035                        00001235
F12_000036                        00001237
F12_000037                        00001237
F12_000038                        0000123D
F12_000039                        0000123F
F12_000040                        0000125E
F12_000041                        00001292
F12_000042                        00001297
F12_000043                        00001299
F12_000044                        000012A0
F12_000045                        000012A6
F12_000046                        000012AC
F12_000047                        000012AF
F12_000048                        000012B2
F12_000049                        000012B8
F12_000050                        000012BE
F12_000051                        000012C0
F12_000052                        000012E9
F12_000053                        00001312
F12_000054                        0000132F
F12_000055                        00001334
F12_000056                        00001337
F12_000058                        00001337
F12_000060                        00001339
F12_000061                        0000133C
F12_000062                        0000133F
F12_EOF                           0000133F
F12_SOF                           00001031
F13_000005                        0000133F
F13_000006                        00001341
F13_000007                        00001376
F13_000008                        000013A8
F13_000009                        000013D4
F13_000010                        000013D6
F13_000011                        000013D6
F13_000012                        000013DC
F13_000013                        000013E2
F13_000014                        000013E8
F13_000015                        000013EC
F13_000016                        000013F2
F13_000017                        000013F4
F13_000018                        0000141A
F13_000019                        00001443
F13_000020                        00001475
F13_000021                        0000147A
F13_000022                        0000147D
F13_000024                        0000147D
F13_000026                        00001480
F13_000027                        00001483
F13_000028                        00001486
F13_EOF                           00001486
F13_SOF                           0000133F
F14_000003                        00001486
F14_000004                        00001489
F14_000006                        0000148D
F14_000007                        00001491
F14_000008                        00001494
F14_000009                        00001498
F14_000010                        0000149A
F14_000013                        000014C6
F14_000014                        000014C9
F14_000015                        000014D1
F14_000016                        000014D5
F14_000017                        000014DB
F14_000018                        000014E0
F14_000019                        000014E3
F14_000021                        000014E7
F14_000023                        000014E7
F14_000024                        000014E9
F14_000025                        00001512
F14_000026                        00001538
F14_000027                        0000153F
F14_000028                        00001549
F14_000030                        0000154E
F14_000031                        00001551
F14_000034                        00001554
F14_000035                        00001558
F14_000036                        0000155C
F14_000037                        00001564
F14_000038                        00001568
F14_000039                        0000156E
F14_000040                        00001573
F14_000042                        00001576
F14_000043                        0000157C
F14_000044                        0000157F
F14_000045                        00001583
F14_000047                        00001586
F14_000051                        00001589
F14_000053                        0000158C
F14_000054                        00001590
F14_000055                        00001598
F14_000056                        0000159C
F14_000057                        000015A2
F14_000058                        000015A7
F14_000059                        000015AA
F14_EOF                           000015AE
F14_SOF                           00001486
F15_000003                        000015AE
F15_000004                        000015B0
F15_000005                        000015E3
F15_000006                        000015E8
F15_000007                        000015E9
F15_000008                        000015EA
F15_000009                        000015ED
F15_000010                        000015F1
F15_000011                        000015F2
F15_000012                        000015F3
F15_000013                        000015F6
F15_000018                        0000162A
F15_000019                        0000162F
F15_000020                        00001630
F15_000021                        00001631
F15_000023                        00001632
F15_000025                        00001635
F15_000026                        0000163A
F15_EOF                           0000163D
F15_SOF                           000015AE
F16_000002                        0000163D
F16_000003                        0000163F
F16_000004                        00001640
F16_000005                        00001643
F16_000006                        00001646
F16_000007                        00001649
F16_000008                        0000164C
F16_000009                        0000164E
F16_000010                        0000164F
F16_000011                        00001652
F16_000012                        00001655
F16_000013                        00001658
F16_000014                        0000165B
F16_000016                        0000165D
F16_000017                        0000165F
F16_000018                        00001660
F16_000019                        00001663
F16_000020                        00001666
F16_000021                        00001669
F16_000022                        0000166C
F16_000023                        0000166E
F16_000024                        0000166F
F16_000025                        00001672
F16_000026                        00001675
F16_000027                        00001678
F16_000028                        0000167B
F16_000030                        0000167D
F16_000031                        0000167F
F16_000032                        00001680
F16_000033                        00001683
F16_000034                        00001686
F16_000035                        00001689
F16_000036                        0000168C
F16_000037                        0000168E
F16_000038                        0000168F
F16_000039                        00001692
F16_000040                        00001695
F16_000041                        00001698
F16_000042                        0000169B
F16_000044                        0000169D
F16_EOF                           0000169E
F16_SOF                           0000163D
F17_000002                        0000169E
F17_000003                        000016A7
F17_000004                        000016AA
F17_000005                        000016B3
F17_000009                        000016B4
F17_000010                        000016BD
F17_000011                        000016C0
F17_000012                        000016C9
F17_EOF                           000016CA
F17_SOF                           0000169E
F1_000011                         00000181
F1_000060                         00000181
F1_000062                         00000183
F1_000063                         00000184
F1_000064                         00000186
F1_000065                         00000187
F1_000071                         00000189
F1_000072                         0000018B
F1_000073                         0000018E
F1_000074                         00000192
F1_000075                         00000196
F1_000076                         0000019A
F1_000077                         0000019E
F1_000078                         0000019F
F1_000079                         000001A7
F1_000087                         000001A8
F1_000088                         000001AE
F1_000089                         000001B0
F1_000091                         000001B6
F1_000092                         000001B8
F1_000094                         000001BC
F1_000095                         000001C1
F1_000096                         000001C8
F1_000097                         000001CA
F1_000098                         000001D1
F1_000099                         000001D4
F1_000100                         000001D4
F1_000102                         000001D8
F1_000103                         000001DC
F1_000104                         000001DE
F1_000105                         00000201
F1_000106                         0000022B
F1_000107                         00000230
F1_000109                         00000236
F1_000110                         00000236
F1_000111                         00000238
F1_000112                         00000255
F1_000113                         00000278
F1_000115                         0000027B
F1_SOF                            00000181
F2_000004                         0000027B
F2_000008                         0000027E
F2_000009                         0000027F
F2_000010                         00000282
F2_000011                         00000290
F2_000015                         00000293
F2_000016                         0000029A
F2_000017                         0000029B
F2_000018                         000002A5
F2_000019                         000002A9
F2_000020                         000002B2
F2_000021                         000002B7
F2_000024                         000002B9
F2_000025                         000002CD
F2_000026                         000002CD
F2_000027                         000002D3
F2_000028                         000002D8
F2_000029                         000002DE
F2_000030                         000002E3
F2_000031                         000002E9
F2_000032                         000002EE
F2_000033                         000002F4
F2_000034                         000002F9
F2_000035                         000002FF
F2_000036                         00000304
F2_000037                         0000030A
F2_000038                         0000030F
F2_000039                         00000315
F2_000040                         0000031A
F2_000041                         00000320
F2_000042                         00000325
F2_000043                         0000032B
F2_000044                         00000330
F2_000045                         00000336
F2_000046                         0000033B
F2_000047                         00000341
F2_000048                         00000345
F2_000049                         0000034B
F2_000050                         00000350
F2_000051                         00000356
F2_000052                         00000358
F2_000053                         00000358
F2_EOF                            00000359
F2_SOF                            0000027B
F3_000004                         00000359
F3_000006                         0000035B
F3_000007                         0000035F
F3_000009                         00000365
F3_000010                         00000368
F3_000011                         0000036A
F3_000012                         0000039B
F3_000013                         000003CD
F3_000014                         000003E7
F3_000015                         0000040C
F3_000017                         0000040E
F3_000018                         00000414
F3_000019                         0000041A
F3_000020                         0000041A
F3_000021                         0000041C
F3_000022                         0000041C
F3_000025                         0000041C
F3_000026                         0000041F
F3_000027                         00000422
F3_000028                         00000425
F3_000029                         0000042C
F3_000030                         0000042F
F3_000031                         00000433
F3_000032                         00000435
F3_000033                         00000438
F3_000034                         0000043B
F3_000035                         0000043E
F3_000036                         00000440
F3_000037                         0000046F
F3_000038                         00000498
F3_000039                         000004CA
F3_000040                         000004F9
F3_000041                         000004FB
F3_000042                         000004FD
F3_000043                         000004FD
F3_000044                         00000503
F3_000045                         00000509
F3_000046                         0000050F
F3_000047                         00000511
F3_000048                         00000536
F3_000049                         00000567
F3_000050                         0000057B
F3_000051                         00000580
F3_000052                         00000585
F3_000053                         0000058A
F3_000054                         0000058F
F3_000055                         00000594
F3_000056                         00000599
F3_000057                         0000059E
F3_000058                         000005A1
F3_000059                         000005A4
F3_000060                         000005A6
F3_000062                         000005A6
F3_000063                         000005B8
F3_000064                         000005BA
F3_000065                         000005C4
F3_000066                         000005C4
F3_000067                         000005C7
F3_000069                         000005C7
F3_000070                         000005C7
F3_000071                         000005CA
F3_000072                         000005CD
F3_000073                         000005CF
F3_000074                         000005F5
F3_000075                         00000612
F3_000076                         00000617
F3_EOF                            0000061A
F3_SOF                            00000359
F4_000003                         0000061A
F4_000004                         0000061C
F4_000005                         00000645
F4_000006                         00000668
F4_000007                         00000694
F4_000008                         0000069A
F4_000009                         000006A1
F4_000010                         000006A3
F4_000011                         000006A3
F4_000012                         000006A9
F4_000013                         000006AE
F4_000014                         000006B6
F4_000015                         000006BC
F4_000016                         000006BF
F4_000017                         000006C2
F4_000018                         000006C4
F4_000019                         000006C4
F4_000021                         000006C9
F4_000022                         000006CC
F4_000024                         000006CE
F4_000025                         000006D4
F4_000026                         000006D9
F4_000027                         000006DE
F4_000028                         000006E3
F4_000029                         000006E8
F4_000030                         000006ED
F4_000031                         000006F2
F4_000032                         00000726
F4_000033                         00000757
F4_000035                         00000780
F4_000036                         00000782
F4_000037                         00000782
F4_000038                         00000788
F4_000039                         0000078D
F4_000044                         00000793
F4_000045                         00000795
F4_000046                         00000797
F4_000047                         0000079A
F4_000048                         0000079D
F4_000049                         000007A0
F4_000050                         000007A3
F4_000052                         000007A5
F4_000053                         000007A7
F4_000054                         000007A9
F4_000055                         000007AC
F4_000056                         000007AF
F4_000057                         000007B2
F4_000058                         000007B5
F4_000060                         000007B7
F4_000061                         000007B9
F4_000062                         000007BB
F4_000063                         000007BE
F4_000064                         000007C1
F4_000065                         000007C4
F4_000066                         000007C7
F4_000069                         000007C9
F4_000070                         000007CA
F4_000071                         000007CD
F4_000072                         000007CF
F4_EOF                            000007CF
F4_SOF                            0000061A
F5_000007                         000007CF
F5_000008                         000007D0
F5_000012                         000007D2
F5_000013                         000007D4
F5_000014                         00000802
F5_000015                         00000824
F5_000016                         00000856
F5_000017                         0000085B
F5_000019                         0000085D
F5_000020                         0000085F
F5_000021                         00000861
F5_000022                         00000864
F5_000023                         00000866
F5_000024                         00000866
F5_000025                         0000086C
F5_000026                         00000872
F5_000027                         00000874
F5_000028                         0000087A
F5_000029                         0000087A
F5_000030                         0000087C
F5_000031                         000008A8
F5_000032                         000008AD
F5_000033                         000008B0
F5_000034                         000008B3
F5_000035                         000008B9
F5_000036                         000008C9
F5_000037                         000008CB
F5_000038                         000008D1
F5_000039                         000008D1
F5_000040                         000008D4
F5_000041                         000008D7
F5_000042                         000008DD
F5_000043                         000008E0
F5_000044                         000008E3
F5_000045                         000008E5
F5_000052                         000008E5
F5_000053                         000008E8
F5_000054                         000008EB
F5_000055                         00000902
F5_000056                         00000904
F5_000057                         0000090A
F5_000058                         00000930
F5_000059                         00000931
F5_000061                         00000931
F5_000062                         00000934
F5_000063                         00000937
F5_000064                         0000094E
F5_000065                         00000950
F5_000066                         00000956
F5_000067                         0000097C
F5_000068                         0000097D
F5_000070                         0000097D
F5_000071                         00000980
F5_000072                         00000983
F5_000073                         0000099A
F5_000074                         0000099C
F5_000075                         000009A2
F5_000076                         000009C8
F5_000077                         000009C9
F5_000079                         000009C9
F5_000080                         000009CC
F5_000081                         000009CF
F5_000082                         000009E6
F5_000089                         000009E7
F5_000090                         000009E8
F5_000091                         000009E8
F5_000092                         000009ED
F5_000093                         000009F2
F5_000094                         000009F3
F5_000095                         000009F9
F5_000096                         000009FB
F5_EOF                            000009FC
F5_SOF                            000007CF
F6_000005                         000009FC
F6_000006                         000009FE
F6_000009                         00000A00
F6_000010                         00000A02
F6_000011                         00000A30
F6_000012                         00000A52
F6_000013                         00000A84
F6_000014                         00000A89
F6_000016                         00000A8D
F6_000017                         00000A8F
F6_000018                         00000A91
F6_000019                         00000A94
F6_000020                         00000A96
F6_000021                         00000A96
F6_000022                         00000A9C
F6_000023                         00000AA2
F6_000024                         00000AA4
F6_000025                         00000AAA
F6_000026                         00000AAA
F6_000027                         00000AAC
F6_000028                         00000AD8
F6_000029                         00000ADD
F6_000030                         00000AE0
F6_000031                         00000AE3
F6_000032                         00000AE9
F6_000033                         00000AF9
F6_000034                         00000AFB
F6_000035                         00000B01
F6_000036                         00000B01
F6_000037                         00000B04
F6_000038                         00000B07
F6_000039                         00000B0D
F6_000040                         00000B10
F6_000041                         00000B13
F6_000042                         00000B16
F6_000049                         00000B16
F6_000050                         00000B19
F6_000051                         00000B1C
F6_000052                         00000B33
F6_000054                         00000B35
F6_000055                         00000B3B
F6_000056                         00000B61
F6_000057                         00000B62
F6_000059                         00000B62
F6_000060                         00000B65
F6_000061                         00000B68
F6_000062                         00000B7F
F6_000063                         00000B81
F6_000064                         00000B87
F6_000065                         00000BAD
F6_000066                         00000BAE
F6_000068                         00000BAE
F6_000069                         00000BB1
F6_000070                         00000BB4
F6_000071                         00000BCB
F6_000072                         00000BCD
F6_000073                         00000BD3
F6_000074                         00000BF9
F6_000075                         00000BFA
F6_000076                         00000BFA
F6_000077                         00000BFD
F6_000078                         00000C00
F6_000079                         00000C17
F6_000086                         00000C18
F6_000087                         00000C19
F6_000088                         00000C19
F6_000089                         00000C1E
F6_000090                         00000C23
F6_000091                         00000C24
F6_000092                         00000C2A
F6_000093                         00000C2C
F6_EOF                            00000C2D
F6_SOF                            000009FC
F7_000003                         00000C2D
F7_000004                         00000C33
F7_000005                         00000C34
F7_000007                         00000C34
F7_000009                         00000C36
F7_000010                         00000C38
F7_000011                         00000C3F
F7_000012                         00000C40
F7_000013                         00000C45
F7_000014                         00000C55
F7_000015                         00000C5B
F7_000016                         00000C5B
F7_000017                         00000C5C
F7_000018                         00000C5C
F7_000019                         00000C61
F7_000020                         00000C68
F7_000021                         00000C6A
F7_000022                         00000C71
F7_000023                         00000C73
F7_000025                         00000C76
F7_000026                         00000C79
F7_000027                         00000C7B
F7_000028                         00000CA4
F7_000029                         00000CCD
F7_000030                         00000CED
F7_000031                         00000D0A
F7_000032                         00000D0C
F7_000033                         00000D0C
F7_000034                         00000D12
F7_000035                         00000D18
F7_000036                         00000D1E
F7_000037                         00000D21
F7_000038                         00000D24
F7_000039                         00000D27
F7_000041                         00000D27
F7_000042                         00000D39
F7_000043                         00000D3B
F7_000044                         00000D42
F7_000045                         00000D46
F7_000046                         00000D46
F7_000047                         00000D48
F7_000049                         00000D4F
F7_000050                         00000D56
F7_000051                         00000D5B
F7_000052                         00000D63
F7_000053                         00000D68
F7_000054                         00000D6A
F7_000055                         00000D6B
F7_EOF                            00000D6B
F7_SOF                            00000C2D
F8_000004                         00000D6B
F8_000005                         00000D6C
F8_000006                         00000D72
F8_000007                         00000D73
F8_000008                         00000D73
F8_000009                         00000D75
F8_000010                         00000D77
F8_000011                         00000D78
F8_000012                         00000D79
F8_000013                         00000D79
F8_000014                         00000D83
F8_000015                         00000D8E
F8_000016                         00000D8F
F8_000017                         00000D93
F8_000018                         00000D93
F8_000019                         00000D94
F8_000020                         00000D96
F8_000021                         00000D96
F8_000022                         00000D9C
F8_000023                         00000DA1
F8_000024                         00000DA3
F8_000025                         00000DA5
F8_000026                         00000DAC
F8_000027                         00000DAE
F8_EOF                            00000DB1
F8_SOF                            00000D6B
F9_000002                         00000DB1
F9_000003                         00000DB3
F9_000004                         00000DD9
F9_000005                         00000E0D
F9_000006                         00000E21
F9_000008                         00000E53
F9_000009                         00000E55
F9_000010                         00000E55
F9_000011                         00000E5B
F9_000012                         00000E61
F9_000013                         00000E67
F9_000014                         00000E69
F9_000015                         00000E94
F9_000017                         00000EBA
F9_000018                         00000EBB
F9_000019                         00000EBE
F9_000020                         00000EC2
F9_000021                         00000EE5
F9_000023                         00000EE8
F9_000024                         00000EEE
F9_000025                         00000EF1
F9_000026                         00000EF3
F9_000027                         00000EFA
F9_000028                         00000EFC
F9_000029                         00000F03
F9_000030                         00000F05
F9_000031                         00000F0C
F9_000032                         00000F0E
F9_000033                         00000F15
F9_000034                         00000F17
F9_000035                         00000F1E
F9_000036                         00000F20
F9_000037                         00000F24
F9_000038                         00000F24
F9_000039                         00000F27
F9_000040                         00000F2B
F9_000043                         00000F2B
F9_000044                         00000F2E
F9_000045                         00000F32
F9_000046                         00000F34
F9_000047                         00000F66
F9_000048                         00000F6B
F9_000049                         00000F6E
F9_000050                         00000F71
F9_000051                         00000F74
F9_EOF                            00000F74
F9_SOF                            00000DB1
F@CALL                            
F@JUMP                            
FERR                              00000002
FLAG                              _B#VR1,0
FOOTER                            0000005C
FR@LB11                           00000294
FR@LB125                          00000C39
FR@LB144                          00000D50
FR@LB171                          00000F75
FR@LB173                          00000F8E
FR@LB175                          00000FB8
FR@LB179                          00000FE0
FR@LB181                          00001005
FR@LB217                          000014CB
FR@LB219                          00001539
FR@LB221                          0000155E
FR@LB223                          00001592
FR@LB61                           0000069B
FSR                               00000004
GCEN                              00000007
GEN                               00000022
GEN3H                             00000023
GEN4                              00000024
GEN4H                             00000025
GENH                              00000026
GET#                              000009E7
GETEMPLOOP1                       000006A1
GETEMPLOOP2                       00000780
GETEMPLOYEE#                      0000061A
GETKEY                            0000027B
GETKEYP                           00000293
GETKEYU                           0000027E
GETUSER#                          00000C18
GIE                               INTCON,7
GO                                00000002
GOODSOUND                         0000169E
GOSLEEP                           000015AE
GOTKEY                            000002B9
GO_DONE                           00000002
GREEN                             PORTC,2
H@RSIN                            000000BA
HHDETECT                          PORTC,3
HRSIN                             000000B5
HRSIN2                            00000094
HSERIAL_BAUD                      00000960
HSERIAL_RCSTA                     00000090
HSERIAL_SPBRG                     00000019
HSERIAL_TXSTA                     00000020
HS_OSC                            00003FFE
I2C_DATA                          00000005
I2C_RD                            00000002
I@NT                              00000173
I@NT2                             00000174
IBF                               00000007
IBOV                              00000005
INDEX                             0000003A
INDEX2                            0000003B
INDF                              00000000
INTCON                            0000000B
INTE                              00000004
INTEDG                            00000006
INTF                              00000001
IRP                               00000007
JUMP                              
KEY                               00000061
LASTUSER                          00000043
LCD@CLS                           00000004
LCD@CRS                           0000000E
LCD_DTPIN                         00000000
LCD_DTPORT                        00000008
LCD_ENPIN                         00000006
LCD_ENPORT                        00000008
LCD_INTERFACE                     00000004
LCD_LINES                         00000002
LCD_RSPIN                         00000007
LCD_RSPORT                        00000008
LCD_TYPE                          00000000
LP_OSC                            00003FFC
LVP_OFF                           00003F7F
LVP_ON                            00003FFF
MAINMENU                          0000133F
MOVESPOT                          00000D46
N@LP                              000000E5
N@LP1                             000000E8
NCD@P                             0000016B
NCD@W                             0000016A
NEXTTAG                           00000D77
NEXTUSER                          00000C38
NOISE                             000000D9
NOT_A                             00000005
NOT_ADDRESS                       00000005
NOT_BO                            00000000
NOT_BOR                           00000000
NOT_DONE                          00000002
NOT_PD                            00000003
NOT_POR                           00000001
NOT_RBPU                          00000007
NOT_RC8                           00000006
NOT_T1SYNC                        00000002
NOT_TO                            00000004
NOT_TX8                           00000006
NOT_W                             00000002
NOT_WRITE                         00000002
NUA                               0000005D
NUM_BIT                           
NUM_BYTE                          
NUM_DWORD                         
NUM_WORD                          
NUM_WREG                          
NX@LB12                           000002B7
NX@LB126                          00000C61
NX@LB145                          00000D68
NX@LB172                          00000F8D
NX@LB174                          00000FAB
NX@LB176                          00000FCD
NX@LB180                          00000FFF
NX@LB182                          0000101D
NX@LB218                          000014E0
NX@LB220                          0000154E
NX@LB222                          00001573
NX@LB224                          000015A7
NX@LB62                           000006C9
OBF                               00000006
OERR                              00000001
OPTION_REG                        00000081
OUT@DEC                           00000018
OUT@DECB                          00000015
OUT@DECC                          00000016
PB@LB162                          00000EC6
PB@LB165                          00000ED2
PBP#RND                           00000027
PBP#RNDH                          00000028
PBP#VAR0                          00000029
PBP#VAR0H                         0000002A
PBP#VAR1                          0000002B
PCFG0                             00000000
PCFG1                             00000001
PCFG2                             00000002
PCFG3                             00000003
PCL                               00000002
PCLATH                            0000000A
PCON                              0000008E
PEIE                              00000006
PEN                               00000002
PIE1                              0000008C
PIE2                              0000008D
PIR1                              0000000C
PIR2                              0000000D
PORTA                             00000005
PORTB                             00000006
PORTC                             00000007
PORTD                             00000008
PORTE                             00000009
PP0                               0000002C
PP0H                              0000002D
PP1                               0000002E
PP1H                              0000002F
PP2                               00000030
PP2H                              00000031
PP3                               00000032
PP3H                              00000033
PP4                               00000034
PP5                               00000035
PP6                               00000036
PP6H                              00000037
PP7                               00000038
PP7H                              00000039
PR2                               00000092
PR@EX                             00000092
PR@LP                             00000085
PRINT                             00000046
PRINTHISTORY                      00000B16
PRINTUSER                         000008E5
PRT@1                             00000070
PRT@C                             0000006F
PRT@S                             00000083
PS0                               00000000
PS1                               00000001
PS2                               00000002
PSA                               00000003
PSPIE                             00000007
PSPIF                             00000007
PSPMODE                           00000004
PWRTE_OFF                         00003FFF
PWRTE_ON                          00003FF7
R@B                               
RAM_BANK                          00000000
RAM_BANKS                         00000004
RBIE                              00000003
RBIF                              00000000
RC8_9                             00000006
RC9                               00000006
RCD8                              00000000
RCEN                              00000003
RCIE                              00000005
RCIF                              00000005
RCREG                             0000001A
RCSTA                             00000018
RC_OSC                            00003FFF
RD                                00000000
READAGAIN                         00000EBA
READTAG                           00000DB1
READ_WRITE                        00000002
RED                               PORTC,1
RFIDENABLE                        PORTD,4
RN@DM                             00000105
ROW                               00000060
RP0                               00000005
RP1                               00000006
RSEN                              00000001
RSOUT@                            00000094
RX9                               00000006
RX9D                              00000000
R_W                               00000002
S@B                               
SCROLL                            0000085D
SCROLLH                           00000A8D
SCROLLHAGAIN                      00000A00
SCROLLUSERS                       000007CF
SEN                               00000000
SEND@IT                           00000035
SET@PAGE                          
SHIFTAGAIN                        00000FD6
SMP                               00000007
SND@EXIT                          00000101
SPBRG                             00000099
SPEN                              00000007
SPIN                              PORTC,4
SPLIT                             0000163D
SREN                              00000005
SSPADD                            00000093
SSPBUF                            00000013
SSPCON                            00000014
SSPCON2                           00000091
SSPEN                             00000005
SSPIE                             00000003
SSPIF                             00000003
SSPM0                             00000000
SSPM1                             00000001
SSPM2                             00000002
SSPM3                             00000003
SSPOV                             00000006
SSPSTAT                           00000094
START                             00000188
START@                            00000178
STARTENABLE                       PORTD,5
STARTLINE                         00000041
STARTSCROLLAGAIN                  000007D2
STARTSCROLLH                      000009FC
STARTUNIT                         00001486
STATUS                            00000003
STIME                             0000005E
SYNC                              00000004
T0CS                              00000005
T0IE                              00000005
T0IF                              00000002
T0SE                              00000004
T1CKPS0                           00000004
T1CKPS1                           00000005
T1CON                             00000010
T1INSYNC                          00000002
T1OSCEN                           00000003
T1SYNC                            00000002
T2CKPS0                           00000000
T2CKPS1                           00000001
T2CON                             00000012
TAGEXISTS                         00000433
TAGIN                             0000004D
TAGIN#0                           0000004D
TAGIN#1                           0000004E
TAGIN#2                           0000004F
TAGIN#3                           00000050
TAGIN#4                           00000051
TAGIN#5                           00000052
TAGIN#6                           00000053
TAGIN#7                           00000054
TAGIN#8                           00000055
TAGIN#9                           00000056
TAGOFFSET                         0000003C
TIMEOUT                           00000F2B
TIMEOUT2                          00001589
TMR0                              00000001
TMR0IE                            00000005
TMR0IF                            00000002
TMR1CS                            00000001
TMR1H                             0000000F
TMR1IE                            00000000
TMR1IF                            00000000
TMR1L                             0000000E
TMR1LH                            0000000F
TMR1ON                            00000000
TMR2                              00000011
TMR2IE                            00000001
TMR2IF                            00000001
TMR2ON                            00000002
TOUTPS0                           00000003
TOUTPS1                           00000004
TOUTPS2                           00000005
TOUTPS3                           00000006
TRISA                             00000085
TRISB                             00000086
TRISC                             00000087
TRISD                             00000088
TRISE                             00000089
TRISE0                            00000000
TRISE1                            00000001
TRISE2                            00000002
TRMT                              00000001
TX8_9                             00000006
TX9                               00000006
TX9D                              00000000
TXD8                              00000000
TXEN                              00000005
TXIE                              00000004
TXIF                              00000004
TXREG                             00000019
TXSTA                             00000098
UA                                00000001
USERMENU                          00001031
W                                 00000000
WCOL                              00000007
WDT_OFF                           00003FFB
WDT_ON                            00003FFF
WORD_BIT                          
WORD_BYTE                         
WORD_DWORD                        
WORD_WORD                         
WORD_WREG                         
WR                                00000001
WREG_BIT                          
WREG_BYTE                         
WREG_DWORD                        
WREG_WORD                         
WREN                              00000002
WRERR                             00000003
WRITEH                            00000FCE
WRITEHNOW                         00001004
WRITEMASTER                       00000FB7
WRITETAG                          00000F74
WRT_1FOURTH                       00003BFF
WRT_256                           00003DFF
WRT_HALF                          000039FF
WRT_OFF                           00003FFF
XTAL                              00000004
XT_OSC                            00003FFD
Z                                 00000002
_ADC                              00000008
_ADC_RES                          0000000A
_B#VR1                            0000003F
_BANKS                            00000003
_CORE                             0000000E
_EEPROM                           00000100
_FLASH                            00000001
_I2C_STOP                         00000004
_I2C_STRT                         00000003
_MAXMEM                           00002000
_MAXRAM                           00000170
_PAGES                            00000004
_RAM_END                          00000000
_SYSTEM_VARIABLE_COUNT            0000001A
_USART                            00000001
_USB                              00000000
__16F877A                         00000001


MEMORY USAGE MAP ('X' = Used,  '-' = Unused)

0000 : XXXXXXXXXXXXXXXX XXXXXXXXXXXXXXXX XXXXXXXXXXXXXXXX XXXXXXXXXXXXXXXX
0040 : XXXXXXXXXXXXXXXX XXXXXXXXXXXXXXXX XXXXXXXXXXXXXXXX XXXXXXXXXXXXXXXX
0080 : XXXXXXXXXXXXXXXX XXXXXXXXXXXXXXXX XXXXXXXXXXXXXXXX XXXXXXXXXXXXXXXX
00C0 : XXXXXXXXXXXXXXXX XXXXXXXXXXXXXXXX XXXXXXXXXXXXXXXX XXXXXXXXXXXXXXXX
0100 : XXXXXXXXXXXXXXXX XXXXXXXXXXXXXXXX XXXXXXXXXXXXXXXX XXXXXXXXXXXXXXXX
0140 : XXXXXXXXXXXXXXXX XXXXXXXXXXXXXXXX XXXXXXXXXXXXXXXX XXXXXXXXXXXXXXXX
0180 : XXXXXXXXXXXXXXXX XXXXXXXXXXXXXXXX XXXXXXXXXXXXXXXX XXXXXXXXXXXXXXXX
01C0 : XXXXXXXXXXXXXXXX XXXXXXXXXXXXXXXX XXXXXXXXXXXXXXXX XXXXXXXXXXXXXXXX
0200 : XXXXXXXXXXXXXXXX XXXXXXXXXXXXXXXX XXXXXXXXXXXXXXXX XXXXXXXXXXXXXXXX
0240 : XXXXXXXXXXXXXXXX XXXXXXXXXXXXXXXX XXXXXXXXXXXXXXXX XXXXXXXXXXXXXXXX
0280 : XXXXXXXXXXXXXXXX XXXXXXXXXXXXXXXX XXXXXXXXXXXXXXXX XXXXXXXXXXXXXXXX
02C0 : XXXXXXXXXXXXXXXX XXXXXXXXXXXXXXXX XXXXXXXXXXXXXXXX XXXXXXXXXXXXXXXX
0300 : XXXXXXXXXXXXXXXX XXXXXXXXXXXXXXXX XXXXXXXXXXXXXXXX XXXXXXXXXXXXXXXX
0340 : XXXXXXXXXXXXXXXX XXXXXXXXXXXXXXXX XXXXXXXXXXXXXXXX XXXXXXXXXXXXXXXX
0380 : XXXXXXXXXXXXXXXX XXXXXXXXXXXXXXXX XXXXXXXXXXXXXXXX XXXXXXXXXXXXXXXX
03C0 : XXXXXXXXXXXXXXXX XXXXXXXXXXXXXXXX XXXXXXXXXXXXXXXX XXXXXXXXXXXXXXXX
0400 : XXXXXXXXXXXXXXXX XXXXXXXXXXXXXXXX XXXXXXXXXXXXXXXX XXXXXXXXXXXXXXXX
0440 : XXXXXXXXXXXXXXXX XXXXXXXXXXXXXXXX XXXXXXXXXXXXXXXX XXXXXXXXXXXXXXXX
0480 : XXXXXXXXXXXXXXXX XXXXXXXXXXXXXXXX XXXXXXXXXXXXXXXX XXXXXXXXXXXXXXXX
04C0 : XXXXXXXXXXXXXXXX XXXXXXXXXXXXXXXX XXXXXXXXXXXXXXXX XXXXXXXXXXXXXXXX
0500 : XXXXXXXXXXXXXXXX XXXXXXXXXXXXXXXX XXXXXXXXXXXXXXXX XXXXXXXXXXXXXXXX
0540 : XXXXXXXXXXXXXXXX XXXXXXXXXXXXXXXX XXXXXXXXXXXXXXXX XXXXXXXXXXXXXXXX
0580 : XXXXXXXXXXXXXXXX XXXXXXXXXXXXXXXX XXXXXXXXXXXXXXXX XXXXXXXXXXXXXXXX
05C0 : XXXXXXXXXXXXXXXX XXXXXXXXXXXXXXXX XXXXXXXXXXXXXXXX XXXXXXXXXXXXXXXX
0600 : XXXXXXXXXXXXXXXX XXXXXXXXXXXXXXXX XXXXXXXXXXXXXXXX XXXXXXXXXXXXXXXX
0640 : XXXXXXXXXXXXXXXX XXXXXXXXXXXXXXXX XXXXXXXXXXXXXXXX XXXXXXXXXXXXXXXX
0680 : XXXXXXXXXXXXXXXX XXXXXXXXXXXXXXXX XXXXXXXXXXXXXXXX XXXXXXXXXXXXXXXX
06C0 : XXXXXXXXXXXXXXXX XXXXXXXXXXXXXXXX XXXXXXXXXXXXXXXX XXXXXXXXXXXXXXXX
0700 : XXXXXXXXXXXXXXXX XXXXXXXXXXXXXXXX XXXXXXXXXXXXXXXX XXXXXXXXXXXXXXXX
0740 : XXXXXXXXXXXXXXXX XXXXXXXXXXXXXXXX XXXXXXXXXXXXXXXX XXXXXXXXXXXXXXXX
0780 : XXXXXXXXXXXXXXXX XXXXXXXXXXXXXXXX XXXXXXXXXXXXXXXX XXXXXXXXXXXXXXXX
07C0 : XXXXXXXXXXXXXXXX XXXXXXXXXXXXXXXX XXXXXXXXXXXXXXXX XXXXXXXXXXXXXXXX
0800 : XXXXXXXXXXXXXXXX XXXXXXXXXXXXXXXX XXXXXXXXXXXXXXXX XXXXXXXXXXXXXXXX
0840 : XXXXXXXXXXXXXXXX XXXXXXXXXXXXXXXX XXXXXXXXXXXXXXXX XXXXXXXXXXXXXXXX
0880 : XXXXXXXXXXXXXXXX XXXXXXXXXXXXXXXX XXXXXXXXXXXXXXXX XXXXXXXXXXXXXXXX
08C0 : XXXXXXXXXXXXXXXX XXXXXXXXXXXXXXXX XXXXXXXXXXXXXXXX XXXXXXXXXXXXXXXX
0900 : XXXXXXXXXXXXXXXX XXXXXXXXXXXXXXXX XXXXXXXXXXXXXXXX XXXXXXXXXXXXXXXX
0940 : XXXXXXXXXXXXXXXX XXXXXXXXXXXXXXXX XXXXXXXXXXXXXXXX XXXXXXXXXXXXXXXX
0980 : XXXXXXXXXXXXXXXX XXXXXXXXXXXXXXXX XXXXXXXXXXXXXXXX XXXXXXXXXXXXXXXX
09C0 : XXXXXXXXXXXXXXXX XXXXXXXXXXXXXXXX XXXXXXXXXXXXXXXX XXXXXXXXXXXXXXXX
0A00 : XXXXXXXXXXXXXXXX XXXXXXXXXXXXXXXX XXXXXXXXXXXXXXXX XXXXXXXXXXXXXXXX
0A40 : XXXXXXXXXXXXXXXX XXXXXXXXXXXXXXXX XXXXXXXXXXXXXXXX XXXXXXXXXXXXXXXX
0A80 : XXXXXXXXXXXXXXXX XXXXXXXXXXXXXXXX XXXXXXXXXXXXXXXX XXXXXXXXXXXXXXXX
0AC0 : XXXXXXXXXXXXXXXX XXXXXXXXXXXXXXXX XXXXXXXXXXXXXXXX XXXXXXXXXXXXXXXX
0B00 : XXXXXXXXXXXXXXXX XXXXXXXXXXXXXXXX XXXXXXXXXXXXXXXX XXXXXXXXXXXXXXXX
0B40 : XXXXXXXXXXXXXXXX XXXXXXXXXXXXXXXX XXXXXXXXXXXXXXXX XXXXXXXXXXXXXXXX
0B80 : XXXXXXXXXXXXXXXX XXXXXXXXXXXXXXXX XXXXXXXXXXXXXXXX XXXXXXXXXXXXXXXX
0BC0 : XXXXXXXXXXXXXXXX XXXXXXXXXXXXXXXX XXXXXXXXXXXXXXXX XXXXXXXXXXXXXXXX
0C00 : XXXXXXXXXXXXXXXX XXXXXXXXXXXXXXXX XXXXXXXXXXXXXXXX XXXXXXXXXXXXXXXX
0C40 : XXXXXXXXXXXXXXXX XXXXXXXXXXXXXXXX XXXXXXXXXXXXXXXX XXXXXXXXXXXXXXXX
0C80 : XXXXXXXXXXXXXXXX XXXXXXXXXXXXXXXX XXXXXXXXXXXXXXXX XXXXXXXXXXXXXXXX
0CC0 : XXXXXXXXXXXXXXXX XXXXXXXXXXXXXXXX XXXXXXXXXXXXXXXX XXXXXXXXXXXXXXXX
0D00 : XXXXXXXXXXXXXXXX XXXXXXXXXXXXXXXX XXXXXXXXXXXXXXXX XXXXXXXXXXXXXXXX
0D40 : XXXXXXXXXXXXXXXX XXXXXXXXXXXXXXXX XXXXXXXXXXXXXXXX XXXXXXXXXXXXXXXX
0D80 : XXXXXXXXXXXXXXXX XXXXXXXXXXXXXXXX XXXXXXXXXXXXXXXX XXXXXXXXXXXXXXXX
0DC0 : XXXXXXXXXXXXXXXX XXXXXXXXXXXXXXXX XXXXXXXXXXXXXXXX XXXXXXXXXXXXXXXX
0E00 : XXXXXXXXXXXXXXXX XXXXXXXXXXXXXXXX XXXXXXXXXXXXXXXX XXXXXXXXXXXXXXXX
0E40 : XXXXXXXXXXXXXXXX XXXXXXXXXXXXXXXX XXXXXXXXXXXXXXXX XXXXXXXXXXXXXXXX
0E80 : XXXXXXXXXXXXXXXX XXXXXXXXXXXXXXXX XXXXXXXXXXXXXXXX XXXXXXXXXXXXXXXX
0EC0 : XXXXXXXXXXXXXXXX XXXXXXXXXXXXXXXX XXXXXXXXXXXXXXXX XXXXXXXXXXXXXXXX
0F00 : XXXXXXXXXXXXXXXX XXXXXXXXXXXXXXXX XXXXXXXXXXXXXXXX XXXXXXXXXXXXXXXX
0F40 : XXXXXXXXXXXXXXXX XXXXXXXXXXXXXXXX XXXXXXXXXXXXXXXX XXXXXXXXXXXXXXXX
0F80 : XXXXXXXXXXXXXXXX XXXXXXXXXXXXXXXX XXXXXXXXXXXXXXXX XXXXXXXXXXXXXXXX
0FC0 : XXXXXXXXXXXXXXXX XXXXXXXXXXXXXXXX XXXXXXXXXXXXXXXX XXXXXXXXXXXXXXXX
1000 : XXXXXXXXXXXXXXXX XXXXXXXXXXXXXXXX XXXXXXXXXXXXXXXX XXXXXXXXXXXXXXXX
1040 : XXXXXXXXXXXXXXXX XXXXXXXXXXXXXXXX XXXXXXXXXXXXXXXX XXXXXXXXXXXXXXXX
1080 : XXXXXXXXXXXXXXXX XXXXXXXXXXXXXXXX XXXXXXXXXXXXXXXX XXXXXXXXXXXXXXXX
10C0 : XXXXXXXXXXXXXXXX XXXXXXXXXXXXXXXX XXXXXXXXXXXXXXXX XXXXXXXXXXXXXXXX
1100 : XXXXXXXXXXXXXXXX XXXXXXXXXXXXXXXX XXXXXXXXXXXXXXXX XXXXXXXXXXXXXXXX
1140 : XXXXXXXXXXXXXXXX XXXXXXXXXXXXXXXX XXXXXXXXXXXXXXXX XXXXXXXXXXXXXXXX
1180 : XXXXXXXXXXXXXXXX XXXXXXXXXXXXXXXX XXXXXXXXXXXXXXXX XXXXXXXXXXXXXXXX
11C0 : XXXXXXXXXXXXXXXX XXXXXXXXXXXXXXXX XXXXXXXXXXXXXXXX XXXXXXXXXXXXXXXX
1200 : XXXXXXXXXXXXXXXX XXXXXXXXXXXXXXXX XXXXXXXXXXXXXXXX XXXXXXXXXXXXXXXX
1240 : XXXXXXXXXXXXXXXX XXXXXXXXXXXXXXXX XXXXXXXXXXXXXXXX XXXXXXXXXXXXXXXX
1280 : XXXXXXXXXXXXXXXX XXXXXXXXXXXXXXXX XXXXXXXXXXXXXXXX XXXXXXXXXXXXXXXX
12C0 : XXXXXXXXXXXXXXXX XXXXXXXXXXXXXXXX XXXXXXXXXXXXXXXX XXXXXXXXXXXXXXXX
1300 : XXXXXXXXXXXXXXXX XXXXXXXXXXXXXXXX XXXXXXXXXXXXXXXX XXXXXXXXXXXXXXXX
1340 : XXXXXXXXXXXXXXXX XXXXXXXXXXXXXXXX XXXXXXXXXXXXXXXX XXXXXXXXXXXXXXXX
1380 : XXXXXXXXXXXXXXXX XXXXXXXXXXXXXXXX XXXXXXXXXXXXXXXX XXXXXXXXXXXXXXXX
13C0 : XXXXXXXXXXXXXXXX XXXXXXXXXXXXXXXX XXXXXXXXXXXXXXXX XXXXXXXXXXXXXXXX
1400 : XXXXXXXXXXXXXXXX XXXXXXXXXXXXXXXX XXXXXXXXXXXXXXXX XXXXXXXXXXXXXXXX
1440 : XXXXXXXXXXXXXXXX XXXXXXXXXXXXXXXX XXXXXXXXXXXXXXXX XXXXXXXXXXXXXXXX
1480 : XXXXXXXXXXXXXXXX XXXXXXXXXXXXXXXX XXXXXXXXXXXXXXXX XXXXXXXXXXXXXXXX
14C0 : XXXXXXXXXXXXXXXX XXXXXXXXXXXXXXXX XXXXXXXXXXXXXXXX XXXXXXXXXXXXXXXX
1500 : XXXXXXXXXXXXXXXX XXXXXXXXXXXXXXXX XXXXXXXXXXXXXXXX XXXXXXXXXXXXXXXX
1540 : XXXXXXXXXXXXXXXX XXXXXXXXXXXXXXXX XXXXXXXXXXXXXXXX XXXXXXXXXXXXXXXX
1580 : XXXXXXXXXXXXXXXX XXXXXXXXXXXXXXXX XXXXXXXXXXXXXXXX XXXXXXXXXXXXXXXX
15C0 : XXXXXXXXXXXXXXXX XXXXXXXXXXXXXXXX XXXXXXXXXXXXXXXX XXXXXXXXXXXXXXXX
1600 : XXXXXXXXXXXXXXXX XXXXXXXXXXXXXXXX XXXXXXXXXXXXXXXX XXXXXXXXXXXXXXXX
1640 : XXXXXXXXXXXXXXXX XXXXXXXXXXXXXXXX XXXXXXXXXXXXXXXX XXXXXXXXXXXXXXXX
1680 : XXXXXXXXXXXXXXXX XXXXXXXXXXXXXXXX XXXXXXXXXXXXXXXX XXXXXXXXXXXXXXXX
16C0 : XXXXXXXXXX------ ---------------- ---------------- ----------------
2000 : -------X-------- ---------------- ---------------- ----------------

All other memory blocks unused.

Program Memory Words Used:  5834
Program Memory Words Free:  2358


Errors   :     0
Warnings :     0 reported,     1 suppressed
Messages :     1 reported,   921 suppressed

