MPASM  5.35                               A.S   3-10-2012  10:04:08         PAGE  1


LOC  OBJECT CODE     LINE SOURCE TEXT
  VALUE


                      00002         LIST
                      00003 ;{
                      00004 ;FILE F1 = C:\MY PROTON\PROTON  MAR 2012\RFID V28.4 CWRITE TEST.BAS
                      00005 ;FILE F2 = C:\MY PROTON\PROTON  MAR 2012\RFID V28.4 CWRITE TEST.PRP
                      00006 ;FILE F3 = C:\MY PROTON\PROTON  MAR 2012\RFID V28.4 CWRITE TEST_FWD.PBP
                      00007 ;FILE F4 = C:\MY PROTON\PROTON  MAR 2012\INC\INITIALIZE.INC
                      00008 ;FILE F5 = C:\MY PROTON\PROTON  MAR 2012\INC\SOUND.INC
                      00009 ;FILE F6 = C:\MY PROTON\PROTON  MAR 2012\INC\VOLTAGE_CONTROL.INC
                      00010 ;FILE F7 = C:\MY PROTON\PROTON  MAR 2012\INC\RESET_LOGGER.INC
                      00011 ;}
                      00012 ;[Variable Listing]
                      00013 ;TAGIN,0010,DT_BYTE,10
                      00014 ;TAGBYTE,001A,DT_BYTE,10
                      00015 ;MODNUM,0024,DT_BYTE,7
                      00016 ;M_U_CODE,002B,DT_BYTE,4
                      00017 ;BBOOT_CNT,002F,DT_BYTE,1
                      00018 ;BRESET_TYPE,0030,DT_BYTE,1
                      00019 ;ETX,0031,DT_BYTE,1
                      00020 ;CHECKSUM,0032,DT_BYTE,1
                      00021 ;RESPONSE,0033,DT_BYTE,1
                      00022 ;MYCOUNT,0034,DT_BYTE,1
                      00023 ;INDEX,0035,DT_BYTE,1
                      00024 ;INDEX2,0036,DT_BYTE,1
                      00025 ;BYTE_VAR,0037,DT_BYTE,1
                      00026 ;WORD_VAR,0038,DT_WORD,2
                      00027 ;MYNUM,003A,DT_STRING,4
                      00028 ;RESET_CAUSE,003E,DT_STRING,11
                      00029 ;SD_CS,0F82.2,DT_BIT
                      00030 ;SD_DI,0F82.5,DT_BIT
                      00031 ;SD_CLK,0F82.3,DT_BIT
                      00032 ;SD_DO,0F82.4,DT_BIT
                      00033 ;SD_DETECT,0F82.1,DT_BIT
                      00034 ;RFIDENABLE,0F83.4,DT_BIT
                      00035 ;STARTENABLE,0F84.1,DT_BIT
                      00036 ;SP1,0F82.0,DT_BIT
                      00037 ;RED,0F80.0,DT_BIT
                      00038 ;GREEN,0F80.1,DT_BIT
                      00039 ;VC,0F80.3,DT_BIT
                      00040 ;SDC,0F83.5,DT_BIT
                      00041 ;[End Listing]
                      00042 ;[TOTAL VARS] 73

                      00044 #DEFINE CONFIG_REQ 1
MESSAGE[308]: WARNING LEVEL SUPERSEDED BY COMMAND LINE VALUE. (2)
                      00045  LIST  P = 18F4525, F = INHX32, W = 2, X = ON, R = DEC, MM = ON, N = 0, C = 255, T=ON
  00000F80            00046 PORTA EQU 0X0F80
  00000F81            00047 PORTB EQU 0X0F81
  00000F82            00048 PORTC EQU 0X0F82
  00000F83            00049 PORTD EQU 0X0F83
  00000F84            00050 PORTE EQU 0X0F84
  00000F89            00051 LATA EQU 0X0F89
  00000F8A            00052 LATB EQU 0X0F8A
  00000F8B            00053 LATC EQU 0X0F8B
  00000F8C            00054 LATD EQU 0X0F8C
  00000F8D            00055 LATE EQU 0X0F8D
  00000F92            00056 DDRA EQU 0X0F92
  00000F92            00057 TRISA EQU 0X0F92
  00000F93            00058 DDRB EQU 0X0F93
  00000F93            00059 TRISB EQU 0X0F93
  00000F94            00060 DDRC EQU 0X0F94
  00000F94            00061 TRISC EQU 0X0F94
  00000F95            00062 DDRD EQU 0X0F95
  00000F95            00063 TRISD EQU 0X0F95
  00000F96            00064 DDRE EQU 0X0F96
  00000F96            00065 TRISE EQU 0X0F96
  00000F9B            00066 OSCTUNE EQU 0X0F9B
  00000F9D            00067 PIE1 EQU 0X0F9D
  00000F9E            00068 PIR1 EQU 0X0F9E
  00000F9F            00069 IPR1 EQU 0X0F9F
  00000FA0            00070 PIE2 EQU 0X0FA0
  00000FA1            00071 PIR2 EQU 0X0FA1
  00000FA2            00072 IPR2 EQU 0X0FA2
  00000FA6            00073 EECON1 EQU 0X0FA6
  00000FA7            00074 EECON2 EQU 0X0FA7
  00000FA8            00075 EEDATL EQU 0X0FA8
  00000FA8            00076 EEDATA EQU 0X0FA8
  00000FA9            00077 EEADR EQU 0X0FA9
  00000FAA            00078 EEADRH EQU 0X0FAA
  00000FAB            00079 RCSTA EQU 0X0FAB
  00000FAC            00080 TXSTA EQU 0X0FAC
  00000FAD            00081 TXREG EQU 0X0FAD
  00000FAE            00082 RCREG EQU 0X0FAE
  00000FAF            00083 SPBRG EQU 0X0FAF
  00000FB0            00084 SPBRGH EQU 0X0FB0
  00000FB1            00085 T3CON EQU 0X0FB1
  00000FB2            00086 TMR3L EQU 0X0FB2
  00000FB3            00087 TMR3LH EQU 0X0FB3
  00000FB3            00088 TMR3H EQU 0X0FB3
  00000FB4            00089 CMCON EQU 0X0FB4
  00000FB5            00090 CVRCON EQU 0X0FB5
  00000FB6            00091 ECCP1AS EQU 0X0FB6
  00000FB6            00092 ECCPAS EQU 0X0FB6
  00000FB7            00093 PWM1CON EQU 0X0FB7
  00000FB8            00094 BAUDCON EQU 0X0FB8
  00000FB8            00095 BAUDCTL EQU 0X0FB8
  00000FBA            00096 CCP2CON EQU 0X0FBA
  00000FBB            00097 CCPR2 EQU 0X0FBB
  00000FBB            00098 CCPR2L EQU 0X0FBB
  00000FBC            00099 CCPR2LH EQU 0X0FBC
  00000FBC            00100 CCPR2H EQU 0X0FBC
  00000FBD            00101 CCP1CON EQU 0X0FBD
  00000FBE            00102 CCPR1 EQU 0X0FBE
  00000FBE            00103 CCPR1L EQU 0X0FBE
  00000FBF            00104 CCPR1LH EQU 0X0FBF
  00000FBF            00105 CCPR1H EQU 0X0FBF
  00000FC0            00106 ADCON2 EQU 0X0FC0
  00000FC1            00107 ADCON1 EQU 0X0FC1
  00000FC2            00108 ADCON0 EQU 0X0FC2
  00000FC3            00109 ADRES EQU 0X0FC3
  00000FC3            00110 ADRESL EQU 0X0FC3
  00000FC4            00111 ADRESLH EQU 0X0FC4
  00000FC4            00112 ADRESH EQU 0X0FC4
  00000FC5            00113 SSPCON2 EQU 0X0FC5
  00000FC6            00114 SSPCON1 EQU 0X0FC6
  00000FC7            00115 SSPSTAT EQU 0X0FC7
  00000FC8            00116 SSPADD EQU 0X0FC8
  00000FC9            00117 SSPBUF EQU 0X0FC9
  00000FCA            00118 T2CON EQU 0X0FCA
  00000FCB            00119 PR2 EQU 0X0FCB
  00000FCC            00120 TMR2 EQU 0X0FCC
  00000FCD            00121 T1CON EQU 0X0FCD
  00000FCE            00122 TMR1L EQU 0X0FCE
  00000FCF            00123 TMR1LH EQU 0X0FCF
  00000FCF            00124 TMR1H EQU 0X0FCF
  00000FD0            00125 RCON EQU 0X0FD0
  00000FD1            00126 WDTCON EQU 0X0FD1
  00000FD2            00127 HLVDCON EQU 0X0FD2
  00000FD2            00128 LVDCON EQU 0X0FD2
  00000FD3            00129 OSCCON EQU 0X0FD3
  00000FD4            00130 DEBUG EQU 0X0FD4
  00000FD5            00131 T0CON EQU 0X0FD5
  00000FD6            00132 TMR0L EQU 0X0FD6
  00000FD7            00133 TMR0LH EQU 0X0FD7
  00000FD7            00134 TMR0H EQU 0X0FD7
  00000FD8            00135 STATUS EQU 0X0FD8
  00000FD9            00136 FSR2L EQU 0X0FD9
  00000FDA            00137 FSR2LH EQU 0X0FDA
  00000FDA            00138 FSR2H EQU 0X0FDA
  00000FDB            00139 PLUSW2 EQU 0X0FDB
  00000FDC            00140 PREINC2 EQU 0X0FDC
  00000FDD            00141 POSTDEC2 EQU 0X0FDD
  00000FDE            00142 POSTINC2 EQU 0X0FDE
  00000FDF            00143 INDF2 EQU 0X0FDF
  00000FE0            00144 BSR EQU 0X0FE0
  00000FE1            00145 FSR1L EQU 0X0FE1
  00000FE2            00146 FSR1LH EQU 0X0FE2
  00000FE2            00147 FSR1H EQU 0X0FE2
  00000FE3            00148 PLUSW1 EQU 0X0FE3
  00000FE4            00149 PREINC1 EQU 0X0FE4
  00000FE5            00150 POSTDEC1 EQU 0X0FE5
  00000FE6            00151 POSTINC1 EQU 0X0FE6
  00000FE7            00152 INDF1 EQU 0X0FE7
  00000FE8            00153 WREG EQU 0X0FE8
  00000FE9            00154 FSR0L EQU 0X0FE9
  00000FEA            00155 FSR0LH EQU 0X0FEA
  00000FEA            00156 FSR0H EQU 0X0FEA
  00000FEB            00157 PLUSW0 EQU 0X0FEB
  00000FEC            00158 PREINC0 EQU 0X0FEC
  00000FED            00159 POSTDEC0 EQU 0X0FED
  00000FEE            00160 POSTINC0 EQU 0X0FEE
  00000FEF            00161 INDF0 EQU 0X0FEF
  00000FF0            00162 INTCON3 EQU 0X0FF0
  00000FF1            00163 INTCON2 EQU 0X0FF1
  00000FF2            00164 INTCON EQU 0X0FF2
  00000FF3            00165 PRODL EQU 0X0FF3
  00000FF4            00166 PRODLH EQU 0X0FF4
  00000FF4            00167 PRODH EQU 0X0FF4
  00000FF5            00168 TABLAT EQU 0X0FF5
  00000FF6            00169 TBLPTRL EQU 0X0FF6
  00000FF7            00170 TBLPTRLH EQU 0X0FF7
  00000FF7            00171 TBLPTRH EQU 0X0FF7
  00000FF8            00172 TBLPTRU EQU 0X0FF8
  00000FF8            00173 TBLPTRLHH EQU 0X0FF8
  00000FF9            00174 PC EQU 0X0FF9
  00000FF9            00175 PCL EQU 0X0FF9
  00000FFA            00176 PCLATH EQU 0X0FFA
  00000FFB            00177 PCLATU EQU 0X0FFB
  00000FFC            00178 STKPTR EQU 0X0FFC
  00000FFD            00179 TOS EQU 0X0FFD
  00000FFD            00180 TOSL EQU 0X0FFD
  00000FFE            00181 TOSLH EQU 0X0FFE
  00000FFE            00182 TOSH EQU 0X0FFE
  00000FFF            00183 TOSU EQU 0X0FFF
  00000F94            00184 _I2C_SCL_PORT = TRISC
  00000003            00185 _I2C_SCL_PIN = 3
  00000F94            00186 _I2C_SDA_PORT = TRISC
  00000004            00187 _I2C_SDA_PIN = 4
  00000000            00188 RA0=0
  00000001            00189 RA1=1
  00000002            00190 RA2=2
  00000003            00191 RA3=3
  00000004            00192 RA4=4
  00000005            00193 RA5=5
  00000006            00194 RA6=6
  00000007            00195 RA7=7
  00000004            00196 T0CKI=4
  00000005            00197 AN4=5
  00000005            00198 SS=5
  00000005            00199 NOT_SS=5
  00000005            00200 LVDIN=5
  00000005            00201 HLVDIN=5
  00000000            00202 RB0=0
  00000001            00203 RB1=1
  00000002            00204 RB2=2
  00000003            00205 RB3=3
  00000004            00206 RB4=4
  00000005            00207 RB5=5
  00000006            00208 RB6=6
  00000007            00209 RB7=7
  00000000            00210 INT0=0
  00000001            00211 INT1=1
  00000002            00212 INT2=2
  00000003            00213 CCP2_PORTB=3
  00000004            00214 KBI0=4
  00000005            00215 KBI1=5
  00000006            00216 KBI2=6
  00000007            00217 KBI3=7
  00000000            00218 AN12=0
  00000001            00219 AN10=1
  00000002            00220 AN8=2
  00000003            00221 AN9=3
  00000004            00222 AN11=4
  00000005            00223 PGM=5
  00000006            00224 PGC=6
  00000007            00225 PGD=7
  00000000            00226 RC0=0
  00000001            00227 RC1=1
  00000002            00228 RC2=2
  00000003            00229 RC3=3
  00000004            00230 RC4=4
  00000005            00231 RC5=5
  00000006            00232 RC6=6
  00000007            00233 RC7=7
  00000000            00234 T1OSO=0
  00000001            00235 T1OSI=1
  00000002            00236 CCP1=2
  00000003            00237 SCK=3
  00000004            00238 SDI=4
  00000005            00239 SDO=5
  00000006            00240 TX=6
  00000007            00241 RX=7
  00000000            00242 T13CKI=0
  00000001            00243 CCP2_PORTC=1
  00000003            00244 SCL=3
  00000004            00245 SDA=4
  00000006            00246 CK=6
  00000000            00247 T1CKI=0
  00000000            00248 RD0=0
  00000001            00249 RD1=1
  00000002            00250 RD2=2
  00000003            00251 RD3=3
  00000004            00252 RD4=4
  00000005            00253 RD5=5
  00000006            00254 RD6=6
  00000007            00255 RD7=7
  00000000            00256 PSP0=0
  00000001            00257 PSP1=1
  00000002            00258 PSP2=2
  00000003            00259 PSP3=3
  00000004            00260 PSP4=4
  00000005            00261 PSP5=5
  00000006            00262 PSP6=6
  00000007            00263 PSP7=7
  00000005            00264 P1B=5
  00000006            00265 P1C=6
  00000007            00266 P1D=7
  00000000            00267 RE0=0
  00000001            00268 RE1=1
  00000002            00269 RE2=2
  00000003            00270 RE3=3
  00000000            00271 RD=0
  00000000            00272 PP_RD=0
  00000001            00273 WR=1
  00000001            00274 PP_WR=1
  00000002            00275 CS=2
  00000003            00276 MCLR=3
  00000000            00277 NOT_RD=0
  00000001            00278 NOT_WR=1
  00000002            00279 NOT_CS=2
  00000003            00280 NOT_MCLR=3
  00000000            00281 AN5=0
  00000001            00282 AN6=1
  00000002            00283 AN7=2
  00000003            00284 VPP=3
  00000000            00285 LATA0=0
  00000001            00286 LATA1=1
  00000002            00287 LATA2=2
  00000003            00288 LATA3=3
  00000004            00289 LATA4=4
  00000005            00290 LATA5=5
  00000006            00291 LATA6=6
  00000007            00292 LATA7=7
  00000000            00293 LATB0=0
  00000001            00294 LATB1=1
  00000002            00295 LATB2=2
  00000003            00296 LATB3=3
  00000004            00297 LATB4=4
  00000005            00298 LATB5=5
  00000006            00299 LATB6=6
  00000007            00300 LATB7=7
  00000000            00301 LATC0=0
  00000001            00302 LATC1=1
  00000002            00303 LATC2=2
  00000003            00304 LATC3=3
  00000004            00305 LATC4=4
  00000005            00306 LATC5=5
  00000006            00307 LATC6=6
  00000007            00308 LATC7=7
  00000000            00309 LATD0=0
  00000001            00310 LATD1=1
  00000002            00311 LATD2=2
  00000003            00312 LATD3=3
  00000004            00313 LATD4=4
  00000005            00314 LATD5=5
  00000006            00315 LATD6=6
  00000007            00316 LATD7=7
  00000000            00317 LATE0=0
  00000001            00318 LATE1=1
  00000002            00319 LATE2=2
  00000000            00320 RA0=0
  00000001            00321 RA1=1
  00000002            00322 RA2=2
  00000003            00323 RA3=3
  00000004            00324 RA4=4
  00000005            00325 RA5=5
  00000006            00326 RA6=6
  00000007            00327 RA7=7
  00000000            00328 TRISA0=0
  00000001            00329 TRISA1=1
  00000002            00330 TRISA2=2
  00000003            00331 TRISA3=3
  00000004            00332 TRISA4=4
  00000005            00333 TRISA5=5
  00000006            00334 TRISA6=6
  00000007            00335 TRISA7=7
  00000000            00336 RB0=0
  00000001            00337 RB1=1
  00000002            00338 RB2=2
  00000003            00339 RB3=3
  00000004            00340 RB4=4
  00000005            00341 RB5=5
  00000006            00342 RB6=6
  00000007            00343 RB7=7
  00000000            00344 TRISB0=0
  00000001            00345 TRISB1=1
  00000002            00346 TRISB2=2
  00000003            00347 TRISB3=3
  00000004            00348 TRISB4=4
  00000005            00349 TRISB5=5
  00000006            00350 TRISB6=6
  00000007            00351 TRISB7=7
  00000000            00352 RC0=0
  00000001            00353 RC1=1
  00000002            00354 RC2=2
  00000003            00355 RC3=3
  00000004            00356 RC4=4
  00000005            00357 RC5=5
  00000006            00358 RC6=6
  00000007            00359 RC7=7
  00000000            00360 TRISC0=0
  00000001            00361 TRISC1=1
  00000002            00362 TRISC2=2
  00000003            00363 TRISC3=3
  00000004            00364 TRISC4=4
  00000005            00365 TRISC5=5
  00000006            00366 TRISC6=6
  00000007            00367 TRISC7=7
  00000000            00368 RD0=0
  00000001            00369 RD1=1
  00000002            00370 RD2=2
  00000003            00371 RD3=3
  00000004            00372 RD4=4
  00000005            00373 RD5=5
  00000006            00374 RD6=6
  00000007            00375 RD7=7
  00000000            00376 TRISD0=0
  00000001            00377 TRISD1=1
  00000002            00378 TRISD2=2
  00000003            00379 TRISD3=3
  00000004            00380 TRISD4=4
  00000005            00381 TRISD5=5
  00000006            00382 TRISD6=6
  00000007            00383 TRISD7=7
  00000000            00384 RE0=0
  00000001            00385 RE1=1
  00000002            00386 RE2=2
  00000003            00387 RE3=3
  00000000            00388 TRISE0=0
  00000001            00389 TRISE1=1
  00000002            00390 TRISE2=2
  00000004            00391 TRISE4=4
  00000005            00392 TRISE5=5
  00000006            00393 TRISE6=6
  00000007            00394 TRISE7=7
  00000004            00395 PSPMODE=4
  00000005            00396 IBOV=5
  00000006            00397 OBF=6
  00000007            00398 IBF=7
  00000000            00399 TUN0=0
  00000001            00400 TUN1=1
  00000002            00401 TUN2=2
  00000003            00402 TUN3=3
  00000004            00403 TUN4=4
  00000006            00404 PLLEN=6
  00000007            00405 INTSRC=7
  00000000            00406 TMR1IE=0
  00000001            00407 TMR2IE=1
  00000002            00408 CCP1IE=2
  00000003            00409 SSPIE=3
  00000004            00410 TXIE=4
  00000005            00411 RCIE=5
  00000006            00412 ADIE=6
  00000007            00413 PSPIE=7
  00000000            00414 TMR1IF=0
  00000001            00415 TMR2IF=1
  00000002            00416 CCP1IF=2
  00000003            00417 SSPIF=3
  00000004            00418 TXIF=4
  00000004            00419 PP_TXIF=4
  00000005            00420 RCIF=5
  00000005            00421 PP_RCIF=5
  00000006            00422 ADIF=6
  00000007            00423 PSPIF=7
  00000000            00424 TMR1IP=0
  00000001            00425 TMR2IP=1
  00000002            00426 CCP1IP=2
  00000003            00427 SSPIP=3
  00000004            00428 TXIP=4
  00000005            00429 RCIP=5
  00000006            00430 ADIP=6
  00000007            00431 PSPIP=7
  00000000            00432 CCP2IE=0
  00000001            00433 TMR3IE=1
  00000002            00434 LVDIE=2
  00000003            00435 BCLIE=3
  00000004            00436 EEIE=4
  00000006            00437 CMIE=6
  00000007            00438 OSCFIE=7
  00000002            00439 HLVDIE=2
  00000000            00440 CCP2IF=0
  00000001            00441 TMR3IF=1
  00000002            00442 LVDIF=2
  00000003            00443 BCLIF=3
  00000004            00444 EEIF=4
  00000006            00445 CMIF=6
  00000007            00446 OSCFIF=7
  00000002            00447 HLVDIF=2
  00000000            00448 CCP2IP=0
  00000001            00449 TMR3IP=1
  00000002            00450 LVDIP=2
  00000003            00451 BCLIP=3
  00000004            00452 EEIP=4
  00000006            00453 CMIP=6
  00000007            00454 OSCFIP=7
  00000002            00455 HLVDIP=2
  00000000            00456 RD=0
  00000000            00457 PP_RD=0
  00000001            00458 WR=1
  00000001            00459 PP_WR=1
  00000002            00460 WREN=2
  00000002            00461 PP_WREN=2
  00000003            00462 WRERR=3
  00000004            00463 FREE=4
  00000006            00464 CFGS=6
  00000007            00465 EEPGD=7
  00000007            00466 PP_EEPGD=7
  00000000            00467 RX9D=0
  00000001            00468 OERR=1
  00000001            00469 PP_OERR=1
  00000002            00470 FERR=2
  00000003            00471 ADEN=3
  00000004            00472 CREN=4
  00000004            00473 PP_CREN=4
  00000005            00474 SREN=5
  00000006            00475 RX9=6
  00000007            00476 SPEN=7
  00000003            00477 ADDEN=3
  00000000            00478 TX9D=0
  00000001            00479 TRMT=1
  00000002            00480 BRGH=2
  00000003            00481 SENDB=3
  00000004            00482 SYNC=4
  00000005            00483 TXEN=5
  00000006            00484 TX9=6
  00000007            00485 CSRC=7
  00000000            00486 TMR3ON=0
  00000001            00487 TMR3CS=1
  00000002            00488 T3SYNC=2
  00000003            00489 T3CCP1=3
  00000004            00490 T3CKPS0=4
  00000005            00491 T3CKPS1=5
  00000006            00492 T3CCP2=6
  00000007            00493 RD16=7
  00000002            00494 NOT_T3SYNC=2
  00000000            00495 CM0=0
  00000001            00496 CM1=1
  00000002            00497 CM2=2
  00000003            00498 CIS=3
  00000004            00499 C1INV=4
  00000005            00500 C2INV=5
  00000006            00501 C1OUT=6
  00000007            00502 C2OUT=7
  00000000            00503 CVR0=0
  00000001            00504 CVR1=1
  00000002            00505 CVR2=2
  00000003            00506 CVR3=3
  00000004            00507 CVRSS=4
  00000005            00508 CVRR=5
  00000006            00509 CVROE=6
  00000007            00510 CVREN=7
  00000000            00511 PSSBD0=0
  00000001            00512 PSSBD1=1
  00000002            00513 PSSAC0=2
  00000003            00514 PSSAC1=3
  00000004            00515 ECCPAS0=4
  00000005            00516 ECCPAS1=5
  00000006            00517 ECCPAS2=6
  00000007            00518 ECCPASE=7
  00000000            00519 PSSBD0=0
  00000001            00520 PSSBD1=1
  00000002            00521 PSSAC0=2
  00000003            00522 PSSAC1=3
  00000004            00523 ECCPAS0=4
  00000005            00524 ECCPAS1=5
  00000006            00525 ECCPAS2=6
  00000007            00526 ECCPASE=7
  00000000            00527 PDC0=0
  00000001            00528 PDC1=1
  00000002            00529 PDC2=2
  00000003            00530 PDC3=3
  00000004            00531 PDC4=4
  00000005            00532 PDC5=5
  00000006            00533 PDC6=6
  00000007            00534 PRSEN=7
  00000000            00535 ABDEN=0
  00000001            00536 WUE=1
  00000003            00537 BRG16=3
  00000004            00538 SCKP=4
  00000006            00539 RCIDL=6
  00000007            00540 ABDOVF=7
  00000004            00541 TXCKP=4
  00000005            00542 RXDTP=5
  00000006            00543 RCMT=6
  00000000            00544 ABDEN=0
  00000001            00545 WUE=1
  00000003            00546 BRG16=3
  00000004            00547 SCKP=4
  00000006            00548 RCIDL=6
  00000007            00549 ABDOVF=7
  00000004            00550 TXCKP=4
  00000005            00551 RXDTP=5
  00000006            00552 RCMT=6
  00000000            00553 CCP2M0=0
  00000001            00554 CCP2M1=1
  00000002            00555 CCP2M2=2
  00000003            00556 CCP2M3=3
  00000004            00557 CCP2Y=4
  00000005            00558 CCP2X=5
  00000004            00559 DC2B0=4
  00000005            00560 DC2B1=5
  00000000            00561 CCP1M0=0
  00000001            00562 CCP1M1=1
  00000002            00563 CCP1M2=2
  00000003            00564 CCP1M3=3
  00000004            00565 CCP1Y=4
  00000005            00566 CCP1X=5
  00000004            00567 DC1B0=4
  00000005            00568 DC1B1=5
  00000006            00569 P1M0=6
  00000007            00570 P1M1=7
  00000000            00571 ADCS0=0
  00000001            00572 ADCS1=1
  00000002            00573 ADCS2=2
  00000003            00574 ACQT0=3
  00000004            00575 ACQT1=4
  00000005            00576 ACQT2=5
  00000007            00577 ADFM=7
  00000000            00578 PCFG0=0
  00000001            00579 PCFG1=1
  00000002            00580 PCFG2=2
  00000003            00581 PCFG3=3
  00000004            00582 VCFG0=4
  00000005            00583 VCFG1=5
  00000000            00584 ADON=0
  00000000            00585 PP_ADON=0
  00000001            00586 GO=1
  00000002            00587 CHS0=2
  00000003            00588 CHS1=3
  00000004            00589 CHS2=4
  00000005            00590 CHS3=5
  00000001            00591 DONE=1
  00000001            00592 NOT_DONE=1
  00000001            00593 GO_DONE=1
  00000001            00594 PP_GO_DONE=1
  00000000            00595 SEN=0
  00000000            00596 PP_SEN=0
  00000001            00597 RSEN=1
  00000001            00598 PP_RSEN=1
  00000002            00599 PEN=2
  00000002            00600 PP_PEN=2
  00000003            00601 RCEN=3
  00000003            00602 PP_RCEN=3
  00000004            00603 ACKEN=4
  00000004            00604 PP_ACKEN=4
  00000005            00605 ACKDT=5
  00000005            00606 PP_ACKDT=5
  00000006            00607 ACKSTAT=6
  00000007            00608 GCEN=7
  00000000            00609 SSPM0=0
  00000001            00610 SSPM1=1
  00000002            00611 SSPM2=2
  00000003            00612 SSPM3=3
  00000004            00613 CKP=4
  00000005            00614 SSPEN=5
  00000006            00615 SSPOV=6
  00000007            00616 WCOL=7
  00000000            00617 BF=0
  00000001            00618 UA=1
  00000002            00619 R=2
  00000003            00620 S=3
  00000004            00621 P=4
  00000005            00622 D=5
  00000006            00623 CKE=6
  00000007            00624 SMP=7
  00000002            00625 NOT_W=2
  00000005            00626 NOT_A=5
  00000002            00627 R_W=2
  00000002            00628 PP_R_W=2
  00000005            00629 D_A=5
  00000002            00630 NOT_WRITE=2
  00000005            00631 NOT_ADDRESS=5
  00000000            00632 T2CKPS0=0
  00000000            00633 PP_T2CKPS0=0
  00000001            00634 T2CKPS1=1
  00000001            00635 PP_T2CKPS1=1
  00000002            00636 TMR2ON=2
  00000002            00637 PP_TMR2ON=2
  00000003            00638 T2OUTPS0=3
  00000004            00639 T2OUTPS1=4
  00000005            00640 T2OUTPS2=5
  00000006            00641 T2OUTPS3=6
  00000003            00642 TOUTPS0=3
  00000004            00643 TOUTPS1=4
  00000005            00644 TOUTPS2=5
  00000006            00645 TOUTPS3=6
  00000000            00646 TMR1ON=0
  00000001            00647 TMR1CS=1
  00000002            00648 T1SYNC=2
  00000003            00649 T1OSCEN=3
  00000004            00650 T1CKPS0=4
  00000005            00651 T1CKPS1=5
  00000006            00652 T1RUN=6
  00000007            00653 RD16=7
  00000002            00654 NOT_T1SYNC=2
  00000000            00655 BOR=0
  00000001            00656 POR=1
  00000002            00657 PD=2
  00000003            00658 TO=3
  00000004            00659 RI=4
  00000006            00660 SBOREN=6
  00000007            00661 IPEN=7
  00000000            00662 NOT_BOR=0
  00000001            00663 NOT_POR=1
  00000002            00664 NOT_PD=2
  00000003            00665 NOT_TO=3
  00000004            00666 NOT_RI=4
  00000000            00667 SWDTEN=0
  00000000            00668 SWDTE=0
  00000000            00669 LVDL0=0
  00000001            00670 LVDL1=1
  00000002            00671 LVDL2=2
  00000003            00672 LVDL3=3
  00000004            00673 LVDEN=4
  00000005            00674 IRVST=5
  00000000            00675 LVV0=0
  00000001            00676 LVV1=1
  00000002            00677 LVV2=2
  00000003            00678 LVV3=3
  00000005            00679 BGST=5
  00000000            00680 HLVDL0=0
  00000001            00681 HLVDL1=1
  00000002            00682 HLVDL2=2
  00000003            00683 HLVDL3=3
  00000004            00684 HLVDEN=4
  00000007            00685 VDIRMAG=7
  00000005            00686 IVRST=5
  00000000            00687 LVDL0=0
  00000001            00688 LVDL1=1
  00000002            00689 LVDL2=2
  00000003            00690 LVDL3=3
  00000004            00691 LVDEN=4
  00000005            00692 IRVST=5
  00000000            00693 LVV0=0
  00000001            00694 LVV1=1
  00000002            00695 LVV2=2
  00000003            00696 LVV3=3
  00000005            00697 BGST=5
  00000000            00698 HLVDL0=0
  00000001            00699 HLVDL1=1
  00000002            00700 HLVDL2=2
  00000003            00701 HLVDL3=3
  00000004            00702 HLVDEN=4
  00000007            00703 VDIRMAG=7
  00000005            00704 IVRST=5
  00000000            00705 SCS0=0
  00000001            00706 SCS1=1
  00000002            00707 IOFS=2
  00000003            00708 OSTS=3
  00000004            00709 IRCF0=4
  00000005            00710 IRCF1=5
  00000006            00711 IRCF2=6
  00000007            00712 IDLEN=7
  00000002            00713 FLTS=2
  00000000            00714 T0PS0=0
  00000001            00715 T0PS1=1
  00000002            00716 T0PS2=2
  00000003            00717 PSA=3
  00000004            00718 T0SE=4
  00000005            00719 T0CS=5
  00000006            00720 T016BIT=6
  00000007            00721 TMR0ON=7
  00000006            00722 T08BIT=6
  00000000            00723 C=0
  00000001            00724 DC=1
  00000002            00725 Z=2
  00000003            00726 OV=3
  00000004            00727 N=4
  00000000            00728 INT1F=0
  00000001            00729 INT2F=1
  00000003            00730 INT1E=3
  00000004            00731 INT2E=4
  00000006            00732 INT1P=6
  00000007            00733 INT2P=7
  00000000            00734 INT1IF=0
  00000001            00735 INT2IF=1
  00000003            00736 INT1IE=3
  00000004            00737 INT2IE=4
  00000006            00738 INT1IP=6
  00000007            00739 INT2IP=7
  00000000            00740 RBIP=0
  00000002            00741 TMR0IP=2
  00000004            00742 INTEDG2=4
  00000005            00743 INTEDG1=5
  00000006            00744 INTEDG0=6
  00000007            00745 RBPU=7
  00000007            00746 NOT_RBPU=7
  00000000            00747 RBIF=0
  00000001            00748 INT0F=1
  00000002            00749 TMR0IF=2
  00000003            00750 RBIE=3
  00000004            00751 INT0E=4
  00000005            00752 TMR0IE=5
  00000006            00753 PEIE=6
  00000007            00754 GIE=7
  00000001            00755 INT0IF=1
  00000002            00756 T0IF=2
  00000004            00757 INT0IE=4
  00000005            00758 T0IE=5
  00000006            00759 GIEL=6
  00000007            00760 GIEH=7
  00000000            00761 STKPTR0=0
  00000001            00762 STKPTR1=1
  00000002            00763 STKPTR2=2
  00000003            00764 STKPTR3=3
  00000004            00765 STKPTR4=4
  00000006            00766 STKUNF=6
  00000007            00767 STKOVF=7
  00000000            00768 SP0=0
  00000001            00769 SP1=1
  00000002            00770 SP2=2
  00000003            00771 SP3=3
  00000004            00772 SP4=4
  00000007            00773 STKFUL=7
  00000FFF            00774   __MAXRAM  0X0FFF
                      00775   __BADRAM  0X0F85-0X0F88
                      00776   __BADRAM  0X0F8E-0X0F91
                      00777   __BADRAM  0X0F97-0X0F9A
                      00778   __BADRAM  0X0F9C
                      00779   __BADRAM  0X0FA3-0X0FA5
                      00780   __BADRAM  0X0FB9
  00300001            00781 CONFIG1H EQU 0X300001
  00300002            00782 CONFIG2L EQU 0X300002
  00300003            00783 CONFIG2H EQU 0X300003
  00300005            00784 CONFIG3H EQU 0X300005
  00300006            00785 CONFIG4L EQU 0X300006
  00300008            00786 CONFIG5L EQU 0X300008
  00300009            00787 CONFIG5H EQU 0X300009
  0030000A            00788 CONFIG6L EQU 0X30000A
  0030000B            00789 CONFIG6H EQU 0X30000B
  0030000C            00790 CONFIG7L EQU 0X30000C
  0030000D            00791 CONFIG7H EQU 0X30000D
  000000F0            00792 OSC_LP_1 EQU 0XF0
  000000F1            00793 OSC_XT_1 EQU 0XF1
  000000F2            00794 OSC_HS_1 EQU 0XF2
  000000F3            00795 OSC_RC_1 EQU 0XF3
  000000F4            00796 OSC_EC_1 EQU 0XF4
  000000F5            00797 OSC_ECIO6_1 EQU 0XF5
  000000F6            00798 OSC_HSPLL_1 EQU 0XF6
  000000F7            00799 OSC_RCIO6_1 EQU 0XF7
  000000F8            00800 OSC_INTIO67_1 EQU 0XF8
  000000F9            00801 OSC_INTIO7_1 EQU 0XF9
  000000BF            00802 FCMEN_OFF_1 EQU 0XBF
  000000FF            00803 FCMEN_ON_1 EQU 0XFF
  0000007F            00804 IESO_OFF_1 EQU 0X7F
  000000FF            00805 IESO_ON_1 EQU 0XFF
  000000FE            00806 PWRT_ON_2 EQU 0XFE
  000000FF            00807 PWRT_OFF_2 EQU 0XFF
  000000F9            00808 BOREN_OFF_2 EQU 0XF9
  000000FB            00809 BOREN_ON_2 EQU 0XFB
  000000FD            00810 BOREN_NOSLP_2 EQU 0XFD
  000000FF            00811 BOREN_SBORDIS_2 EQU 0XFF
  000000E7            00812 BORV_0_2 EQU 0XE7
  000000EF            00813 BORV_1_2 EQU 0XEF
  000000F7            00814 BORV_2_2 EQU 0XF7
  000000FF            00815 BORV_3_2 EQU 0XFF
  000000FE            00816 WDT_OFF_2 EQU 0XFE
  000000FF            00817 WDT_ON_2 EQU 0XFF
  000000E1            00818 WDTPS_1_2 EQU 0XE1
  000000E3            00819 WDTPS_2_2 EQU 0XE3
  000000E5            00820 WDTPS_4_2 EQU 0XE5
  000000E7            00821 WDTPS_8_2 EQU 0XE7
  000000E9            00822 WDTPS_16_2 EQU 0XE9
  000000EB            00823 WDTPS_32_2 EQU 0XEB
  000000ED            00824 WDTPS_64_2 EQU 0XED
  000000EF            00825 WDTPS_128_2 EQU 0XEF
  000000F1            00826 WDTPS_256_2 EQU 0XF1
  000000F3            00827 WDTPS_512_2 EQU 0XF3
  000000F5            00828 WDTPS_1024_2 EQU 0XF5
  000000F7            00829 WDTPS_2048_2 EQU 0XF7
  000000F9            00830 WDTPS_4096_2 EQU 0XF9
  000000FB            00831 WDTPS_8192_2 EQU 0XFB
  000000FD            00832 WDTPS_16384_2 EQU 0XFD
  000000FF            00833 WDTPS_32768_2 EQU 0XFF
  0000007F            00834 MCLRE_OFF_3 EQU 0X7F
  000000FF            00835 MCLRE_ON_3 EQU 0XFF
  000000FB            00836 LPT1OSC_OFF_3 EQU 0XFB
  000000FF            00837 LPT1OSC_ON_3 EQU 0XFF
  000000FD            00838 PBADEN_OFF_3 EQU 0XFD
  000000FF            00839 PBADEN_ON_3 EQU 0XFF
  000000FE            00840 CCP2MX_PORTBE_3 EQU 0XFE
  000000FF            00841 CCP2MX_PORTC_3 EQU 0XFF
  000000FE            00842 STVREN_OFF_4 EQU 0XFE
  000000FF            00843 STVREN_ON_4 EQU 0XFF
  000000FB            00844 LVP_OFF_4 EQU 0XFB
  000000FF            00845 LVP_ON_4 EQU 0XFF
  000000BF            00846 XINST_OFF_4 EQU 0XBF
  000000FF            00847 XINST_ON_4 EQU 0XFF
  0000007F            00848 DEBUG_ON_4 EQU 0X7F
  000000FF            00849 DEBUG_OFF_4 EQU 0XFF
  000000FE            00850 CP0_ON_5 EQU 0XFE
  000000FF            00851 CP0_OFF_5 EQU 0XFF
  000000FD            00852 CP1_ON_5 EQU 0XFD
  000000FF            00853 CP1_OFF_5 EQU 0XFF
  000000FB            00854 CP2_ON_5 EQU 0XFB
  000000FF            00855 CP2_OFF_5 EQU 0XFF
  000000BF            00856 CPB_ON_5 EQU 0XBF
  000000FF            00857 CPB_OFF_5 EQU 0XFF
  0000007F            00858 CPD_ON_5 EQU 0X7F
  000000FF            00859 CPD_OFF_5 EQU 0XFF
  000000FE            00860 WRT0_ON_6 EQU 0XFE
  000000FF            00861 WRT0_OFF_6 EQU 0XFF
  000000FD            00862 WRT1_ON_6 EQU 0XFD
  000000FF            00863 WRT1_OFF_6 EQU 0XFF
  000000FB            00864 WRT2_ON_6 EQU 0XFB
  000000FF            00865 WRT2_OFF_6 EQU 0XFF
  000000BF            00866 WRTB_ON_6 EQU 0XBF
  000000FF            00867 WRTB_OFF_6 EQU 0XFF
  000000DF            00868 WRTC_ON_6 EQU 0XDF
  000000FF            00869 WRTC_OFF_6 EQU 0XFF
  0000007F            00870 WRTD_ON_6 EQU 0X7F
  000000FF            00871 WRTD_OFF_6 EQU 0XFF
  000000FE            00872 EBTR0_ON_7 EQU 0XFE
  000000FF            00873 EBTR0_OFF_7 EQU 0XFF
  000000FD            00874 EBTR1_ON_7 EQU 0XFD
  000000FF            00875 EBTR1_OFF_7 EQU 0XFF
  000000FB            00876 EBTR2_ON_7 EQU 0XFB
  000000FF            00877 EBTR2_OFF_7 EQU 0XFF
  000000BF            00878 EBTRB_ON_7 EQU 0XBF
  000000FF            00879 EBTRB_OFF_7 EQU 0XFF
  003FFFFE            00880 DEVID1 EQU 0X3FFFFE
  003FFFFF            00881 DEVID2 EQU 0X3FFFFF
  00200000            00882 IDLOC0 EQU 0X200000
  00200000            00883 __IDLOC0 EQU 0X200000
  00200001            00884 IDLOC1 EQU 0X200001
  00200001            00885 __IDLOC1 EQU 0X200001
  00200002            00886 IDLOC2 EQU 0X200002
  00200002            00887 __IDLOC2 EQU 0X200002
  00200003            00888 IDLOC3 EQU 0X200003
  00200003            00889 __IDLOC3 EQU 0X200003
  00200004            00890 IDLOC4 EQU 0X200004
  00200004            00891 __IDLOC4 EQU 0X200004
  00200005            00892 IDLOC5 EQU 0X200005
  00200005            00893 __IDLOC5 EQU 0X200005
  00200006            00894 IDLOC6 EQU 0X200006
  00200006            00895 __IDLOC6 EQU 0X200006
  00200007            00896 IDLOC7 EQU 0X200007
  00200007            00897 __IDLOC7 EQU 0X200007
                      00900 #DEFINE __18F4525 1
                      00901 #DEFINE XTAL 4
                      00902 #DEFINE _CORE 16
                      00903 #DEFINE _MAXRAM 3968
                      00904 #DEFINE _RAM_END 3968
                      00905 #DEFINE _MAXMEM 49152
                      00906 #DEFINE _ADC 13
                      00907 #DEFINE _ADC_RES 10
                      00908 #DEFINE _EEPROM 1024
                      00909 #DEFINE RAM_BANKS 15
                      00910 #DEFINE _USART 1
                      00911 #DEFINE _USB 0
                      00912 #DEFINE _USB#RAM_START 0
                      00913 #DEFINE _FLASH 1
                      00914 #DEFINE _CWRITE_BLOCK 64
                      00915 #DEFINE BANK0_START 128
                      00916 #DEFINE BANK0_END 255
                      00917 #DEFINE BANK1_START 256
                      00918 #DEFINE BANK1_END 511
                      00919 #DEFINE BANK2_START 512
                      00920 #DEFINE BANK2_END 767
                      00921 #DEFINE BANK3_START 768
                      00922 #DEFINE BANK3_END 1023
                      00923 #DEFINE BANK4_START 1024
                      00924 #DEFINE BANK4_END 1279
                      00925 #DEFINE BANK5_START 1280
                      00926 #DEFINE BANK5_END 1535
                      00927 #DEFINE BANK6_START 1536
                      00928 #DEFINE BANK6_END 1791
                      00929 #DEFINE BANK7_START 1792
                      00930 #DEFINE BANK7_END 2047
                      00931 #DEFINE BANK8_START 2048
                      00932 #DEFINE BANK8_END 2303
                      00933 #DEFINE BANK9_START 2304
                      00934 #DEFINE BANK9_END 2559
                      00935 #DEFINE BANK10_START 2560
                      00936 #DEFINE BANK10_END 2815
                      00937 #DEFINE BANK11_START 2816
                      00938 #DEFINE BANK11_END 3071
                      00939 #DEFINE BANK12_START 3072
                      00940 #DEFINE BANK12_END 3327
                      00941 #DEFINE BANK13_START 3328
                      00942 #DEFINE BANK13_END 3583
                      00943 #DEFINE BANK14_START 3584
                      00944 #DEFINE BANK14_END 3839
                      00945 #DEFINE BANKA_START 0
                      00946 #DEFINE BANKA_END 127
                      00947 #DEFINE _SYSTEM_VARIABLE_COUNT 16
  00000000            00948 RAM_BANK = 0
                      00949 #DEFINE LCD#DTPORT PORTD
                      00950 #DEFINE LCD#DTPIN 0
                      00951 #DEFINE LCD#RSPORT PORTD
                      00952 #DEFINE LCD#RSPIN 7
                      00953 #DEFINE LCD#ENPORT PORTD
                      00954 #DEFINE LCD#ENPIN 6
                      00955 #DEFINE LCD#INTERFACE 4
                      00956 #DEFINE LCD#LINES 2
                      00957 #DEFINE LCD#TYPE 0
                      00969 #DEFINE CLRW CLRF WREG
                      00970 #DEFINE NEGW NEGF WREG
                      00971 #DEFINE SKPC BTFSS STATUS,0
                      00972 #DEFINE SKPNC BTFSC STATUS,0
                      00973 #DEFINE CLRC BCF STATUS,0
                      00974 #DEFINE SETC BSF STATUS,0
                      00975 #DEFINE SKPZ BTFSS STATUS,2
                      00976 #DEFINE SKPNZ BTFSC STATUS,2
                      00977 #DEFINE CLRZ BCF STATUS,2
                      00978 #DEFINE SETZ BSF STATUS,2
                      00979 MOVFW MACRO PVARIN
                      00980     MOVF PVARIN,W
                      00981     ENDM
                      00982 RLF MACRO PVARIN,PDESTINATION
                      00983     RLCF PVARIN,PDESTINATION
                      00984     ENDM
                      00985 RRF MACRO PVARIN,PDESTINATION
                      00986     RRCF PVARIN,PDESTINATION
                      00987     ENDM
                      00988 JUMP MACRO PLABEL
                      00989     GOTO PLABEL
                      00990     ENDM
                      00991 F@CALL MACRO PDESTINATION
                      00992 IF (PDESTINATION < 1)
                      00993     CALL PDESTINATION
                      00994 ELSE
                      00995 IF (PDESTINATION > $)
                      00996     CALL PDESTINATION
                      00997 ELSE
                      00998 IF (PDESTINATION < ($ - 0X03FF))
                      00999     CALL PDESTINATION
                      01000 ELSE
                      01001     RCALL PDESTINATION
                      01002 ENDIF
                      01003 ENDIF
                      01004 ENDIF
                      01005     ENDM
                      01006 F@JUMP MACRO PDESTINATION
                      01007 IFDEF WATCHDOG_REQ
                      01008 IF ($ == PDESTINATION)
                      01009     CLRWDT
                      01010 ENDIF
                      01011 ENDIF
                      01012 IF (PDESTINATION < 1)
                      01013     GOTO PDESTINATION
                      01014 ELSE
                      01015 IF ((PDESTINATION) > $)
                      01016     GOTO PDESTINATION
                      01017 ELSE
                      01018 IF ((PDESTINATION) < ($ - 0X03FF))
                      01019     GOTO PDESTINATION
                      01020 ELSE
                      01021     BRA PDESTINATION
                      01022 ENDIF
                      01023 ENDIF
                      01024 ENDIF
                      01025     ENDM
                      01026 IFDEF WATCHDOG_REQ
                      01027     CHK@SLF MACRO PDESTINATION
                      01028 IF ($ == PDESTINATION)
                      01029     CLRWDT
                      01030 ENDIF
                      01031     ENDM
                      01032 ENDIF
                      01033 G@OTO MACRO PDESTINATION
                      01034 IF (PDESTINATION < 1)
                      01035     BTFSC STATUS,OV
                      01036     GOTO PDESTINATION
                      01037 ELSE
                      01038 IF (PDESTINATION > $)
                      01039     BTFSC STATUS,OV
                      01040     GOTO PDESTINATION
                      01041 ELSE
                      01042 IF (PDESTINATION < ($ - 127))
                      01043     BTFSC STATUS,OV
                      01044     GOTO PDESTINATION
                      01045 ELSE
                      01046     BOV PDESTINATION
                      01047 ENDIF
                      01048 ENDIF
                      01049 ENDIF
                      01050     ENDM
                      01051 GO@TO MACRO PDESTINATION
                      01052 IF (PDESTINATION < 1)
                      01053     GOTO PDESTINATION
                      01054 ELSE
                      01055 IF (PDESTINATION > $)
                      01056     GOTO PDESTINATION
                      01057 ELSE
                      01058 IF (PDESTINATION < ($ - 0X03FF))
                      01059     GOTO PDESTINATION
                      01060 ELSE
                      01061     BRA PDESTINATION
                      01062 ENDIF
                      01063 ENDIF
                      01064 ENDIF
                      01065     ENDM
                      01066 S@B MACRO PVARIN
                      01067 IF ((PVARIN > BANKA_END) & (PVARIN < 0X0F80))
                      01068 IF ((PVARIN & 0X0F00) != (RAM_BANK << 8))
                      01069     MOVLB HIGH (PVARIN)
                      01070     RAM_BANK = (PVARIN >> 8)
                      01071 ENDIF
                      01072 ENDIF
                      01073     ENDM
                      01074 R@B MACRO
                      01075 IF(RAM_BANK != 0)
                      01076     MOVLB 0
                      01077     RAM_BANK = 0
                      01078 ENDIF
                      01079     ENDM
                      01080 WREG_BYTE MACRO PBYTEOUT
                      01081     MOVFF WREG,PBYTEOUT
                      01082     ENDM
                      01083 WREG_BIT MACRO PVAROUT,PBITOUT
                      01084     S@B PVAROUT
                      01085     BTFSC WREG,0
                      01086     BSF PVAROUT,PBITOUT
                      01087     BTFSS WREG,0
                      01088     BCF PVAROUT,PBITOUT
                      01089     R@B
                      01090     ENDM
                      01091 WREG_WORD MACRO PWORDOUT
                      01092     MOVFF WREG,PWORDOUT
                      01093     MOVLW 0
                      01094     MOVFF WREG,PWORDOUT+1
                      01095     ENDM
                      01096 WREG_DWORD MACRO PDWORDOUT
                      01097     MOVFF WREG,PDWORDOUT
                      01098     MOVLW 0
                      01099     MOVFF WREG,PDWORDOUT+3
                      01100     MOVFF WREG,PDWORDOUT+2
                      01101     MOVFF WREG,PDWORDOUT+1
                      01102     ENDM
                      01103 NUM_SFR MACRO PNUMIN,PSFROUT
                      01105     MOVLW PNUMIN
                      01106     MOVWF PSFROUT
                      01107     ENDM
                      01108 BYTE_WREG MACRO PBYTEIN
                      01109     MOVFF PBYTEIN,WREG
                      01110     ENDM
                      01111 NUM_WREG MACRO PNUMIN
                      01112     MOVLW (PNUMIN & 255)
                      01113     ENDM
                      01114 NUM_BYTE MACRO PNUMIN,PBYTEOUT
                      01115     MOVLW (PNUMIN & 255)
                      01116     MOVFF WREG,PBYTEOUT
                      01117     ENDM
                      01118 NUM_BIT MACRO PNUMIN,PVAROUT,PBITOUT
                      01119     S@B PVAROUT
                      01120 IF((PNUMIN & 1) == 1)
                      01121     BSF PVAROUT,PBITOUT
                      01122 ELSE
                      01123     BCF PVAROUT,PBITOUT
                      01124 ENDIF
                      01125     R@B
                      01126     ENDM
                      01127 NUM_WORD MACRO PNUMIN,PWORDOUT
                      01128 IFDEF _USELFSR
                      01129 IF(PWORDOUT == FSR0L)
                      01130     LFSR 0,PNUMIN
                      01131     EXITM
                      01132 ENDIF
                      01133 IF(PWORDOUT == FSR1L)
                      01134     LFSR 1,PNUMIN
                      01135     EXITM
                      01136 ENDIF
                      01137 IF(PWORDOUT == FSR2L)
                      01138     LFSR 2,PNUMIN
                      01139     EXITM
                      01140 ENDIF
                      01141 ENDIF
                      01142     S@B PWORDOUT
                      01143     MOVLW (PNUMIN & 255)
                      01144     MOVWF PWORDOUT
                      01145     S@B PWORDOUT+1
                      01146     MOVLW HIGH (PNUMIN)
                      01147     MOVWF PWORDOUT+1
                      01148     R@B
                      01149     ENDM
                      01150 NUM_DWORD MACRO PNUMIN,PDWORDOUT
                      01151     S@B PDWORDOUT
                      01152     MOVLW LOW (PNUMIN)
                      01153     MOVWF PDWORDOUT
                      01154     S@B PDWORDOUT+1
                      01155     MOVLW HIGH (PNUMIN)
                      01156     MOVWF PDWORDOUT+1
                      01157     S@B PDWORDOUT+2
                      01158     MOVLW ((PNUMIN >> 16) & 255)
                      01159     MOVWF PDWORDOUT+2
                      01160     S@B PDWORDOUT+3
                      01161     MOVLW ((PNUMIN >> 24) & 255)
                      01162     MOVWF PDWORDOUT+3
                      01163     R@B
                      01164     ENDM
                      01165 BIT_WREG MACRO PVARIN,PBITIN
                      01166     S@B PVARIN
                      01167     CLRW
                      01168     BTFSC PVARIN,PBITIN
                      01169     MOVLW 1
                      01170     R@B
                      01171     ENDM
                      01172 BIT_BYTE MACRO PVARIN,PBITIN,PBYTEOUT
                      01173     S@B PVARIN
                      01174     CLRW
                      01175     BTFSC PVARIN,PBITIN
                      01176     MOVLW 1
                      01177     S@B PBYTEOUT
                      01178     MOVWF PBYTEOUT
                      01179     R@B
                      01180     ENDM
                      01181 BIT_BIT MACRO PVARIN,PBITIN,PVAROUT,PBITOUT
                      01182 IF ((PVARIN & 0X0F00) == (PVAROUT & 0X0F00))
                      01183     S@B PVARIN
                      01184     BTFSC PVARIN,PBITIN
                      01185     BSF PVAROUT,PBITOUT
                      01186     BTFSS PVARIN,PBITIN
                      01187     BCF PVAROUT,PBITOUT
                      01188 ELSE
                      01189 IF ((PVARIN <= BANKA_END) | (PVARIN >= 0X0F80))
                      01190     S@B PVAROUT
                      01191     BTFSC PVARIN,PBITIN
                      01192     BSF PVAROUT,PBITOUT
                      01193     BTFSS PVARIN,PBITIN
                      01194     BCF PVAROUT,PBITOUT
                      01195 ELSE
                      01196 IF ((PVAROUT <= BANKA_END) | (PVAROUT >= 0X0F80))
                      01197     S@B PVARIN
                      01198     BTFSC PVARIN,PBITIN
                      01199     BSF PVAROUT,PBITOUT
                      01200     BTFSS PVARIN,PBITIN
                      01201     BCF PVAROUT,PBITOUT
                      01202 ELSE
                      01203     S@B PVARIN
                      01204     CLRDC
                      01205     BTFSC PVARIN,PBITIN
                      01206     SETDC
                      01207     S@B PVAROUT
                      01208     SKPNDC
                      01209     BSF PVAROUT,PBITOUT
                      01210     SKPDC
                      01211     BCF PVAROUT,PBITOUT
                      01212 ENDIF
                      01213 ENDIF
                      01214 ENDIF
                      01215     R@B
                      01216     ENDM
                      01217 BIT_WORD MACRO PVARIN,PBITIN,PWORDOUT
                      01218     S@B PWORDOUT+1
                      01219     CLRF PWORDOUT+1
                      01220     BIT_BYTE PVARIN,PBITIN,PWORDOUT
                      01221     ENDM
                      01222 BIT_DWORD MACRO PVARIN,PBITIN,PDWORDOUT
                      01223     S@B PDWORDOUT+3
                      01224     CLRF PDWORDOUT+3
                      01225     S@B PDWORDOUT+2
                      01226     CLRF PDWORDOUT+2
                      01227     S@B PDWORDOUT+1
                      01228     CLRF PDWORDOUT+1
                      01229     BIT_BYTE PVARIN,PBITIN,PDWORDOUT
                      01230     ENDM
                      01231 WORD_WREG MACRO PWORDIN
                      01232     BYTE_WREG PWORDIN
                      01233     ENDM
                      01234 WORD_BYTE MACRO PWORDIN,PBYTEOUT
                      01235     BYTE_BYTE PWORDIN,PBYTEOUT
                      01236     ENDM
                      01237 WORD_BIT MACRO PWORDIN,PVAROUT,PBITOUT
                      01238     BYTE_BIT PWORDIN, PVAROUT, PBITOUT
                      01239     ENDM
                      01240 WORD_WORD MACRO PWORDIN,PWORDOUT
                      01241     MOVFF PWORDIN+1,PWORDOUT+1
                      01242     MOVFF PWORDIN,PWORDOUT
                      01243     ENDM
                      01244 WORD_DWORD MACRO PWORDIN,PDWORDOUT
                      01245     MOVLW 0
                      01246     MOVFF WREG,PDWORDOUT+3
                      01247     MOVFF WREG,PDWORDOUT+2
                      01248     WORD_WORD PWORDIN,PDWORDOUT
                      01249     ENDM
                      01250 BYTE_BYTE MACRO PBYTEIN,PBYTEOUT
                      01251     MOVFF PBYTEIN,PBYTEOUT
                      01252     ENDM
                      01253 BYTE_WORD MACRO PBYTEIN,PWORDOUT
                      01254     MOVLW 0
                      01255     MOVFF WREG,PWORDOUT+1
                      01256     BYTE_BYTE PBYTEIN,PWORDOUT
                      01257     ENDM
                      01258 BYTE_DWORD MACRO PBYTEIN,PDWORDOUT
                      01259     MOVLW 0
                      01260     MOVFF WREG,PDWORDOUT+3
                      01261     MOVFF WREG,PDWORDOUT+2
                      01262     MOVFF WREG,PDWORDOUT+1
                      01263     BYTE_BYTE PBYTEIN,PDWORDOUT
                      01264     ENDM
                      01265 BYTE_BIT MACRO PBYTEIN,PVAROUT,PBITOUT
                      01266 IF ((PBYTEIN & 0X0F00) == (PVAROUT & 0X0F00))
                      01267     S@B PBYTEIN
                      01268     BTFSC PBYTEIN,0
                      01269     BSF PVAROUT,PBITOUT
                      01270     BTFSS PBYTEIN,0
                      01271     BCF PVAROUT,PBITOUT
                      01272 ELSE
                      01273 IF ((PBYTEIN <= BANKA_END) | (PBYTEIN >= 0X0F80))
                      01274     S@B PVAROUT
                      01275     BTFSC PBYTEIN,0
                      01276     BSF PVAROUT,PBITOUT
                      01277     BTFSS PBYTEIN,0
                      01278     BCF PVAROUT,PBITOUT
                      01279 ELSE
                      01280 IF ((PVAROUT <= BANKA_END) | (PVAROUT >= 0X0F80))
                      01281     S@B PBYTEIN
                      01282     BTFSC PBYTEIN,0
                      01283     BSF PVAROUT,PBITOUT
                      01284     BTFSS PBYTEIN,0
                      01285     BCF PVAROUT,PBITOUT
                      01286 ELSE
                      01287     S@B PBYTEIN
                      01288     RRF PBYTEIN,W
                      01289     S@B PVAROUT
                      01290     SKPNC
                      01291     BSF PVAROUT,PBITOUT
                      01292     SKPC
                      01293     BCF PVAROUT,PBITOUT
                      01294 ENDIF
                      01295 ENDIF
                      01296 ENDIF
                      01297     R@B
                      01298     ENDM
                      01299 DWORD_WREG MACRO PDWORDIN
                      01300     BYTE_WREG PDWORDIN
                      01301     ENDM
                      01302 DWORD_BYTE MACRO PDWORDIN,PBYTEOUT
                      01303     BYTE_BYTE PDWORDIN,PBYTEOUT
                      01304     ENDM
                      01305 DWORD_WORD MACRO PDWORDIN,PWORDOUT
                      01306     MOVFF PDWORDIN+1,PWORDOUT+1
                      01307     MOVFF PDWORDIN,PWORDOUT
                      01308     ENDM
                      01309 DWORD_DWORD MACRO PDWORDIN,PDWORDOUT
                      01310     MOVFF PDWORDIN+3,PDWORDOUT+3
                      01311     MOVFF PDWORDIN+2,PDWORDOUT+2
                      01312     MOVFF PDWORDIN+1,PDWORDOUT+1
                      01313     MOVFF PDWORDIN,PDWORDOUT
                      01314     ENDM
                      01315 DWORD_BIT MACRO PDWORDIN,PVAROUT,PBITOUT
                      01316     BYTE_BIT PDWORDIN,PVAROUT,PBITOUT
                      01317     ENDM
                      01318 NUM_FLOAT MACRO PNUMIN,PFLOATOUT
                      01319     NUM_BYTE PNUMIN,PFLOATOUT+3
                      01320     NUM_BYTE ((PNUMIN >> 8) & 255),PFLOATOUT+2
                      01321     NUM_BYTE ((PNUMIN >> 16) & 255),PFLOATOUT+1
                      01322     NUM_BYTE ((PNUMIN >> 24) & 255),PFLOATOUT
                      01323     ENDM
                      01324 WREG_FLOAT MACRO PFLOATOUT
                      01325     CALL INT08@TOFL32
                      01326     MOVFF PP_AARG,PFLOATOUT
                      01327     MOVFF PP_AARGH,PFLOATOUT+1
                      01328     MOVFF PP_AARGHH,PFLOATOUT+2
                      01329     MOVFF PP_AARGHHH,PFLOATOUT+3
                      01330     ENDM
                      01331 BIT_FLOAT MACRO PVARIN,PBITIN,PFLOATOUT
                      01332     BIT_WREG PVARIN,PBITIN
                      01333     CALL INT08@TOFL32
                      01334     MOVFF PP_AARG,PFLOATOUT
                      01335     MOVFF PP_AARGH,PFLOATOUT+1
                      01336     MOVFF PP_AARGHH,PFLOATOUT+2
                      01337     MOVFF PP_AARGHHH,PFLOATOUT+3
                      01338     ENDM
                      01339 BYTE_FLOAT MACRO PBYTEIN,PFLOATOUT
                      01340     BYTE_WREG PBYTEIN
                      01341     CALL INT08@TOFL32
                      01342     MOVFF PP_AARG,PFLOATOUT
                      01343     MOVFF PP_AARGH,PFLOATOUT+1
                      01344     MOVFF PP_AARGHH,PFLOATOUT+2
                      01345     MOVFF PP_AARGHHH,PFLOATOUT+3
                      01346     ENDM
                      01347 WORD_FLOAT MACRO PWORDIN,PFLOATOUT
                      01348     BYTE_BYTE PWORDIN,PP_AARG
                      01349     BYTE_BYTE PWORDIN+1,PP_AARGH
                      01350     CALL INT16@TOFL32
                      01351     MOVFF PP_AARG,PFLOATOUT
                      01352     MOVFF PP_AARGH,PFLOATOUT+1
                      01353     MOVFF PP_AARGHH,PFLOATOUT+2
                      01354     MOVFF PP_AARGHHH,PFLOATOUT+3
                      01355     ENDM
                      01356 DWORD_FLOAT MACRO PDWORDIN,PFLOATOUT
                      01357     MOVFF PDWORDIN,PP_AARG
                      01358     MOVFF PDWORDIN+1,PP_AARGH
                      01359     MOVFF PDWORDIN+2,PP_AARGHH
                      01360     MOVFF PDWORDIN+3,PP_AARGHHH
                      01361     CALL INT32@TOFL32
                      01362     MOVFF PP_AARG,PFLOATOUT
                      01363     MOVFF PP_AARGH,PFLOATOUT+1
                      01364     MOVFF PP_AARGHH,PFLOATOUT+2
                      01365     MOVFF PP_AARGHHH,PFLOATOUT+3
                      01366     ENDM
                      01367 FLOAT_FLOAT MACRO PFLOATIN,PFLOATOUT
                      01368     MOVFF PFLOATIN,PFLOATOUT
                      01369     MOVFF PFLOATIN+1,PFLOATOUT+1
                      01370     MOVFF PFLOATIN+2,PFLOATOUT+2
                      01371     MOVFF PFLOATIN+3,PFLOATOUT+3
                      01372     ENDM
                      01373 FLOAT_WREG MACRO PFLOATIN
                      01374     FLOAT_FLOAT PFLOATIN,PP_AARG
                      01375     CALL FL32@TOINT32
                      01376     ENDM
                      01377 FLOAT_BIT MACRO PFLOATIN,PVAROUT,PBITOUT
                      01378     FLOAT_FLOAT PFLOATIN,PP_AARG
                      01379     CALL FL32@TOINT32
                      01380     WREG_BIT PVAROUT,PBITOUT
                      01381     ENDM
                      01382 FLOAT_BYTE MACRO PFLOATIN,PBYTEOUT
                      01383     FLOAT_FLOAT PFLOATIN,PP_AARG
                      01384     CALL FL32@TOINT32
                      01385     WREG_BYTE PBYTEOUT
                      01386     ENDM
                      01387 FLOAT_WORD MACRO PFLOATIN,PWORDOUT
                      01388     FLOAT_FLOAT PFLOATIN,PP_AARG
                      01389     CALL FL32@TOINT32
                      01390     MOVFF PP_AARGHHH,PWORDOUT
                      01391     MOVFF PP_AARGHH,PWORDOUT+1
                      01392     ENDM
                      01393 FLOAT_DWORD MACRO PFLOATIN,PDWORDOUT
                      01394     FLOAT_FLOAT PFLOATIN,PP_AARG
                      01395     CALL FL32@TOINT32
                      01396     MOVFF PP_AARGHHH,PDWORDOUT
                      01397     MOVFF PP_AARGHH,PDWORDOUT+1
                      01398     MOVFF PP_AARGH,PDWORDOUT+2
                      01399     MOVFF PP_AARG,PDWORDOUT+3
                      01400     ENDM
                      01401 NUM_FSR0 MACRO PNUMIN
                      01402     LFSR 0, PNUMIN
                      01403     ENDM
                      01404 NUM_FSR1 MACRO PNUMIN
                      01405     LFSR 1, PNUMIN
                      01406     ENDM
                      01407 NUM_FSR2 MACRO PNUMIN
                      01408     LFSR 2, PNUMIN
                      01409     ENDM
                      01410 LABEL_WORD MACRO PLABELIN,PWORDOUT
                      01411     MOVLW LOW (PLABELIN)
                      01412     MOVFF WREG, PWORDOUT
                      01413     MOVLW HIGH (PLABELIN)
                      01414     MOVFF WREG, PWORDOUT+1
                      01415     ENDM
                      01416 LABEL_POINTER MACRO PLABELIN
                      01417     MOVLW LOW (PLABELIN)
                      01418     MOVWF TBLPTRL
                      01419     MOVLW HIGH (PLABELIN)
                      01420     MOVWF TBLPTRH
                      01421     MOVLW UPPER (PLABELIN)
                      01422     MOVWF TBLPTRU
                      01423     ENDM
  00000000            01425 BPF = 0
  00000001            01426 BPFH = 1
  00000002            01427 GEN = 2
  00000003            01428 GENH = 3
  00000004            01429 GENL = 4
  00000005            01430 PBP#RND = 5
  00000006            01431 PBP#RNDH = 6
  00000007            01432 PP0 = 7
  00000008            01433 PP0H = 8
  00000009            01434 PP1 = 9
  0000000A            01435 PP1H = 10
  0000000B            01436 PP2 = 11
  0000000C            01437 PP2H = 12
  0000000D            01438 PP3 = 13
  0000000E            01439 PP3H = 14
  0000000F            01440 PP4 = 15
  00000010            01441 TAGIN = 16
  0010                01442 VARIABLE TAGIN#0=16,TAGIN#1=17,TAGIN#2=18,TAGIN#3=19
  0014                01443 VARIABLE TAGIN#4=20,TAGIN#5=21,TAGIN#6=22,TAGIN#7=23
  0018                01444 VARIABLE TAGIN#8=24,TAGIN#9=25
  0000001A            01445 TAGBYTE = 26
  001A                01446 VARIABLE TAGBYTE#0=26,TAGBYTE#1=27,TAGBYTE#2=28,TAGBYTE#3=29
  001E                01447 VARIABLE TAGBYTE#4=30,TAGBYTE#5=31,TAGBYTE#6=32,TAGBYTE#7=33
  0022                01448 VARIABLE TAGBYTE#8=34,TAGBYTE#9=35
  00000024            01449 MODNUM = 36
  0024                01450 VARIABLE MODNUM#0=36,MODNUM#1=37,MODNUM#2=38,MODNUM#3=39
  0028                01451 VARIABLE MODNUM#4=40,MODNUM#5=41,MODNUM#6=42
  0000002B            01452 M_U_CODE = 43
  002B                01453 VARIABLE M_U_CODE#0=43,M_U_CODE#1=44,M_U_CODE#2=45,M_U_CODE#3=46
  0000002F            01454 BBOOT_CNT = 47
  00000030            01455 BRESET_TYPE = 48
  00000031            01456 ETX = 49
  00000032            01457 CHECKSUM = 50
  00000033            01458 RESPONSE = 51
  00000034            01459 MYCOUNT = 52
  00000035            01460 INDEX = 53
  00000036            01461 INDEX2 = 54
  00000037            01462 BYTE_VAR = 55
  00000038            01463 WORD_VAR = 56
  00000039            01464 WORD_VARH = 57
  0000003A            01465 MYNUM = 58
  003A                01466 VARIABLE MYNUM#0=58,MYNUM#1=59,MYNUM#2=60,MYNUM#3=61
  0000003E            01467 RESET_CAUSE = 62
  003E                01468 VARIABLE RESET_CAUSE#0=62,RESET_CAUSE#1=63,RESET_CAUSE#2=64,RESET_CAUSE#3=65
  0042                01469 VARIABLE RESET_CAUSE#4=66,RESET_CAUSE#5=67,RESET_CAUSE#6=68,RESET_CAUSE#7=69
  0046                01470 VARIABLE RESET_CAUSE#8=70,RESET_CAUSE#9=71,RESET_CAUSE#10=72
                      01471 #DEFINE SD_CS PORTC,2
                      01472 #DEFINE SD_DI PORTC,5
                      01473 #DEFINE SD_CLK PORTC,3
                      01474 #DEFINE SD_DO PORTC,4
                      01475 #DEFINE __LCD_DTPORT PORTD
                      01476 #DEFINE __LCD_ENPORT PORTD
                      01477 #DEFINE __LCD_RSPORT PORTD
                      01478 #DEFINE SD_DETECT PORTC,1
                      01479 #DEFINE RFIDENABLE PORTD,4
                      01480 #DEFINE STARTENABLE PORTE,1
                      01481 #DEFINE SP1 PORTC,0
                      01482 #DEFINE RED PORTA,0
                      01483 #DEFINE GREEN PORTA,1
                      01484 #DEFINE VC PORTA,3
                      01485 #DEFINE SDC PORTD,5
                      01486 #DEFINE __XTAL 4
                      01487 #DEFINE __LCD_TYPE 0
                      01488 #DEFINE __LCD_DTPIN 0
                      01489 #DEFINE __LCD_ENPIN 6
                      01490 #DEFINE __LCD_RSPIN 7
                      01491 #DEFINE __LCD_INTERFACE 4
                      01492 #DEFINE __LCD_LINES 2
                      01493 #DEFINE __HSERIAL_BAUD 9600
                      01494 #DEFINE __HSERIAL_RCSTA 144
                      01495 #DEFINE __HSERIAL_TXSTA 32
                      01496 #DEFINE BUA 40064
                      01497 #DEFINE BUAH 156
                      01498 #DEFINE FLASHERASESEG 64
                      01499 #DEFINE ENDOFCODESPACE 42614
                      01500 #DEFINE ENDOFCODESPACEH 166
                      01501 #DEFINE FLASHWRITEBLOCK 16
                      01502 #DEFINE NUM_USERS 1
                      01503 #DEFINE NUM_UHE 2
                      01504 #DEFINE NUM_MHE 3
                      01505 #DEFINE DBO 4
                      01506 #DEFINE TOP 5
                      01507 #DEFINE SOO 6
                      01508 #DEFINE MOP 7
                      01509 #DEFINE EBOOT_CNT_LOCATION 16
                      01510 #DEFINE UHA 26
                      01511 #DEFINE MHA 912
                      01512 #DEFINE MHAH 3
                      01513 #DEFINE MAX_UH 50
                      01514 #DEFINE MAX_MH 10
000000                01515 PROTON#CODE#START
000000                01516         ORG 0
000000 EF0D F001      01517         GOTO PROTON#MAIN#START
000008                01518         ORG 8
000008                01519 LCD@CLS
000008 0E80           01520         MOVLW 128
00000A 6E01           01521         MOVWF 1
00000C                01522 CLS
00000C 0EFE           01523         MOVLW 254
00000E EC6C F000      01524         CALL CH@SND
000012 0E01           01525         MOVLW 1
000014 EC6C F000      01526         CALL CH@SND
000018 0E75           01527         MOVLW 117
00001A 6E08           01528         MOVWF 8
00001C 0E30           01529         MOVLW 48
00001E EFF4 F000      01530         GOTO DLUS@W
000022                01531 PRINT@MSTR
000022                01532 PRINT@MSTRL
000022 6AA6           01533         CLRF 4006
000024 8EA6           01534         BSF 4006,PP_EEPGD
000026                01535 PRT@MTL1
000026 0009           01536         TBLRD*+
000028 50F5           01537         MOVF 4085,W
00002A E002           01538         BZ PRT@MTEXT
00002C D802           01539         RCALL PRINT
00002E D7FB           01540         BRA PRT@MTL1
000030                01541 PRT@MTEXT
000030 0012           01542         RETURN
000032                01543 PRINT
000032 6E0E           01544         MOVWF 14
000034 9C8C           01545         BCF LATD,6
000036 0000           01546         NOP
000038 9E8C           01547         BCF LATD,7
00003A 9C95           01548         BCF TRISD,6
00003C 9E95           01549         BCF TRISD,7
00003E 0EF0           01550         MOVLW 240
000040 1695           01551         ANDWF TRISD,F
000042 500E           01552         MOVF 14,W
000044 B200           01553         BTFSC 0,1
000046 EF47 F000      01554         GOTO PRT@1
00004A 0E3A           01555         MOVLW 58
00004C 6E08           01556         MOVWF 8
00004E 0E98           01557         MOVLW 152
000050 ECF4 F000      01558         CALL DLUS@W
000054 0E33           01559         MOVLW 51
000056 6E0D           01560         MOVWF 13
000058 D82E           01561         RCALL PR@LP
00005A 0E13           01562         MOVLW 19
00005C 6E08           01563         MOVWF 8
00005E 0E88           01564         MOVLW 136
000060 ECF4 F000      01565         CALL DLUS@W
000064 D828           01566         RCALL PR@LP
000066 0E64           01567         MOVLW 100
000068 ECF3 F000      01568         CALL DL@US
00006C D824           01569         RCALL PR@LP
00006E 0E64           01570         MOVLW 100
000070 ECF3 F000      01571         CALL DL@US
000074 0E22           01572         MOVLW 34
000076 6E0D           01573         MOVWF 13
000078 D81E           01574         RCALL PR@LP
00007A 0E28           01575         MOVLW 40
00007C D807           01576         RCALL PR@CM
00007E 0E0C           01577         MOVLW 12
000080 D805           01578         RCALL PR@CM
000082 0E06           01579         MOVLW 6
000084 D803           01580         RCALL PR@CM
000086 8200           01581         BSF 0,1
000088 500E           01582         MOVF 14,W
00008A D001           01583         BRA PRT@1
00008C                01584 PR@CM
00008C 8000           01585         BSF 0,0
00008E                01586 PRT@1
00008E 6E0D           01587         MOVWF 13
000090 A000           01588         BTFSS 0,0
000092 D00B           01589         BRA PR@CC
000094 9E8C           01590         BCF LATD,7
000096 0803           01591         SUBLW 3
000098 E30C           01592         BNC PR@SD
00009A D80B           01593         RCALL PR@SD
00009C 0E07           01594         MOVLW 7
00009E 6E08           01595         MOVWF 8
0000A0 0ED0           01596         MOVLW 208
0000A2 ECF4 F000      01597         CALL DLUS@W
0000A6 80D8           01598         BSF 4056,0
0000A8 0012           01599         RETURN
0000AA                01600 PR@CC
0000AA 8000           01601         BSF 0,0
0000AC 08FE           01602         SUBLW 254
0000AE E012           01603         BZ PR@EX
0000B0 8E8C           01604         BSF LATD,7
0000B2                01605 PR@SD
0000B2 3A0D           01606         SWAPF 13,F
0000B4 A000           01607         BTFSS 0,0
0000B6                01608 PR@LP
0000B6 9000           01609         BCF 0,0
0000B8 8C8C           01610         BSF LATD,6
0000BA 0EF0           01611         MOVLW 240
0000BC 1683           01612         ANDWF PORTD,F
0000BE 500D           01613         MOVF 13,W
0000C0 0B0F           01614         ANDLW 15
0000C2 1283           01615         IORWF PORTD,F
0000C4 9C8C           01616         BCF LATD,6
0000C6 3A0D           01617         SWAPF 13,F
0000C8 B000           01618         BTFSC 0,0
0000CA D7F5           01619         BRA PR@LP
0000CC 0E32           01620         MOVLW 50
0000CE ECF3 F000      01621         CALL DL@US
0000D2 80D8           01622         BSF 4056,0
0000D4                01623 PR@EX
0000D4 500E           01624         MOVF 14,W
0000D6 0012           01625         RETURN
0000D8                01626 CH@SND
0000D8 BE01           01627         BTFSC 1,7
0000DA EF19 F000      01628         GOTO PRINT
0000DE                01629 EE@RD
0000DE 6AAA           01630         CLRF 4010
0000E0 6EA9           01631         MOVWF 4009
0000E2                01632 EE@RD@W
0000E2 6AA6           01633         CLRF 4006
0000E4 80A6           01634         BSF 4006,PP_RD
0000E6 50A8           01635         MOVF 4008,W
0000E8 4AA9           01636         INFSNZ 4009,F
0000EA 2AAA           01637         INCF 4010,F
0000EC 0012           01638         RETURN
0000EE                01639 EE@WR
0000EE 6AAA           01640         CLRF 4010
0000F0                01641 EE@WR@W
0000F0 6EA8           01642         MOVWF 4008
0000F2 6AA6           01643         CLRF 4006
0000F4 84A6           01644         BSF 4006,PP_WREN
0000F6 0E55           01645         MOVLW 85
0000F8 6EA7           01646         MOVWF 4007
0000FA 0EAA           01647         MOVLW 170
0000FC 6EA7           01648         MOVWF 4007
0000FE 82A6           01649         BSF 4006,PP_WR
000100 B2A6           01650         BTFSC 4006,PP_WR
000102 D7FE           01651         BRA $ - 2
000104 94A6           01652         BCF 4006,PP_WREN
000106 4AA9           01653         INFSNZ 4009,F
000108 2AAA           01654         INCF 4010,F
00010A 0012           01655         RETURN
00010C                01656 C@WRITE
00010C 6EF5           01657         MOVWF 4085
00010E 000C           01658         TBLWT*
000110 28F6           01659         INCF 4086,W
000112 0B3F           01660         ANDLW 63
000114 E109           01661         BNZ CR@EXIT
000116 0E84           01662         MOVLW 132
000118 6EA6           01663         MOVWF 4006
00011A 0E55           01664         MOVLW 85
00011C 6EA7           01665         MOVWF 4007
00011E 0EAA           01666         MOVLW 170
000120 6EA7           01667         MOVWF 4007
000122 82A6           01668         BSF 4006,PP_WR
000124 D000           01669         BRA $ + 2
000126 94A6           01670         BCF 4006,PP_WREN
000128                01671 CR@EXIT
000128 4AF6           01672         INFSNZ 4086,F
00012A 2AF7           01673         INCF 4087,F
00012C 0012           01674         RETURN
00012E                01675 C@ERASE
00012E 6EF6           01676         MOVWF 4086
000130                01677 C@ERASE2
000130 0E94           01678         MOVLW 148
000132 6EA6           01679         MOVWF 4006
000134 0E55           01680         MOVLW 85
000136 6EA7           01681         MOVWF 4007
000138 0EAA           01682         MOVLW 170
00013A 6EA7           01683         MOVWF 4007
00013C 82A6           01684         BSF 4006,PP_WR
00013E 0000           01685         NOP
000140 94A6           01686         BCF 4006,PP_WREN
000142 0012           01687         RETURN
000144                01688 NOISE
000144 6E0A           01689         MOVWF 10
000146 0E0F           01690         MOVLW 15
000148 6EEA           01691         MOVWF 4074
00014A C002 FFE9      01692         MOVFF 2,4073
00014E 1C03           01693         COMF 3,W
000150 88E9           01694         BSF 4073,4
000152 2AE9           01695         INCF 4073,F
000154 16EC           01696         ANDWF 4076,F
000156 C002 FFE9      01697         MOVFF 2,4073
00015A 500A           01698         MOVF 10,W
00015C B4D8           01699         BTFSC 4056,2
00015E D01F           01700         BRA SND@EXIT
000160 0EF0           01701         MOVLW 240
000162 6E0C           01702         MOVWF 12
000164                01703 SND@LP
000164 5009           01704         MOVF 9,W
000166 0980           01705         IORLW 128
000168 6E0B           01706         MOVWF 11
00016A                01707 SND@LP1
00016A 0EF0           01708         MOVLW 240
00016C 060C           01709         DECF 12,F
00016E B4D8           01710         BTFSC 4056,2
000170 6E0C           01711         MOVWF 12
000172 B4D8           01712         BTFSC 4056,2
000174 060A           01713         DECF 10,F
000176 B4D8           01714         BTFSC 4056,2
000178 D012           01715         BRA SND@EXIT
00017A D000           01716         BRA $ + 2
00017C D815           01717         RCALL RN@DM
00017E D000           01718         BRA $ + 2
000180 6AE8           01719         CLRF 4072
000182 B005           01720         BTFSC 5,0
000184 5003           01721         MOVF 3,W
000186 AE09           01722         BTFSS 9,7
000188 5003           01723         MOVF 3,W
00018A 5209           01724         MOVF 9,F
00018C B4D8           01725         BTFSC 4056,2
00018E 6AE8           01726         CLRF 4072
000190 3E0B           01727         INCFSZ 11,F
000192 D002           01728         BRA $ + 6
000194 1AEF           01729         XORWF 4079,F
000196 D7E6           01730         BRA SND@LP
000198 D000           01731         BRA $ + 2
00019A 0000           01732         NOP
00019C D7E6           01733         BRA SND@LP1
00019E                01734 SND@EXIT
00019E 5003           01735         MOVF 3,W
0001A0 88E9           01736         BSF 4073,4
0001A2 2AE9           01737         INCF 4073,F
0001A4 12EC           01738         IORWF 4076,F
0001A6 0012           01739         RETURN
0001A8                01740 RN@DM
0001A8 5006           01741         MOVF 6,W
0001AA 1005           01742         IORWF 5,W
0001AC B4D8           01743         BTFSC 4056,2
0001AE 2A05           01744         INCF 5,F
0001B0 3406           01745         RLCF 6,W
0001B2 1806           01746         XORWF 6,W
0001B4 36E8           01747         RLCF 4072,F
0001B6 3A06           01748         SWAPF 6,F
0001B8 3805           01749         SWAPF 5,W
0001BA 46E8           01750         RLNCF 4072,F
0001BC 1806           01751         XORWF 6,W
0001BE 3A06           01752         SWAPF 6,F
0001C0 0B01           01753         ANDLW 1
0001C2 3605           01754         RLCF 5,F
0001C4 1A05           01755         XORWF 5,F
0001C6 3606           01756         RLCF 6,F
0001C8 5005           01757         MOVF 5,W
0001CA 0012           01758         RETURN
0001CC                01759 DL@MS
0001CC 6A0A           01760         CLRF 10
0001CE                01761 DLY@W
0001CE 6E09           01762         MOVWF 9
0001D0                01763 DLY@P
0001D0 0EFF           01764         MOVLW 255
0001D2 2609           01765         ADDWF 9,F
0001D4 220A           01766         ADDWFC 10,F
0001D6 D000           01767         BRA $ + 2
0001D8 A0D8           01768         BTFSS 4056,0
0001DA 0012           01769         RETURN
0001DC 0E03           01770         MOVLW 3
0001DE 6E08           01771         MOVWF 8
0001E0 0EDF           01772         MOVLW 223
0001E2 D802           01773         RCALL DLUS@W
0001E4 D7F5           01774         BRA DLY@P
0001E6                01775 DL@US
0001E6 6A08           01776         CLRF 8
0001E8                01777 DLUS@W
0001E8 0FE9           01778         ADDLW 233
0001EA 6E07           01779         MOVWF 7
0001EC 0EFC           01780         MOVLW 252
0001EE E305           01781         BNC $ + 12
0001F0 0000           01782         NOP
0001F2 0000           01783         NOP
0001F4 2607           01784         ADDWF 7,F
0001F6 E2FD           01785         BC $ - 4
0001F8 0000           01786         NOP
0001FA 2607           01787         ADDWF 7,F
0001FC 0608           01788         DECF 8,F
0001FE E2F9           01789         BC $ - 12
000200 B007           01790         BTFSC 7,0
000202 D000           01791         BRA $ + 2
000204 A207           01792         BTFSS 7,1
000206 D002           01793         BRA $ + 6
000208 D000           01794         BRA $ + 2
00020A 0000           01795         NOP
00020C 0012           01796         RETURN
00020E                01797 STR@LB1
00020E 6F44 656E 4620 01798         DB 68,111,110,101,32,70,108,97,115,104,0
       616C 6873 0000 
00021A                01799 PROTON#MAIN#START
00021A 6AF8           01800         CLRF 4088
00021C 6A00           01801         CLRF 0
00021E 6AAB           01802         CLRF 4011
000220 0100           01803         MOVLB 0
  00000222            01805 F2_SOF EQU $ ; RFID V28.4 CWRITE TEST.PRP
  00000222            01806 F3_SOF EQU $ ; RFID V28.4 CWRITE TEST_FWD.PBP
  00000222            01807 F3_EOF EQU $ ; RFID V28.4 CWRITE TEST_FWD.PBP
  00000222            01808 F2_EOF EQU $ ; RFID V28.4 CWRITE TEST.PRP
  00000222            01809 F1_SOF EQU $ ; RFID V28.4 CWRITE TEST.BAS
  00000222            01810 F4_SOF EQU $ ; INITIALIZE.INC
  00000222            01811 F4_000047 EQU $ ; IN [INITIALIZE.INC] ALL_DIGITAL = TRUE
000222 0E07           01812         MOVLW 7
000224 6EB4           01813         MOVWF CMCON,0
000226 0E0F           01814         MOVLW 15
000228 6EC1           01815         MOVWF ADCON1,0
  0000022A            01816 F4_000137 EQU $ ; IN [INITIALIZE.INC] DELAYMS 200
00022A 0EC8           01817         MOVLW 200
                      01818         F@CALL DL@MS
  0000022E            01819 F4_000138 EQU $ ; IN [INITIALIZE.INC] HIGH SDC
00022E 9A95           01820         BCF TRISD,5,0
000230 8A8C           01821         BSF LATD,5,0
  00000232            01822 F4_000139 EQU $ ; IN [INITIALIZE.INC] INPUT SD_DETECT
000232 8294           01823         BSF TRISC,1,0
  00000234            01824 F4_000140 EQU $ ; IN [INITIALIZE.INC] GOSUB HIGH_V
                      01825         F@CALL HIGH_V
  00000238            01826 F4_000141 EQU $ ; IN [INITIALIZE.INC] LOW RFIDENABLE
000238 9895           01827         BCF TRISD,4,0
00023A 988C           01828         BCF LATD,4,0
  0000023C            01829 F4_000142 EQU $ ; IN [INITIALIZE.INC] LOW STARTENABLE
00023C 9296           01830         BCF TRISE,1,0
00023E 928D           01831         BCF LATE,1,0
  00000240            01832 F4_000143 EQU $ ; IN [INITIALIZE.INC] LOW RED
000240 9092           01833         BCF TRISA,0,0
000242 9089           01834         BCF LATA,0,0
  00000244            01835 F4_000144 EQU $ ; IN [INITIALIZE.INC] LOW GREEN
000244 9292           01836         BCF TRISA,1,0
000246 9289           01837         BCF LATA,1,0
  00000248            01838 F4_000148 EQU $ ; IN [INITIALIZE.INC] BYTE_VAR = EREAD NUM_UHE
000248 0E02           01839         MOVLW 2
                      01840         F@CALL EE@RD
00024C 6E37           01841         MOVWF BYTE_VAR,0
  0000024E            01842 F4_000149 EQU $ ; IN [INITIALIZE.INC] IF BYTE_VAR = 0XFF THEN
00024E 3C37           01843         INCFSZ BYTE_VAR,W,0
                      01844         F@JUMP BC@LL2
  00000254            01845 F4_000150 EQU $ ; IN [INITIALIZE.INC] EWRITE NUM_USERS,[0X00]
000254 0E01           01846         MOVLW 1
000256 6EA9           01847         MOVWF EEADR,0
000258 6AAA           01848         CLRF EEADRH,0
00025A 0E00           01849         MOVLW 0
                      01850         F@CALL EE@WR@W
  0000025E            01851 F4_000151 EQU $ ; IN [INITIALIZE.INC] EWRITE NUM_UHE,[0X00]
00025E 0E02           01852         MOVLW 2
000260 6EA9           01853         MOVWF EEADR,0
000262 6AAA           01854         CLRF EEADRH,0
000264 0E00           01855         MOVLW 0
                      01856         F@CALL EE@WR@W
  00000268            01857 F4_000152 EQU $ ; IN [INITIALIZE.INC] EWRITE NUM_MHE,[0X00]
000268 0E03           01858         MOVLW 3
00026A 6EA9           01859         MOVWF EEADR,0
00026C 6AAA           01860         CLRF EEADRH,0
00026E 0E00           01861         MOVLW 0
                      01862         F@CALL EE@WR@W
  00000272            01863 F4_000153 EQU $ ; IN [INITIALIZE.INC] EWRITE DBO,[0X00]
000272 0E04           01864         MOVLW 4
000274 6EA9           01865         MOVWF EEADR,0
000276 6AAA           01866         CLRF EEADRH,0
000278 0E00           01867         MOVLW 0
                      01868         F@CALL EE@WR@W
  0000027C            01869 F4_000154 EQU $ ; IN [INITIALIZE.INC] EWRITE TOP,[0X1E]
00027C 0E05           01870         MOVLW 5
00027E 6EA9           01871         MOVWF EEADR,0
000280 6AAA           01872         CLRF EEADRH,0
000282 0E1E           01873         MOVLW 30
                      01874         F@CALL EE@WR@W
  00000286            01875 F4_000155 EQU $ ; IN [INITIALIZE.INC] EWRITE SOO,[0X01]
000286 0E06           01876         MOVLW 6
000288 6EA9           01877         MOVWF EEADR,0
00028A 6AAA           01878         CLRF EEADRH,0
00028C 0E01           01879         MOVLW 1
                      01880         F@CALL EE@WR@W
  00000290            01881 F4_000156 EQU $ ; IN [INITIALIZE.INC] EWRITE MOP,[0X00]
000290 0E07           01882         MOVLW 7
000292 6EA9           01883         MOVWF EEADR,0
000294 6AAA           01884         CLRF EEADRH,0
000296 0E00           01885         MOVLW 0
                      01886         F@CALL EE@WR@W
  0000029A            01887 F4_000157 EQU $ ; IN [INITIALIZE.INC] ENDIF
00029A                01888 BC@LL2
  0000029A            01889 F4_EOF EQU $ ; INITIALIZE.INC
  0000029A            01890 F1_000012 EQU $ ; IN [RFID V28.4 CWRITE TEST.BAS] CLS
                      01891         F@CALL LCD@CLS
  0000029C            01892 F1_000013 EQU $ ; IN [RFID V28.4 CWRITE TEST.BAS] PRINT "START"
00029C 0E53           01893         MOVLW 83
                      01894         F@CALL PRINT
0002A0 0E74           01895         MOVLW 116
                      01896         F@CALL PRINT
0002A4 0E61           01897         MOVLW 97
                      01898         F@CALL PRINT
0002A8 0E72           01899         MOVLW 114
                      01900         F@CALL PRINT
0002AC 0E74           01901         MOVLW 116
                      01902         F@CALL PRINT
  000002B0            01903 F1_000014 EQU $ ; IN [RFID V28.4 CWRITE TEST.BAS] GOSUB BEEP
                      01904         F@CALL BEEP
  000002B4            01905 F1_000015 EQU $ ; IN [RFID V28.4 CWRITE TEST.BAS] PAUSE 2000
0002B4 0E07           01906         MOVLW 7
0002B6 6E0A           01907         MOVWF PP1H,0
0002B8 0ED0           01908         MOVLW 208
                      01909         F@CALL DLY@W
  000002BC            01910 F1_000016 EQU $ ; IN [RFID V28.4 CWRITE TEST.BAS] GOSUB RESET_DIAGNOSTIC_LOGGER
                      01911         F@CALL RESET_DIAGNOSTIC_LOGGER
  000002C0            01912 F1_000017 EQU $ ; IN [RFID V28.4 CWRITE TEST.BAS] GOSUB ERASEPROGRAMDATA
                      01913         F@CALL ERASEPROGRAMDATA
  000002C4            01914 F1_000018 EQU $ ; IN [RFID V28.4 CWRITE TEST.BAS] GOSUB WRITETOPROM
                      01915         F@CALL WRITETOPROM
  000002C8            01916 F1_000019 EQU $ ; IN [RFID V28.4 CWRITE TEST.BAS] CLS
                      01917         F@CALL LCD@CLS
  000002CA            01918 F1_000020 EQU $ ; IN [RFID V28.4 CWRITE TEST.BAS] PRINT "DONE FLASH"
0002CA 0E02           01919         MOVLW HIGH (STR@LB1)
0002CC 6EF7           01920         MOVWF TBLPTRLH,0
0002CE 0E0E           01921         MOVLW LOW (STR@LB1)
0002D0 6EF6           01922         MOVWF TBLPTRL,0
                      01923         F@CALL PRINT@MSTR
  000002D4            01924 F1_000021 EQU $ ; IN [RFID V28.4 CWRITE TEST.BAS] END
0002D4                01925 PB@LB4
0002D4 0003           01926         SLEEP
0002D6 D7FE           01927         BRA PB@LB4
0002D8                01928 ERASEPROGRAMDATA
  000002D8            01929 F1_000029 EQU $ ; IN [RFID V28.4 CWRITE TEST.BAS] WORD_VAR = BUA
0002D8 0E80           01930         MOVLW 128
0002DA 6E38           01931         MOVWF WORD_VAR,0
0002DC 0E9C           01932         MOVLW 156
0002DE 6E39           01933         MOVWF WORD_VARH,0
  000002E0            01934 F1_000031 EQU $ ; IN [RFID V28.4 CWRITE TEST.BAS] REPEAT
0002E0                01935 BC@LL4
  000002E0            01936 F1_000032 EQU $ ; IN [RFID V28.4 CWRITE TEST.BAS] CERASE WORD_VAR
0002E0 C039 FFF7      01937         MOVFF WORD_VARH,TBLPTRLH
0002E4 5038           01938         MOVF WORD_VAR,W,0
                      01939         F@CALL C@ERASE
  000002E8            01940 F1_000033 EQU $ ; IN [RFID V28.4 CWRITE TEST.BAS] WORD_VAR = WORD_VAR + FLASHERASESEG
0002E8 0E40           01941         MOVLW 64
0002EA 2638           01942         ADDWF WORD_VAR,F,0
0002EC 0E00           01943         MOVLW 0
0002EE 2239           01944         ADDWFC WORD_VARH,F,0
  000002F0            01945 F1_000034 EQU $ ; IN [RFID V28.4 CWRITE TEST.BAS] UNTIL WORD_VAR >= ENDOFCODESPACE
0002F0 0E76           01946         MOVLW 118
0002F2 5C38           01947         SUBWF WORD_VAR,W,0
0002F4 0EA6           01948         MOVLW 166
0002F6 5839           01949         SUBWFB WORD_VARH,W,0
0002F8 A0D8           01950         BTFSS STATUS,0,0
                      01951         GO@TO BC@LL4
0002FC                01952 BC@LL5
  000002FC            01953 F1_000035 EQU $ ; IN [RFID V28.4 CWRITE TEST.BAS] RESPONSE = 0
0002FC 6A33           01954         CLRF RESPONSE,0
  000002FE            01955 F1_000036 EQU $ ; IN [RFID V28.4 CWRITE TEST.BAS] RETURN
0002FE 0012           01956         RETURN 0
000300                01957 WRITETOPROM
  00000300            01958 F1_000045 EQU $ ; IN [RFID V28.4 CWRITE TEST.BAS] WORD_VAR = BUA
000300 0E80           01959         MOVLW 128
000302 6E38           01960         MOVWF WORD_VAR,0
000304 0E9C           01961         MOVLW 156
000306 6E39           01962         MOVWF WORD_VARH,0
  00000308            01963 F1_000048 EQU $ ; IN [RFID V28.4 CWRITE TEST.BAS] INDEX = 0
000308 6A35           01964         CLRF INDEX,0
  0000030A            01965 F1_000049 EQU $ ; IN [RFID V28.4 CWRITE TEST.BAS] REPEAT
00030A                01966 BC@LL6
  0000030A            01967 F1_000050 EQU $ ; IN [RFID V28.4 CWRITE TEST.BAS] BYTE_VAR = RANDOM
                      01968         F@CALL RN@DM
00030C 6E37           01969         MOVWF BYTE_VAR,0
  0000030E            01970 F1_000051 EQU $ ; IN [RFID V28.4 CWRITE TEST.BAS] PRINT BYTE_VAR
00030E 5037           01971         MOVF BYTE_VAR,W,0
                      01972         F@CALL PRINT
  00000312            01973 F1_000052 EQU $ ; IN [RFID V28.4 CWRITE TEST.BAS] PAUSE 1000
000312 0E03           01974         MOVLW 3
000314 6E0A           01975         MOVWF PP1H,0
000316 0EE8           01976         MOVLW 232
                      01977         F@CALL DLY@W
  0000031A            01978 F1_000053 EQU $ ; IN [RFID V28.4 CWRITE TEST.BAS] CWRITE WORD_VAR,[BYTE_VAR  ]
00031A C038 FFF6      01979         MOVFF WORD_VAR,TBLPTRL
00031E C039 FFF7      01980         MOVFF WORD_VARH,TBLPTRLH
000322 5037           01981         MOVF BYTE_VAR,W,0
                      01982         F@CALL C@WRITE
  00000326            01983 F1_000054 EQU $ ; IN [RFID V28.4 CWRITE TEST.BAS] INC INDEX
000326 2A35           01984         INCF INDEX,F,0
  00000328            01985 F1_000055 EQU $ ; IN [RFID V28.4 CWRITE TEST.BAS] INC WORD_VAR
000328 4A38           01986         INFSNZ WORD_VAR,F,0
00032A 2A39           01987         INCF WORD_VARH,F,0
  0000032C            01988 F1_000056 EQU $ ; IN [RFID V28.4 CWRITE TEST.BAS] UNTIL INDEX >= FLASHWRITEBLOCK
00032C 0E0F           01989         MOVLW 15
00032E 6435           01990         CPFSGT INDEX,0
                      01991         F@JUMP BC@LL6
000332                01992 BC@LL7
  00000332            01993 F1_000058 EQU $ ; IN [RFID V28.4 CWRITE TEST.BAS] RETURN
000332 0012           01994         RETURN 0
  00000334            01995 F5_SOF EQU $ ; SOUND.INC
000334                01996 BEEP
  00000334            01997 F5_000023 EQU $ ; IN [SOUND.INC] GOSUB HIGH_V
                      01998         F@CALL HIGH_V
  00000338            01999 F5_000024 EQU $ ; IN [SOUND.INC] SOUND SP1,[110,50]
000338 0E82           02000         MOVLW PORTC
00033A 6E02           02001         MOVWF GEN,0
00033C 0E01           02002         MOVLW 1
00033E 6E03           02003         MOVWF GENH,0
000340 0E6E           02004         MOVLW 110
000342 6E09           02005         MOVWF PP1,0
000344 0E32           02006         MOVLW 50
                      02007         F@CALL NOISE
  00000348            02008 F5_000025 EQU $ ; IN [SOUND.INC] RETURN
000348 0012           02009         RETURN 0
00034A                02010 ERROR_BEEP
  0000034A            02011 F5_000028 EQU $ ; IN [SOUND.INC] GOSUB HIGH_V
                      02012         F@CALL HIGH_V
  0000034E            02013 F5_000029 EQU $ ; IN [SOUND.INC] SOUND SP1,[110,30,118,30]
00034E 0E82           02014         MOVLW PORTC
000350 6E02           02015         MOVWF GEN,0
000352 0E01           02016         MOVLW 1
000354 6E03           02017         MOVWF GENH,0
000356 0E6E           02018         MOVLW 110
000358 6E09           02019         MOVWF PP1,0
00035A 0E1E           02020         MOVLW 30
                      02021         F@CALL NOISE
00035E 0E76           02022         MOVLW 118
000360 6E09           02023         MOVWF PP1,0
000362 0E1E           02024         MOVLW 30
                      02025         F@CALL NOISE
  00000366            02026 F5_000030 EQU $ ; IN [SOUND.INC] RETURN
000366 0012           02027         RETURN 0
  00000368            02028 F5_EOF EQU $ ; SOUND.INC
  00000368            02029 F6_SOF EQU $ ; VOLTAGE_CONTROL.INC
000368                02030 LOW_V
  00000368            02031 F6_000012 EQU $ ; IN [VOLTAGE_CONTROL.INC] INPUT VC
000368 8692           02032         BSF TRISA,3,0
  0000036A            02033 F6_000013 EQU $ ; IN [VOLTAGE_CONTROL.INC] LOW SDC
00036A 9A95           02034         BCF TRISD,5,0
00036C 9A8C           02035         BCF LATD,5,0
  0000036E            02036 F6_000014 EQU $ ; IN [VOLTAGE_CONTROL.INC] RETURN
00036E 0012           02037         RETURN 0
000370                02038 HIGH_V
  00000370            02039 F6_000017 EQU $ ; IN [VOLTAGE_CONTROL.INC] HIGH SDC
000370 9A95           02040         BCF TRISD,5,0
000372 8A8C           02041         BSF LATD,5,0
  00000374            02042 F6_000018 EQU $ ; IN [VOLTAGE_CONTROL.INC] LOW VC
000374 9692           02043         BCF TRISA,3,0
000376 9689           02044         BCF LATA,3,0
  00000378            02045 F6_000019 EQU $ ; IN [VOLTAGE_CONTROL.INC] RETURN
000378 0012           02046         RETURN 0
  0000037A            02047 F6_EOF EQU $ ; VOLTAGE_CONTROL.INC
  0000037A            02048 F7_SOF EQU $ ; RESET_LOGGER.INC
00037A                02049 RESET_DIAGNOSTIC_LOGGER
  0000037A            02050 F7_000012 EQU $ ; IN [RESET_LOGGER.INC] BBOOT_CNT = EREAD EBOOT_CNT_LOCATION
00037A 0E10           02051         MOVLW 16
                      02052         F@CALL EE@RD
00037E 6E2F           02053         MOVWF BBOOT_CNT,0
  00000380            02054 F7_000013 EQU $ ; IN [RESET_LOGGER.INC] IF BBOOT_CNT = 255 THEN
000380 3C2F           02055         INCFSZ BBOOT_CNT,W,0
                      02056         F@JUMP BC@LL9
000386                02057 RESET_COUNT
  00000386            02058 F7_000014 EQU $ ; IN [RESET_LOGGER.INC] RESET_COUNT:       BBOOT_CNT = 1
000386 0E01           02059         MOVLW 1
000388 6E2F           02060         MOVWF BBOOT_CNT,0
  0000038A            02061 F7_000015 EQU $ ; IN [RESET_LOGGER.INC] EWRITE EBOOT_CNT_LOCATION,[BBOOT_CNT]
00038A 0E10           02062         MOVLW 16
00038C 6EA9           02063         MOVWF EEADR,0
00038E 6AAA           02064         CLRF EEADRH,0
000390 502F           02065         MOVF BBOOT_CNT,W,0
                      02066         F@CALL EE@WR@W
  00000394            02067 F7_000016 EQU $ ; IN [RESET_LOGGER.INC] GOTO WRITE_PCON_DATA
                      02068         F@JUMP WRITE_PCON_DATA
  00000398            02069 F7_000017 EQU $ ; IN [RESET_LOGGER.INC] ENDIF
000398                02070 BC@LL9
  00000398            02071 F7_000018 EQU $ ; IN [RESET_LOGGER.INC] IF BBOOT_CNT > 10 THEN GOTO RESET_COUNT
000398 0E0B           02072         MOVLW 11
00039A 5C2F           02073         SUBWF BBOOT_CNT,W,0
00039C A0D8           02074         BTFSS STATUS,0,0
                      02075         GO@TO BC@LL11
                      02076         F@JUMP RESET_COUNT
0003A4                02077 BC@LL11
  000003A4            02078 F7_000019 EQU $ ; IN [RESET_LOGGER.INC] INC BBOOT_CNT
0003A4 2A2F           02079         INCF BBOOT_CNT,F,0
  000003A6            02080 F7_000020 EQU $ ; IN [RESET_LOGGER.INC] EWRITE EBOOT_CNT_LOCATION,[BBOOT_CNT]
0003A6 0E10           02081         MOVLW 16
0003A8 6EA9           02082         MOVWF EEADR,0
0003AA 6AAA           02083         CLRF EEADRH,0
0003AC 502F           02084         MOVF BBOOT_CNT,W,0
                      02085         F@CALL EE@WR@W
0003B0                02086 WRITE_PCON_DATA
  000003B0            02087 F7_000024 EQU $ ; IN [RESET_LOGGER.INC] SELECT RCON
  000003B0            02088 F7_000025 EQU $ ; IN [RESET_LOGGER.INC] CASE 12,13
0003B0 0E0C           02089         MOVLW 12
0003B2 5CD0           02090         SUBWF RCON,W,0
0003B4 B4D8           02091         BTFSC STATUS,2,0
                      02092         GO@TO BC@LL14
0003BA 0E0D           02093         MOVLW 13
0003BC 62D0           02094         CPFSEQ RCON,0
                      02095         F@JUMP BC@LL13
0003C2                02096 BC@LL14
  000003C2            02097 F7_000026 EQU $ ; IN [RESET_LOGGER.INC] BRESET_TYPE = 1
0003C2 0E01           02098         MOVLW 1
0003C4 6E30           02099         MOVWF BRESET_TYPE,0
                      02100         F@JUMP BC@LL12
0003CA                02101 BC@LL13
  000003CA            02102 F7_000027 EQU $ ; IN [RESET_LOGGER.INC] CASE 7
0003CA 0E07           02103         MOVLW 7
0003CC 62D0           02104         CPFSEQ RCON,0
                      02105         F@JUMP BC@LL16
  000003D2            02106 F7_000028 EQU $ ; IN [RESET_LOGGER.INC] BRESET_TYPE = 2
0003D2 0E02           02107         MOVLW 2
0003D4 6E30           02108         MOVWF BRESET_TYPE,0
                      02109         F@JUMP BC@LL12
0003DA                02110 BC@LL16
  000003DA            02111 F7_000029 EQU $ ; IN [RESET_LOGGER.INC] CASE 15
0003DA 0E0F           02112         MOVLW 15
0003DC 62D0           02113         CPFSEQ RCON,0
                      02114         F@JUMP BC@LL18
  000003E2            02115 F7_000030 EQU $ ; IN [RESET_LOGGER.INC] BRESET_TYPE = 3
0003E2 0E03           02116         MOVLW 3
0003E4 6E30           02117         MOVWF BRESET_TYPE,0
                      02118         F@JUMP BC@LL12
0003EA                02119 BC@LL18
  000003EA            02120 F7_000031 EQU $ ; IN [RESET_LOGGER.INC] CASE 14
0003EA 0E0E           02121         MOVLW 14
0003EC 62D0           02122         CPFSEQ RCON,0
                      02123         F@JUMP BC@LL20
  000003F2            02124 F7_000032 EQU $ ; IN [RESET_LOGGER.INC] BRESET_TYPE = 4
0003F2 0E04           02125         MOVLW 4
0003F4 6E30           02126         MOVWF BRESET_TYPE,0
                      02127         F@JUMP BC@LL12
0003FA                02128 BC@LL20
  000003FA            02129 F7_000033 EQU $ ; IN [RESET_LOGGER.INC] CASE 11
0003FA 0E0B           02130         MOVLW 11
0003FC 62D0           02131         CPFSEQ RCON,0
                      02132         F@JUMP BC@LL22
  00000402            02133 F7_000034 EQU $ ; IN [RESET_LOGGER.INC] BRESET_TYPE = 5
000402 0E05           02134         MOVLW 5
000404 6E30           02135         MOVWF BRESET_TYPE,0
                      02136         F@JUMP BC@LL12
00040A                02137 BC@LL22
  0000040A            02138 F7_000035 EQU $ ; IN [RESET_LOGGER.INC] CASE 143
00040A 0E8F           02139         MOVLW 143
00040C 62D0           02140         CPFSEQ RCON,0
                      02141         F@JUMP BC@LL24
  00000412            02142 F7_000036 EQU $ ; IN [RESET_LOGGER.INC] BRESET_TYPE = 6
000412 0E06           02143         MOVLW 6
000414 6E30           02144         MOVWF BRESET_TYPE,0
                      02145         F@JUMP BC@LL12
00041A                02146 BC@LL24
  0000041A            02147 F7_000037 EQU $ ; IN [RESET_LOGGER.INC] CASE 79
00041A 0E4F           02148         MOVLW 79
00041C 62D0           02149         CPFSEQ RCON,0
                      02150         F@JUMP BC@LL26
  00000422            02151 F7_000038 EQU $ ; IN [RESET_LOGGER.INC] BRESET_TYPE = 7
000422 0E07           02152         MOVLW 7
000424 6E30           02153         MOVWF BRESET_TYPE,0
  00000426            02154 F7_000039 EQU $ ; IN [RESET_LOGGER.INC] CASE ELSE
                      02155         F@JUMP BC@LL28
00042A                02156 BC@LL26
  0000042A            02157 F7_000040 EQU $ ; IN [RESET_LOGGER.INC] BRESET_TYPE = RCON
00042A CFD0 F030      02158         MOVFF RCON,BRESET_TYPE
  0000042E            02159 F7_000041 EQU $ ; IN [RESET_LOGGER.INC] END SELECT
00042E                02160 BC@LL28
00042E                02161 BC@LL12
  0000042E            02162 F7_000043 EQU $ ; IN [RESET_LOGGER.INC] EWRITE EBOOT_CNT_LOCATION + BBOOT_CNT,[BRESET_TYPE]
00042E 0E10           02163         MOVLW 16
000430 242F           02164         ADDWF BBOOT_CNT,W,0
000432 6EA9           02165         MOVWF EEADR,0
000434 6AAA           02166         CLRF EEADRH,0
000436 36AA           02167         RLCF EEADRH,F,0
000438 5030           02168         MOVF BRESET_TYPE,W,0
                      02169         F@CALL EE@WR@W
00043C                02170 OVER_BOOT_LOGGER
  0000043C            02171 F7_000045 EQU $ ; IN [RESET_LOGGER.INC] RCON = 001111
00043C 0E57           02172         MOVLW 1111
00043E 6ED0           02173         MOVWF RCON,0
  00000440            02174 F7_000082 EQU $ ; IN [RESET_LOGGER.INC] RETURN
000440 0012           02175         RETURN 0
  00000442            02176 F7_EOF EQU $ ; RESET_LOGGER.INC
009C40                02177         ORG 40000
009C40 3241 4237 3338 02178         DB 65,50,55,66,56,51
009C46 0042           02179         DB 66,0
  00009C48            02180 F1_EOF EQU $ ; RFID V28.4 CWRITE TEST.BAS
009C48                02181 PB@LB30
009C48 D7FF           02182         BRA PB@LB30
009C4A                02184 __EOF
01 18 1E 81 84 0F C0 002185 CONFIG OSC = XT
       F E0 0F 40 
                      02186 CONFIG PWRT = ON
                      02187 CONFIG BOREN = OFF
                      02188 CONFIG MCLRE = ON
                      02189 CONFIG PBADEN = OFF
                      02190 CONFIG STVREN = OFF
                      02191 CONFIG WDT = OFF
                      02192 CONFIG LVP = ON
                      02193 CONFIG XINST = OFF
                      02194 CONFIG CP0 = OFF
                      02195 CONFIG CP1 = OFF
                      02196 CONFIG CPB = OFF
                      02197 CONFIG CPD = OFF
                      02198 CONFIG WRT0 = OFF
                      02199 CONFIG WRT1 = OFF
                      02200 CONFIG WRTB = OFF
                      02201 CONFIG WRTC = OFF
                      02202 CONFIG WRTD = OFF
                      02203 CONFIG EBTR0 = OFF
                      02204 CONFIG EBTR1 = OFF
                      02205 CONFIG EBTRB = OFF
                      02206         END
MPASM  5.35                               A.S   3-10-2012  10:04:08         PAGE  2


SYMBOL TABLE
  LABEL                             VALUE 

ABDEN                             00000000
ABDOVF                            00000007
ACKDT                             00000005
ACKEN                             00000004
ACKSTAT                           00000006
ACQT0                             00000003
ACQT1                             00000004
ACQT2                             00000005
ADCON0                            00000FC2
ADCON1                            00000FC1
ADCON2                            00000FC0
ADCS0                             00000000
ADCS1                             00000001
ADCS2                             00000002
ADDEN                             00000003
ADEN                              00000003
ADFM                              00000007
ADIE                              00000006
ADIF                              00000006
ADIP                              00000006
ADON                              00000000
ADRES                             00000FC3
ADRESH                            00000FC4
ADRESL                            00000FC3
ADRESLH                           00000FC4
AN10                              00000001
AN11                              00000004
AN12                              00000000
AN4                               00000005
AN5                               00000000
AN6                               00000001
AN7                               00000002
AN8                               00000002
AN9                               00000003
BANK0_END                         255
BANK0_START                       128
BANK10_END                        2815
BANK10_START                      2560
BANK11_END                        3071
BANK11_START                      2816
BANK12_END                        3327
BANK12_START                      3072
BANK13_END                        3583
BANK13_START                      3328
BANK14_END                        3839
BANK14_START                      3584
BANK1_END                         511
BANK1_START                       256
BANK2_END                         767
BANK2_START                       512
BANK3_END                         1023
BANK3_START                       768
BANK4_END                         1279
BANK4_START                       1024
BANK5_END                         1535
BANK5_START                       1280
BANK6_END                         1791
BANK6_START                       1536
BANK7_END                         2047
BANK7_START                       1792
BANK8_END                         2303
BANK8_START                       2048
BANK9_END                         2559
BANK9_START                       2304
BANKA_END                         127
BANKA_START                       0
BAUDCON                           00000FB8
BAUDCTL                           00000FB8
BBOOT_CNT                         0000002F
BC@LL11                           000003A4
BC@LL12                           0000042E
BC@LL13                           000003CA
BC@LL14                           000003C2
BC@LL16                           000003DA
BC@LL18                           000003EA
BC@LL2                            0000029A
BC@LL20                           000003FA
BC@LL22                           0000040A
BC@LL24                           0000041A
BC@LL26                           0000042A
BC@LL28                           0000042E
BC@LL4                            000002E0
BC@LL5                            000002FC
BC@LL6                            0000030A
BC@LL7                            00000332
BC@LL9                            00000398
BCLIE                             00000003
BCLIF                             00000003
BCLIP                             00000003
BEEP                              00000334
BF                                00000000
BGST                              00000005
BIT_BIT                           
BIT_BYTE                          
BIT_DWORD                         
BIT_FLOAT                         
BIT_WORD                          
BIT_WREG                          
BOR                               00000000
BOREN_NOSLP_2                     000000FD
BOREN_OFF_2                       000000F9
BOREN_ON_2                        000000FB
BOREN_SBORDIS_2                   000000FF
BORV_0_2                          000000E7
BORV_1_2                          000000EF
BORV_2_2                          000000F7
BORV_3_2                          000000FF
BPF                               00000000
BPFH                              00000001
BRESET_TYPE                       00000030
BRG16                             00000003
BRGH                              00000002
BSR                               00000FE0
BUA                               40064
BUAH                              156
BYTE_BIT                          
BYTE_BYTE                         
BYTE_DWORD                        
BYTE_FLOAT                        
BYTE_VAR                          00000037
BYTE_WORD                         
BYTE_WREG                         
C                                 00000000
C1INV                             00000004
C1OUT                             00000006
C2INV                             00000005
C2OUT                             00000007
C@ERASE                           0000012E
C@ERASE2                          00000130
C@WRITE                           0000010C
CCP1                              00000002
CCP1CON                           00000FBD
CCP1IE                            00000002
CCP1IF                            00000002
CCP1IP                            00000002
CCP1M0                            00000000
CCP1M1                            00000001
CCP1M2                            00000002
CCP1M3                            00000003
CCP1X                             00000005
CCP1Y                             00000004
CCP2CON                           00000FBA
CCP2IE                            00000000
CCP2IF                            00000000
CCP2IP                            00000000
CCP2M0                            00000000
CCP2M1                            00000001
CCP2M2                            00000002
CCP2M3                            00000003
CCP2MX_PORTBE_3                   000000FE
CCP2MX_PORTC_3                    000000FF
CCP2X                             00000005
CCP2Y                             00000004
CCP2_PORTB                        00000003
CCP2_PORTC                        00000001
CCPR1                             00000FBE
CCPR1H                            00000FBF
CCPR1L                            00000FBE
CCPR1LH                           00000FBF
CCPR2                             00000FBB
CCPR2H                            00000FBC
CCPR2L                            00000FBB
CCPR2LH                           00000FBC
CFGS                              00000006
CH@SND                            000000D8
CHECKSUM                          00000032
CHS0                              00000002
CHS1                              00000003
CHS2                              00000004
CHS3                              00000005
CIS                               00000003
CK                                00000006
CKE                               00000006
CKP                               00000004
CLRC                              BCF STATUS,0
CLRW                              CLRF WREG
CLRZ                              BCF STATUS,2
CLS                               0000000C
CM0                               00000000
CM1                               00000001
CM2                               00000002
CMCON                             00000FB4
CMIE                              00000006
CMIF                              00000006
CMIP                              00000006
CONFIG1H                          00300001
CONFIG2H                          00300003
CONFIG2L                          00300002
CONFIG3H                          00300005
CONFIG4L                          00300006
CONFIG5H                          00300009
CONFIG5L                          00300008
CONFIG6H                          0030000B
CONFIG6L                          0030000A
CONFIG7H                          0030000D
CONFIG7L                          0030000C
CONFIG_REQ                        1
CP0_OFF_5                         000000FF
CP0_ON_5                          000000FE
CP1_OFF_5                         000000FF
CP1_ON_5                          000000FD
CP2_OFF_5                         000000FF
CP2_ON_5                          000000FB
CPB_OFF_5                         000000FF
CPB_ON_5                          000000BF
CPD_OFF_5                         000000FF
CPD_ON_5                          0000007F
CR@EXIT                           00000128
CREN                              00000004
CS                                00000002
CSRC                              00000007
CVR0                              00000000
CVR1                              00000001
CVR2                              00000002
CVR3                              00000003
CVRCON                            00000FB5
CVREN                             00000007
CVROE                             00000006
CVRR                              00000005
CVRSS                             00000004
D                                 00000005
DBO                               4
DC                                00000001
DC1B0                             00000004
DC1B1                             00000005
DC2B0                             00000004
DC2B1                             00000005
DDRA                              00000F92
DDRB                              00000F93
DDRC                              00000F94
DDRD                              00000F95
DDRE                              00000F96
DEBUG                             00000FD4
DEBUG_OFF_4                       000000FF
DEBUG_ON_4                        0000007F
DEVID1                            003FFFFE
DEVID2                            003FFFFF
DL@MS                             000001CC
DL@US                             000001E6
DLUS@W                            000001E8
DLY@P                             000001D0
DLY@W                             000001CE
DONE                              00000001
DWORD_BIT                         
DWORD_BYTE                        
DWORD_DWORD                       
DWORD_FLOAT                       
DWORD_WORD                        
DWORD_WREG                        
D_A                               00000005
EBOOT_CNT_LOCATION                16
EBTR0_OFF_7                       000000FF
EBTR0_ON_7                        000000FE
EBTR1_OFF_7                       000000FF
EBTR1_ON_7                        000000FD
EBTR2_OFF_7                       000000FF
EBTR2_ON_7                        000000FB
EBTRB_OFF_7                       000000FF
EBTRB_ON_7                        000000BF
ECCP1AS                           00000FB6
ECCPAS                            00000FB6
ECCPAS0                           00000004
ECCPAS1                           00000005
ECCPAS2                           00000006
ECCPASE                           00000007
EE@RD                             000000DE
EE@RD@W                           000000E2
EE@WR                             000000EE
EE@WR@W                           000000F0
EEADR                             00000FA9
EEADRH                            00000FAA
EECON1                            00000FA6
EECON2                            00000FA7
EEDATA                            00000FA8
EEDATL                            00000FA8
EEIE                              00000004
EEIF                              00000004
EEIP                              00000004
EEPGD                             00000007
ENDOFCODESPACE                    42614
ENDOFCODESPACEH                   166
ERASEPROGRAMDATA                  000002D8
ERROR_BEEP                        0000034A
ETX                               00000031
F1_000012                         0000029A
F1_000013                         0000029C
F1_000014                         000002B0
F1_000015                         000002B4
F1_000016                         000002BC
F1_000017                         000002C0
F1_000018                         000002C4
F1_000019                         000002C8
F1_000020                         000002CA
F1_000021                         000002D4
F1_000029                         000002D8
F1_000031                         000002E0
F1_000032                         000002E0
F1_000033                         000002E8
F1_000034                         000002F0
F1_000035                         000002FC
F1_000036                         000002FE
F1_000045                         00000300
F1_000048                         00000308
F1_000049                         0000030A
F1_000050                         0000030A
F1_000051                         0000030E
F1_000052                         00000312
F1_000053                         0000031A
F1_000054                         00000326
F1_000055                         00000328
F1_000056                         0000032C
F1_000058                         00000332
F1_EOF                            00009C48
F1_SOF                            00000222
F2_EOF                            00000222
F2_SOF                            00000222
F3_EOF                            00000222
F3_SOF                            00000222
F4_000047                         00000222
F4_000137                         0000022A
F4_000138                         0000022E
F4_000139                         00000232
F4_000140                         00000234
F4_000141                         00000238
F4_000142                         0000023C
F4_000143                         00000240
F4_000144                         00000244
F4_000148                         00000248
F4_000149                         0000024E
F4_000150                         00000254
F4_000151                         0000025E
F4_000152                         00000268
F4_000153                         00000272
F4_000154                         0000027C
F4_000155                         00000286
F4_000156                         00000290
F4_000157                         0000029A
F4_EOF                            0000029A
F4_SOF                            00000222
F5_000023                         00000334
F5_000024                         00000338
F5_000025                         00000348
F5_000028                         0000034A
F5_000029                         0000034E
F5_000030                         00000366
F5_EOF                            00000368
F5_SOF                            00000334
F6_000012                         00000368
F6_000013                         0000036A
F6_000014                         0000036E
F6_000017                         00000370
F6_000018                         00000374
F6_000019                         00000378
F6_EOF                            0000037A
F6_SOF                            00000368
F7_000012                         0000037A
F7_000013                         00000380
F7_000014                         00000386
F7_000015                         0000038A
F7_000016                         00000394
F7_000017                         00000398
F7_000018                         00000398
F7_000019                         000003A4
F7_000020                         000003A6
F7_000024                         000003B0
F7_000025                         000003B0
F7_000026                         000003C2
F7_000027                         000003CA
F7_000028                         000003D2
F7_000029                         000003DA
F7_000030                         000003E2
F7_000031                         000003EA
F7_000032                         000003F2
F7_000033                         000003FA
F7_000034                         00000402
F7_000035                         0000040A
F7_000036                         00000412
F7_000037                         0000041A
F7_000038                         00000422
F7_000039                         00000426
F7_000040                         0000042A
F7_000041                         0000042E
F7_000043                         0000042E
F7_000045                         0000043C
F7_000082                         00000440
F7_EOF                            00000442
F7_SOF                            0000037A
F@CALL                            
F@JUMP                            
FCMEN_OFF_1                       000000BF
FCMEN_ON_1                        000000FF
FERR                              00000002
FLASHERASESEG                     64
FLASHWRITEBLOCK                   16
FLOAT_BIT                         
FLOAT_BYTE                        
FLOAT_DWORD                       
FLOAT_FLOAT                       
FLOAT_WORD                        
FLOAT_WREG                        
FLTS                              00000002
FREE                              00000004
FSR0H                             00000FEA
FSR0L                             00000FE9
FSR0LH                            00000FEA
FSR1H                             00000FE2
FSR1L                             00000FE1
FSR1LH                            00000FE2
FSR2H                             00000FDA
FSR2L                             00000FD9
FSR2LH                            00000FDA
G@OTO                             
GCEN                              00000007
GEN                               00000002
GENH                              00000003
GENL                              00000004
GIE                               00000007
GIEH                              00000007
GIEL                              00000006
GO                                00000001
GO@TO                             
GO_DONE                           00000001
GREEN                             PORTA,1
HIGH_V                            00000370
HLVDCON                           00000FD2
HLVDEN                            00000004
HLVDIE                            00000002
HLVDIF                            00000002
HLVDIN                            00000005
HLVDIP                            00000002
HLVDL0                            00000000
HLVDL1                            00000001
HLVDL2                            00000002
HLVDL3                            00000003
IBF                               00000007
IBOV                              00000005
IDLEN                             00000007
IDLOC0                            00200000
IDLOC1                            00200001
IDLOC2                            00200002
IDLOC3                            00200003
IDLOC4                            00200004
IDLOC5                            00200005
IDLOC6                            00200006
IDLOC7                            00200007
IESO_OFF_1                        0000007F
IESO_ON_1                         000000FF
INDEX                             00000035
INDEX2                            00000036
INDF0                             00000FEF
INDF1                             00000FE7
INDF2                             00000FDF
INT0                              00000000
INT0E                             00000004
INT0F                             00000001
INT0IE                            00000004
INT0IF                            00000001
INT1                              00000001
INT1E                             00000003
INT1F                             00000000
INT1IE                            00000003
INT1IF                            00000000
INT1IP                            00000006
INT1P                             00000006
INT2                              00000002
INT2E                             00000004
INT2F                             00000001
INT2IE                            00000004
INT2IF                            00000001
INT2IP                            00000007
INT2P                             00000007
INTCON                            00000FF2
INTCON2                           00000FF1
INTCON3                           00000FF0
INTEDG0                           00000006
INTEDG1                           00000005
INTEDG2                           00000004
INTSRC                            00000007
IOFS                              00000002
IPEN                              00000007
IPR1                              00000F9F
IPR2                              00000FA2
IRCF0                             00000004
IRCF1                             00000005
IRCF2                             00000006
IRVST                             00000005
IVRST                             00000005
JUMP                              
KBI0                              00000004
KBI1                              00000005
KBI2                              00000006
KBI3                              00000007
LABEL_POINTER                     
LABEL_WORD                        
LATA                              00000F89
LATA0                             00000000
LATA1                             00000001
LATA2                             00000002
LATA3                             00000003
LATA4                             00000004
LATA5                             00000005
LATA6                             00000006
LATA7                             00000007
LATB                              00000F8A
LATB0                             00000000
LATB1                             00000001
LATB2                             00000002
LATB3                             00000003
LATB4                             00000004
LATB5                             00000005
LATB6                             00000006
LATB7                             00000007
LATC                              00000F8B
LATC0                             00000000
LATC1                             00000001
LATC2                             00000002
LATC3                             00000003
LATC4                             00000004
LATC5                             00000005
LATC6                             00000006
LATC7                             00000007
LATD                              00000F8C
LATD0                             00000000
LATD1                             00000001
LATD2                             00000002
LATD3                             00000003
LATD4                             00000004
LATD5                             00000005
LATD6                             00000006
LATD7                             00000007
LATE                              00000F8D
LATE0                             00000000
LATE1                             00000001
LATE2                             00000002
LCD#DTPIN                         0
LCD#DTPORT                        PORTD
LCD#ENPIN                         6
LCD#ENPORT                        PORTD
LCD#INTERFACE                     4
LCD#LINES                         2
LCD#RSPIN                         7
LCD#RSPORT                        PORTD
LCD#TYPE                          0
LCD@CLS                           00000008
LOW_V                             00000368
LPT1OSC_OFF_3                     000000FB
LPT1OSC_ON_3                      000000FF
LVDCON                            00000FD2
LVDEN                             00000004
LVDIE                             00000002
LVDIF                             00000002
LVDIN                             00000005
LVDIP                             00000002
LVDL0                             00000000
LVDL1                             00000001
LVDL2                             00000002
LVDL3                             00000003
LVP_OFF_4                         000000FB
LVP_ON_4                          000000FF
LVV0                              00000000
LVV1                              00000001
LVV2                              00000002
LVV3                              00000003
MAX_MH                            10
MAX_UH                            50
MCLR                              00000003
MCLRE_OFF_3                       0000007F
MCLRE_ON_3                        000000FF
MHA                               912
MHAH                              3
MODNUM                            00000024
MODNUM#0                          00000024
MODNUM#1                          00000025
MODNUM#2                          00000026
MODNUM#3                          00000027
MODNUM#4                          00000028
MODNUM#5                          00000029
MODNUM#6                          0000002A
MOP                               7
MOVFW                             
MYCOUNT                           00000034
MYNUM                             0000003A
MYNUM#0                           0000003A
MYNUM#1                           0000003B
MYNUM#2                           0000003C
MYNUM#3                           0000003D
M_U_CODE                          0000002B
M_U_CODE#0                        0000002B
M_U_CODE#1                        0000002C
M_U_CODE#2                        0000002D
M_U_CODE#3                        0000002E
N                                 00000004
NEGW                              NEGF WREG
NOISE                             00000144
NOT_A                             00000005
NOT_ADDRESS                       00000005
NOT_BOR                           00000000
NOT_CS                            00000002
NOT_DONE                          00000001
NOT_MCLR                          00000003
NOT_PD                            00000002
NOT_POR                           00000001
NOT_RBPU                          00000007
NOT_RD                            00000000
NOT_RI                            00000004
NOT_SS                            00000005
NOT_T1SYNC                        00000002
NOT_T3SYNC                        00000002
NOT_TO                            00000003
NOT_W                             00000002
NOT_WR                            00000001
NOT_WRITE                         00000002
NUM_BIT                           
NUM_BYTE                          
NUM_DWORD                         
NUM_FLOAT                         
NUM_FSR0                          
NUM_FSR1                          
NUM_FSR2                          
NUM_MHE                           3
NUM_SFR                           
NUM_UHE                           2
NUM_USERS                         1
NUM_WORD                          
NUM_WREG                          
OBF                               00000006
OERR                              00000001
OSCCON                            00000FD3
OSCFIE                            00000007
OSCFIF                            00000007
OSCFIP                            00000007
OSCTUNE                           00000F9B
OSC_ECIO6_1                       000000F5
OSC_EC_1                          000000F4
OSC_HSPLL_1                       000000F6
OSC_HS_1                          000000F2
OSC_INTIO67_1                     000000F8
OSC_INTIO7_1                      000000F9
OSC_LP_1                          000000F0
OSC_RCIO6_1                       000000F7
OSC_RC_1                          000000F3
OSC_XT_1                          000000F1
OSTS                              00000003
OV                                00000003
OVER_BOOT_LOGGER                  0000043C
P                                 00000004
P1B                               00000005
P1C                               00000006
P1D                               00000007
P1M0                              00000006
P1M1                              00000007
PB@LB30                           00009C48
PB@LB4                            000002D4
PBADEN_OFF_3                      000000FD
PBADEN_ON_3                       000000FF
PBP#RND                           00000005
PBP#RNDH                          00000006
PC                                00000FF9
PCFG0                             00000000
PCFG1                             00000001
PCFG2                             00000002
PCFG3                             00000003
PCL                               00000FF9
PCLATH                            00000FFA
PCLATU                            00000FFB
PD                                00000002
PDC0                              00000000
PDC1                              00000001
PDC2                              00000002
PDC3                              00000003
PDC4                              00000004
PDC5                              00000005
PDC6                              00000006
PEIE                              00000006
PEN                               00000002
PGC                               00000006
PGD                               00000007
PGM                               00000005
PIE1                              00000F9D
PIE2                              00000FA0
PIR1                              00000F9E
PIR2                              00000FA1
PLLEN                             00000006
PLUSW0                            00000FEB
PLUSW1                            00000FE3
PLUSW2                            00000FDB
POR                               00000001
PORTA                             00000F80
PORTB                             00000F81
PORTC                             00000F82
PORTD                             00000F83
PORTE                             00000F84
POSTDEC0                          00000FED
POSTDEC1                          00000FE5
POSTDEC2                          00000FDD
POSTINC0                          00000FEE
POSTINC1                          00000FE6
POSTINC2                          00000FDE
PP0                               00000007
PP0H                              00000008
PP1                               00000009
PP1H                              0000000A
PP2                               0000000B
PP2H                              0000000C
PP3                               0000000D
PP3H                              0000000E
PP4                               0000000F
PP_ACKDT                          00000005
PP_ACKEN                          00000004
PP_ADON                           00000000
PP_CREN                           00000004
PP_EEPGD                          00000007
PP_GO_DONE                        00000001
PP_OERR                           00000001
PP_PEN                            00000002
PP_RCEN                           00000003
PP_RCIF                           00000005
PP_RD                             00000000
PP_RSEN                           00000001
PP_R_W                            00000002
PP_SEN                            00000000
PP_T2CKPS0                        00000000
PP_T2CKPS1                        00000001
PP_TMR2ON                         00000002
PP_TXIF                           00000004
PP_WR                             00000001
PP_WREN                           00000002
PR2                               00000FCB
PR@CC                             000000AA
PR@CM                             0000008C
PR@EX                             000000D4
PR@LP                             000000B6
PR@SD                             000000B2
PREINC0                           00000FEC
PREINC1                           00000FE4
PREINC2                           00000FDC
PRINT                             00000032
PRINT@MSTR                        00000022
PRINT@MSTRL                       00000022
PRODH                             00000FF4
PRODL                             00000FF3
PRODLH                            00000FF4
PROTON#CODE#START                 00000000
PROTON#MAIN#START                 0000021A
PRSEN                             00000007
PRT@1                             0000008E
PRT@MTEXT                         00000030
PRT@MTL1                          00000026
PSA                               00000003
PSP0                              00000000
PSP1                              00000001
PSP2                              00000002
PSP3                              00000003
PSP4                              00000004
PSP5                              00000005
PSP6                              00000006
PSP7                              00000007
PSPIE                             00000007
PSPIF                             00000007
PSPIP                             00000007
PSPMODE                           00000004
PSSAC0                            00000002
PSSAC1                            00000003
PSSBD0                            00000000
PSSBD1                            00000001
PWM1CON                           00000FB7
PWRT_OFF_2                        000000FF
PWRT_ON_2                         000000FE
R                                 00000002
R@B                               
RA0                               00000000
RA1                               00000001
RA2                               00000002
RA3                               00000003
RA4                               00000004
RA5                               00000005
RA6                               00000006
RA7                               00000007
RAM_BANK                          00000000
RAM_BANKS                         15
RB0                               00000000
RB1                               00000001
RB2                               00000002
RB3                               00000003
RB4                               00000004
RB5                               00000005
RB6                               00000006
RB7                               00000007
RBIE                              00000003
RBIF                              00000000
RBIP                              00000000
RBPU                              00000007
RC0                               00000000
RC1                               00000001
RC2                               00000002
RC3                               00000003
RC4                               00000004
RC5                               00000005
RC6                               00000006
RC7                               00000007
RCEN                              00000003
RCIDL                             00000006
RCIE                              00000005
RCIF                              00000005
RCIP                              00000005
RCMT                              00000006
RCON                              00000FD0
RCREG                             00000FAE
RCSTA                             00000FAB
RD                                00000000
RD0                               00000000
RD1                               00000001
RD16                              00000007
RD2                               00000002
RD3                               00000003
RD4                               00000004
RD5                               00000005
RD6                               00000006
RD7                               00000007
RE0                               00000000
RE1                               00000001
RE2                               00000002
RE3                               00000003
RED                               PORTA,0
RESET_CAUSE                       0000003E
RESET_CAUSE#0                     0000003E
RESET_CAUSE#1                     0000003F
RESET_CAUSE#10                    00000048
RESET_CAUSE#2                     00000040
RESET_CAUSE#3                     00000041
RESET_CAUSE#4                     00000042
RESET_CAUSE#5                     00000043
RESET_CAUSE#6                     00000044
RESET_CAUSE#7                     00000045
RESET_CAUSE#8                     00000046
RESET_CAUSE#9                     00000047
RESET_COUNT                       00000386
RESET_DIAGNOSTIC_LOGGER           0000037A
RESPONSE                          00000033
RFIDENABLE                        PORTD,4
RI                                00000004
RLF                               
RN@DM                             000001A8
RRF                               
RSEN                              00000001
RX                                00000007
RX9                               00000006
RX9D                              00000000
RXDTP                             00000005
R_W                               00000002
S                                 00000003
S@B                               
SBOREN                            00000006
SCK                               00000003
SCKP                              00000004
SCL                               00000003
SCS0                              00000000
SCS1                              00000001
SDA                               00000004
SDC                               PORTD,5
SDI                               00000004
SDO                               00000005
SD_CLK                            PORTC,3
SD_CS                             PORTC,2
SD_DETECT                         PORTC,1
SD_DI                             PORTC,5
SD_DO                             PORTC,4
SEN                               00000000
SENDB                             00000003
SETC                              BSF STATUS,0
SETZ                              BSF STATUS,2
SKPC                              BTFSS STATUS,0
SKPNC                             BTFSC STATUS,0
SKPNZ                             BTFSC STATUS,2
SKPZ                              BTFSS STATUS,2
SMP                               00000007
SND@EXIT                          0000019E
SND@LP                            00000164
SND@LP1                           0000016A
SOO                               6
SP0                               00000000
SP1                               PORTC,0
SP2                               00000002
SP3                               00000003
SP4                               00000004
SPBRG                             00000FAF
SPBRGH                            00000FB0
SPEN                              00000007
SREN                              00000005
SS                                00000005
SSPADD                            00000FC8
SSPBUF                            00000FC9
SSPCON1                           00000FC6
SSPCON2                           00000FC5
SSPEN                             00000005
SSPIE                             00000003
SSPIF                             00000003
SSPIP                             00000003
SSPM0                             00000000
SSPM1                             00000001
SSPM2                             00000002
SSPM3                             00000003
SSPOV                             00000006
SSPSTAT                           00000FC7
STARTENABLE                       PORTE,1
STATUS                            00000FD8
STKFUL                            00000007
STKOVF                            00000007
STKPTR                            00000FFC
STKPTR0                           00000000
STKPTR1                           00000001
STKPTR2                           00000002
STKPTR3                           00000003
STKPTR4                           00000004
STKUNF                            00000006
STR@LB1                           0000020E
STVREN_OFF_4                      000000FE
STVREN_ON_4                       000000FF
SWDTE                             00000000
SWDTEN                            00000000
SYNC                              00000004
T016BIT                           00000006
T08BIT                            00000006
T0CKI                             00000004
T0CON                             00000FD5
T0CS                              00000005
T0IE                              00000005
T0IF                              00000002
T0PS0                             00000000
T0PS1                             00000001
T0PS2                             00000002
T0SE                              00000004
T13CKI                            00000000
T1CKI                             00000000
T1CKPS0                           00000004
T1CKPS1                           00000005
T1CON                             00000FCD
T1OSCEN                           00000003
T1OSI                             00000001
T1OSO                             00000000
T1RUN                             00000006
T1SYNC                            00000002
T2CKPS0                           00000000
T2CKPS1                           00000001
T2CON                             00000FCA
T2OUTPS0                          00000003
T2OUTPS1                          00000004
T2OUTPS2                          00000005
T2OUTPS3                          00000006
T3CCP1                            00000003
T3CCP2                            00000006
T3CKPS0                           00000004
T3CKPS1                           00000005
T3CON                             00000FB1
T3SYNC                            00000002
TABLAT                            00000FF5
TAGBYTE                           0000001A
TAGBYTE#0                         0000001A
TAGBYTE#1                         0000001B
TAGBYTE#2                         0000001C
TAGBYTE#3                         0000001D
TAGBYTE#4                         0000001E
TAGBYTE#5                         0000001F
TAGBYTE#6                         00000020
TAGBYTE#7                         00000021
TAGBYTE#8                         00000022
TAGBYTE#9                         00000023
TAGIN                             00000010
TAGIN#0                           00000010
TAGIN#1                           00000011
TAGIN#2                           00000012
TAGIN#3                           00000013
TAGIN#4                           00000014
TAGIN#5                           00000015
TAGIN#6                           00000016
TAGIN#7                           00000017
TAGIN#8                           00000018
TAGIN#9                           00000019
TBLPTRH                           00000FF7
TBLPTRL                           00000FF6
TBLPTRLH                          00000FF7
TBLPTRLHH                         00000FF8
TBLPTRU                           00000FF8
TMR0H                             00000FD7
TMR0IE                            00000005
TMR0IF                            00000002
TMR0IP                            00000002
TMR0L                             00000FD6
TMR0LH                            00000FD7
TMR0ON                            00000007
TMR1CS                            00000001
TMR1H                             00000FCF
TMR1IE                            00000000
TMR1IF                            00000000
TMR1IP                            00000000
TMR1L                             00000FCE
TMR1LH                            00000FCF
TMR1ON                            00000000
TMR2                              00000FCC
TMR2IE                            00000001
TMR2IF                            00000001
TMR2IP                            00000001
TMR2ON                            00000002
TMR3CS                            00000001
TMR3H                             00000FB3
TMR3IE                            00000001
TMR3IF                            00000001
TMR3IP                            00000001
TMR3L                             00000FB2
TMR3LH                            00000FB3
TMR3ON                            00000000
TO                                00000003
TOP                               5
TOS                               00000FFD
TOSH                              00000FFE
TOSL                              00000FFD
TOSLH                             00000FFE
TOSU                              00000FFF
TOUTPS0                           00000003
TOUTPS1                           00000004
TOUTPS2                           00000005
TOUTPS3                           00000006
TRISA                             00000F92
TRISA0                            00000000
TRISA1                            00000001
TRISA2                            00000002
TRISA3                            00000003
TRISA4                            00000004
TRISA5                            00000005
TRISA6                            00000006
TRISA7                            00000007
TRISB                             00000F93
TRISB0                            00000000
TRISB1                            00000001
TRISB2                            00000002
TRISB3                            00000003
TRISB4                            00000004
TRISB5                            00000005
TRISB6                            00000006
TRISB7                            00000007
TRISC                             00000F94
TRISC0                            00000000
TRISC1                            00000001
TRISC2                            00000002
TRISC3                            00000003
TRISC4                            00000004
TRISC5                            00000005
TRISC6                            00000006
TRISC7                            00000007
TRISD                             00000F95
TRISD0                            00000000
TRISD1                            00000001
TRISD2                            00000002
TRISD3                            00000003
TRISD4                            00000004
TRISD5                            00000005
TRISD6                            00000006
TRISD7                            00000007
TRISE                             00000F96
TRISE0                            00000000
TRISE1                            00000001
TRISE2                            00000002
TRISE4                            00000004
TRISE5                            00000005
TRISE6                            00000006
TRISE7                            00000007
TRMT                              00000001
TUN0                              00000000
TUN1                              00000001
TUN2                              00000002
TUN3                              00000003
TUN4                              00000004
TX                                00000006
TX9                               00000006
TX9D                              00000000
TXCKP                             00000004
TXEN                              00000005
TXIE                              00000004
TXIF                              00000004
TXIP                              00000004
TXREG                             00000FAD
TXSTA                             00000FAC
UA                                00000001
UHA                               26
VC                                PORTA,3
VCFG0                             00000004
VCFG1                             00000005
VDIRMAG                           00000007
VPP                               00000003
WCOL                              00000007
WDTCON                            00000FD1
WDTPS_1024_2                      000000F5
WDTPS_128_2                       000000EF
WDTPS_16384_2                     000000FD
WDTPS_16_2                        000000E9
WDTPS_1_2                         000000E1
WDTPS_2048_2                      000000F7
WDTPS_256_2                       000000F1
WDTPS_2_2                         000000E3
WDTPS_32768_2                     000000FF
WDTPS_32_2                        000000EB
WDTPS_4096_2                      000000F9
WDTPS_4_2                         000000E5
WDTPS_512_2                       000000F3
WDTPS_64_2                        000000ED
WDTPS_8192_2                      000000FB
WDTPS_8_2                         000000E7
WDT_OFF_2                         000000FE
WDT_ON_2                          000000FF
WORD_BIT                          
WORD_BYTE                         
WORD_DWORD                        
WORD_FLOAT                        
WORD_VAR                          00000038
WORD_VARH                         00000039
WORD_WORD                         
WORD_WREG                         
WR                                00000001
WREG                              00000FE8
WREG_BIT                          
WREG_BYTE                         
WREG_DWORD                        
WREG_FLOAT                        
WREG_WORD                         
WREN                              00000002
WRERR                             00000003
WRITETOPROM                       00000300
WRITE_PCON_DATA                   000003B0
WRT0_OFF_6                        000000FF
WRT0_ON_6                         000000FE
WRT1_OFF_6                        000000FF
WRT1_ON_6                         000000FD
WRT2_OFF_6                        000000FF
WRT2_ON_6                         000000FB
WRTB_OFF_6                        000000FF
WRTB_ON_6                         000000BF
WRTC_OFF_6                        000000FF
WRTC_ON_6                         000000DF
WRTD_OFF_6                        000000FF
WRTD_ON_6                         0000007F
WUE                               00000001
XINST_OFF_4                       000000BF
XINST_ON_4                        000000FF
XTAL                              4
Z                                 00000002
_ADC                              13
_ADC_RES                          10
_CORE                             16
_CWRITE_BLOCK                     64
_EEPROM                           1024
_FLASH                            1
_I2C_SCL_PIN                      00000003
_I2C_SCL_PORT                     00000F94
_I2C_SDA_PIN                      00000004
_I2C_SDA_PORT                     00000F94
_MAXMEM                           49152
_MAXRAM                           3968
_RAM_END                          3968
_SYSTEM_VARIABLE_COUNT            16
_USART                            1
_USB                              0
_USB#RAM_START                    0
__18F4525                         1
__EOF                             00009C4A
__HSERIAL_BAUD                    9600
__HSERIAL_RCSTA                   144
__HSERIAL_TXSTA                   32
__IDLOC0                          00200000
__IDLOC1                          00200001
__IDLOC2                          00200002
__IDLOC3                          00200003
__IDLOC4                          00200004
__IDLOC5                          00200005
__IDLOC6                          00200006
__IDLOC7                          00200007
__LCD_DTPIN                       0
__LCD_DTPORT                      PORTD
__LCD_ENPIN                       6
__LCD_ENPORT                      PORTD
__LCD_INTERFACE                   4
__LCD_LINES                       2
__LCD_RSPIN                       7
__LCD_RSPORT                      PORTD
__LCD_TYPE                        0
__XTAL                            4


MEMORY USAGE MAP ('X' = USED,  '-' = UNUSED)

0000 : XXXX----XXXXXXXX XXXXXXXXXXXXXXXX XXXXXXXXXXXXXXXX XXXXXXXXXXXXXXXX
0040 : XXXXXXXXXXXXXXXX XXXXXXXXXXXXXXXX XXXXXXXXXXXXXXXX XXXXXXXXXXXXXXXX
0080 : XXXXXXXXXXXXXXXX XXXXXXXXXXXXXXXX XXXXXXXXXXXXXXXX XXXXXXXXXXXXXXXX
00C0 : XXXXXXXXXXXXXXXX XXXXXXXXXXXXXXXX XXXXXXXXXXXXXXXX XXXXXXXXXXXXXXXX
0100 : XXXXXXXXXXXXXXXX XXXXXXXXXXXXXXXX XXXXXXXXXXXXXXXX XXXXXXXXXXXXXXXX
0140 : XXXXXXXXXXXXXXXX XXXXXXXXXXXXXXXX XXXXXXXXXXXXXXXX XXXXXXXXXXXXXXXX
0180 : XXXXXXXXXXXXXXXX XXXXXXXXXXXXXXXX XXXXXXXXXXXXXXXX XXXXXXXXXXXXXXXX
01C0 : XXXXXXXXXXXXXXXX XXXXXXXXXXXXXXXX XXXXXXXXXXXXXXXX XXXXXXXXXXXXXXXX
0200 : XXXXXXXXXXXXXXXX XXXXXXXXXXXXXXXX XXXXXXXXXXXXXXXX XXXXXXXXXXXXXXXX
0240 : XXXXXXXXXXXXXXXX XXXXXXXXXXXXXXXX XXXXXXXXXXXXXXXX XXXXXXXXXXXXXXXX
0280 : XXXXXXXXXXXXXXXX XXXXXXXXXXXXXXXX XXXXXXXXXXXXXXXX XXXXXXXXXXXXXXXX
02C0 : XXXXXXXXXXXXXXXX XXXXXXXXXXXXXXXX XXXXXXXXXXXXXXXX XXXXXXXXXXXXXXXX
0300 : XXXXXXXXXXXXXXXX XXXXXXXXXXXXXXXX XXXXXXXXXXXXXXXX XXXXXXXXXXXXXXXX
0340 : XXXXXXXXXXXXXXXX XXXXXXXXXXXXXXXX XXXXXXXXXXXXXXXX XXXXXXXXXXXXXXXX
0380 : XXXXXXXXXXXXXXXX XXXXXXXXXXXXXXXX XXXXXXXXXXXXXXXX XXXXXXXXXXXXXXXX
03C0 : XXXXXXXXXXXXXXXX XXXXXXXXXXXXXXXX XXXXXXXXXXXXXXXX XXXXXXXXXXXXXXXX
0400 : XXXXXXXXXXXXXXXX XXXXXXXXXXXXXXXX XXXXXXXXXXXXXXXX XXXXXXXXXXXXXXXX
0440 : XX-------------- ---------------- ---------------- ----------------
9C40 : XXXXXXXXXX------ ---------------- ---------------- ----------------
0000 : -XXX-XX-XXXXXX-- ---------------- ---------------- ----------------

ALL OTHER MEMORY BLOCKS UNUSED.

PROGRAM MEMORY BYTES USED:  1107
PROGRAM MEMORY BYTES FREE: 48045


ERRORS   :     0
WARNINGS :     0 REPORTED,   371 SUPPRESSED
MESSAGES :     1 REPORTED,     1 SUPPRESSED


