MPASM  5.20                               A.S   7-23-2009  6:06:22         PAGE  1


LOC  OBJECT CODE     LINE SOURCE TEXT
  VALUE


                      00002         LIST
                      00003 ;{
                      00004 ;FILE F1 = C:\RFID FILES HOME\V4 RFID 2ND GENERATION\V4.0 RFID 2ND GENERATION.BAS
                      00005 ;FILE F2 = C:\RFID FILES HOME\V4 RFID 2ND GENERATION\V4.0 RFID 2ND GENERATION.PRP
                      00006 ;FILE F3 = C:\RFID FILES HOME\V4 RFID 2ND GENERATION\V4.0 RFID 2ND GENERATION_FWD.PBP
                      00007 ;FILE F4 = C:\RFID FILES HOME\V4 RFID 2ND GENERATION\V4.0 RFID 2ND GENERATION_LIB.PBP
                      00008 ;FILE F5 = C:\RFID FILES HOME\V4 RFID 2ND GENERATION\INC\INITIALIZE.INC
                      00009 ;FILE F6 = C:\RFID FILES HOME\V4 RFID 2ND GENERATION\INC\READ TAG.INC
                      00010 ;FILE F7 = C:\RFID FILES HOME\V4 RFID 2ND GENERATION\INC\READ SD.INC
                      00011 ;FILE F8 = C:\RFID FILES HOME\V4 RFID 2ND GENERATION\INC\WRITE SD.INC
                      00012 ;FILE F9 = C:\RFID FILES HOME\V4 RFID 2ND GENERATION\INC\INIT SD.INC
                      00013 ;FILE F10 = C:\RFID FILES HOME\V4 RFID 2ND GENERATION\INC\CHECK TAG.INC
                      00014 ;FILE F11 = C:\RFID FILES HOME\V4 RFID 2ND GENERATION\INC\WRITE_U_H.INC
                      00015 ;FILE F12 = C:\RFID FILES HOME\V4 RFID 2ND GENERATION\INC\WRITE_M_H.INC
                      00016 ;FILE F13 = C:\RFID FILES HOME\V4 RFID 2ND GENERATION\INC\WRITE_M_SD.INC
                      00017 ;FILE F14 = C:\RFID FILES HOME\V4 RFID 2ND GENERATION\INC\WRITE_USERS_SD.INC
                      00018 ;FILE F15 = C:\RFID FILES HOME\V4 RFID 2ND GENERATION\INC\READ_MOD.INC
                      00019 ;FILE F16 = C:\RFID FILES HOME\V4 RFID 2ND GENERATION\INC\GOSLEEP.INC
                      00020 ;}
                      00021 ;[Variable Listing]
                      00022 ;SD_BYTER,0032,DT_BYTE,1
                      00023 ;SD_IDX,0033,DT_BYTE,1
                      00024 ;SD_SECTOR_NUM,0034,DT_DWORD,4
                      00025 ;SD_ADDRESS,0038,DT_DWORD,4
                      00026 ;SD_SEEK_RESPONSE_IDX,003C,DT_WORD,2
                      00027 ;SD_SEEK_RESPONSE_REQD,003E,DT_BYTE,1
                      00028 ;SD_SEEK_RESPONSE_RETURN,003F,DT_BYTE,1
                      00029 ;SD_RETURN,0040,DT_BYTE,1
                      00030 ;SD_BUFFER0,0041,DT_BYTE,256
                      00031 ;SD_BUFFER1,0141,DT_BYTE,256
                      00032 ;SD_BYTE0,0241,DT_BYTE,1
                      00033 ;SD_BYTE1,0242,DT_BYTE,1
                      00034 ;SD_BYTE2,0243,DT_BYTE,1
                      00035 ;SD_BYTE3,0244,DT_BYTE,1
                      00036 ;SD_BYTE4,0245,DT_BYTE,1
                      00037 ;SD_BYTE5,0246,DT_BYTE,1
                      00038 ;SD_BUFFER_IDX,0247,DT_WORD,2
                      00039 ;SD_BYTE_RW,0249,DT_BYTE,1
                      00040 ;SD_RW_OPTION,024A,DT_BYTE,1
                      00041 ;SD_EXTENDED_RETURN,024B,DT_BYTE,1
                      00042 ;SD_EXTENDED_RETURN_ROOT_DIR,024C,DT_BYTE,1
                      00043 ;SD_DATA_IO,024D,DT_BYTE,1
                      00044 ;SD_BUFFER_POS,024E,DT_WORD,2
                      00045 ;SD_ROOT_DIR_FILE_POS,0250,DT_BYTE,1
                      00046 ;SD_SEC_NUM,0251,DT_DWORD,4
                      00047 ;SD_SECS_PER_CLUSTER,0255,DT_BYTE,1
                      00048 ;SD_RESERVED_SECS,0256,DT_WORD,2
                      00049 ;SD_SECS_PER_FAT,0258,DT_WORD,2
                      00050 ;SD_NUM_OF_FATS,025A,DT_BYTE,1
                      00051 ;SD_NUM_OF_SECS,025B,DT_DWORD,4
                      00052 ;SD_BYTES_PER_SEC,025F,DT_WORD,2
                      00053 ;SD_NUM_OF_ROOT_ENTRIES,0261,DT_WORD,2
MPASM  5.20                               A.S   7-23-2009  6:06:22         PAGE  2


LOC  OBJECT CODE     LINE SOURCE TEXT
  VALUE

                      00054 ;SD_SECS_IN_ROOT,0263,DT_WORD,2
                      00055 ;SD_BOOT_RECORD,0265,DT_WORD,2
                      00056 ;SD_FAT1,0267,DT_DWORD,4
                      00057 ;SD_FAT2,026B,DT_DWORD,4
                      00058 ;SD_ROOT_DIR,026F,DT_DWORD,4
                      00059 ;SD_DATA_AREA,0273,DT_DWORD,4
                      00060 ;SD_FAT_ENTRY,0277,DT_WORD,2
                      00061 ;SD_FAT_SEC,0279,DT_DWORD,4
                      00062 ;SD_FAT_BUFFER_POS,027D,DT_WORD,2
                      00063 ;SD_FAT_SEC_PREV,027F,DT_DWORD,4
                      00064 ;SD_FAT_BUFFER_POS_PREV,0283,DT_WORD,2
                      00065 ;SD_ROOT_DIR_SEC,0285,DT_DWORD,4
                      00066 ;SD_ROOT_DIR_POS,0289,DT_WORD,2
                      00067 ;SD_DATA_SEC,028B,DT_DWORD,4
                      00068 ;SD_DATA_BUFFER_POS,028F,DT_WORD,2
                      00069 ;SD_FILE_NAME,0291,DT_STRING,9
                      00070 ;SD_FILE_EXT,029A,DT_STRING,4
                      00071 ;SD_ROOT_DIR_FILE,029E,DT_BYTE,32
                      00072 ;SD_WRITE_SEC_NUM,02BE,DT_DWORD,4
                      00073 ;SD_WRITE_BUFFER_POS,02C2,DT_WORD,2
                      00074 ;SD_NULL_F,02C4,DT_BYTE,1
                      00075 ;SD_CLUSTER_NUM,02C5,DT_WORD,2
                      00076 ;SD_CLUSTER_NUM_PREV,02C7,DT_WORD,2
                      00077 ;SD_LAST_CLUSTER,02C9,DT_WORD,2
                      00078 ;SD_SEC_IN_CLUSTER,02CB,DT_BYTE,1
                      00079 ;SD_FILE_SIZE,02CC,DT_DWORD,4
                      00080 ;SD_IO_BYTE,02D0,DT_BYTE,1
                      00081 ;SD_TEMP_BYTE,02D1,DT_BYTE,1
                      00082 ;SD_TEMP,02D2,DT_WORD,2
                      00083 ;SD_TEMP_DWORD,02D4,DT_DWORD,4
                      00084 ;SD_CLUSTER_SEQ_NUM,02D8,DT_WORD,2
                      00085 ;SD_CLUSTER_SEQ_IDX,02DA,DT_WORD,2
                      00086 ;SD_CLUSTER_SEQ_NUM_PREV,02DC,DT_WORD,2
                      00087 ;SD_CLUSTER_SEQ_IDX_PREV,02DE,DT_WORD,2
                      00088 ;SD_FIND_ROOT_DIR_ENTRY_F,02E0,DT_BYTE,1
                      00089 ;SD_BYTES_READ,02E1,DT_DWORD,4
                      00090 ;SD_FILE_NUM,02E6,DT_WORD,2
                      00091 ;SD_DIR_DIRECTION,02E8,DT_BYTE,1
                      00092 ;SD_EXTENDED_RETURN_INT,02E9,DT_BYTE,1
                      00093 ;SD_FILE_SIZE_LEFT,02EA,DT_DWORD,4
                      00094 ;SD_TIMEOUT,02EE,DT_BYTE,1
                      00095 ;SD_DAY,02EF,DT_BYTE,1
                      00096 ;SD_MONTH,02F0,DT_BYTE,1
                      00097 ;SD_YEAR,02F1,DT_BYTE,1
                      00098 ;SD_MSECONDS,02F2,DT_BYTE,1
                      00099 ;SD_SECONDS,02F3,DT_BYTE,1
                      00100 ;SD_MINUTES,02F4,DT_BYTE,1
                      00101 ;SD_HOURS,02F5,DT_BYTE,1
                      00102 ;SD_IS_DIRTY,02F6,DT_BYTE,1
                      00103 ;SD_SSPSTAT,02F7,DT_BYTE,1
                      00104 ;SD_RETURN_F,02F8,DT_BYTE,1
                      00105 ;SD_IO_STRING_LENGTH,02F9,DT_BYTE,1
                      00106 ;SD_IO_STRING_POS,02FA,DT_BYTE,1
MPASM  5.20                               A.S   7-23-2009  6:06:22         PAGE  3


LOC  OBJECT CODE     LINE SOURCE TEXT
  VALUE

                      00107 ;SD_IO_STRING,02FB,DT_STRING,201
                      00108 ;USER_POINTER,03C4,DT_WORD,2
                      00109 ;TAGIN,03C6,DT_BYTE,10
                      00110 ;USERIN,03D0,DT_BYTE,4
                      00111 ;UTAG,03D4,DT_BYTE,16
                      00112 ;ETX,03E4,DT_BYTE,1
                      00113 ;CHECKSUM,03E5,DT_BYTE,1
                      00114 ;MODNUM,03E6,DT_BYTE,7
                      00115 ;RESPONSE,03ED,DT_BYTE,1
                      00116 ;SD_IO,03EE,DT_BYTE,1
                      00117 ;MYCOUNT,03EF,DT_BYTE,1
                      00118 ;INDEX,03F0,DT_BYTE,1
                      00119 ;INDEX2,03F1,DT_BYTE,1
                      00120 ;TV1,03F2,DT_BYTE,1
                      00121 ;WORD_VAR,03F3,DT_WORD,2
                      00122 ;MYNUM,03F5,DT_STRING,4
                      00123 ;SD_CS,0F82.2,DT_BIT
                      00124 ;SD_DI,0F82.5,DT_BIT
                      00125 ;SD_CLK,0F82.3,DT_BIT
                      00126 ;SD_DO,0F82.4,DT_BIT
                      00127 ;SD_EOF,02E5.0,DT_BIT
                      00128 ;SD_RW_PTR,02E1,DT_DWORD,4
                      00129 ;SD_FREE_CLUSTER_NUM,02D8,DT_WORD,2
                      00130 ;SD_FREE_SPACE_KB,02E1,DT_DWORD,4
                      00131 ;SD_DISK_SIZE_KB,02E1,DT_DWORD,4
                      00132 ;SD_SPI_BF,0FC7.0,DT_BIT
                      00133 ;SD_SPI_IF,0F9E.3,DT_BIT
                      00134 ;SD_DETECT,0F80.1,DT_BIT
                      00135 ;RFIDENABLE,0F83.4,DT_BIT
                      00136 ;FLAG,02E5.1,DT_BIT
                      00137 ;[End Listing]
                      00138 ;[TOTAL VARS] 1017

                      00140 #DEFINE CONFIG_REQ 1
MESSAGE[308]: WARNING LEVEL SUPERSEDED BY COMMAND LINE VALUE. (2)
                      00141  LIST  P = 18F4525, F = INHX32, W = 2, X = ON, R = DEC, MM = ON, N = 0, C = 255
  00000F80            00142 PORTA EQU 0X0F80
  00000F81            00143 PORTB EQU 0X0F81
  00000F82            00144 PORTC EQU 0X0F82
  00000F83            00145 PORTD EQU 0X0F83
  00000F84            00146 PORTE EQU 0X0F84
  00000F89            00147 LATA EQU 0X0F89
  00000F8A            00148 LATB EQU 0X0F8A
  00000F8B            00149 LATC EQU 0X0F8B
  00000F8C            00150 LATD EQU 0X0F8C
  00000F8D            00151 LATE EQU 0X0F8D
  00000F92            00152 DDRA EQU 0X0F92
  00000F92            00153 TRISA EQU 0X0F92
  00000F93            00154 DDRB EQU 0X0F93
  00000F93            00155 TRISB EQU 0X0F93
  00000F94            00156 DDRC EQU 0X0F94
  00000F94            00157 TRISC EQU 0X0F94
  00000F95            00158 DDRD EQU 0X0F95
  00000F95            00159 TRISD EQU 0X0F95
  00000F96            00160 DDRE EQU 0X0F96
  00000F96            00161 TRISE EQU 0X0F96
  00000F9B            00162 OSCTUNE EQU 0X0F9B
  00000F9D            00163 PIE1 EQU 0X0F9D
  00000F9E            00164 PIR1 EQU 0X0F9E
  00000F9F            00165 IPR1 EQU 0X0F9F
  00000FA0            00166 PIE2 EQU 0X0FA0
  00000FA1            00167 PIR2 EQU 0X0FA1
  00000FA2            00168 IPR2 EQU 0X0FA2
  00000FA6            00169 EECON1 EQU 0X0FA6
  00000FA7            00170 EECON2 EQU 0X0FA7
  00000FA8            00171 EEDATL EQU 0X0FA8
  00000FA8            00172 EEDATA EQU 0X0FA8
  00000FA9            00173 EEADR EQU 0X0FA9
  00000FAA            00174 EEADRH EQU 0X0FAA
  00000FAB            00175 RCSTA EQU 0X0FAB
  00000FAC            00176 TXSTA EQU 0X0FAC
  00000FAD            00177 TXREG EQU 0X0FAD
  00000FAE            00178 RCREG EQU 0X0FAE
  00000FAF            00179 SPBRG EQU 0X0FAF
  00000FB0            00180 SPBRGH EQU 0X0FB0
  00000FB1            00181 T3CON EQU 0X0FB1
  00000FB2            00182 TMR3L EQU 0X0FB2
  00000FB3            00183 TMR3LH EQU 0X0FB3
  00000FB3            00184 TMR3H EQU 0X0FB3
  00000FB4            00185 CMCON EQU 0X0FB4
  00000FB5            00186 CVRCON EQU 0X0FB5
  00000FB6            00187 ECCP1AS EQU 0X0FB6
  00000FB6            00188 ECCPAS EQU 0X0FB6
  00000FB7            00189 PWM1CON EQU 0X0FB7
  00000FB8            00190 BAUDCON EQU 0X0FB8
  00000FB8            00191 BAUDCTL EQU 0X0FB8
  00000FBA            00192 CCP2CON EQU 0X0FBA
  00000FBB            00193 CCPR2 EQU 0X0FBB
  00000FBB            00194 CCPR2L EQU 0X0FBB
  00000FBC            00195 CCPR2LH EQU 0X0FBC
  00000FBC            00196 CCPR2H EQU 0X0FBC
  00000FBD            00197 CCP1CON EQU 0X0FBD
  00000FBE            00198 CCPR1 EQU 0X0FBE
  00000FBE            00199 CCPR1L EQU 0X0FBE
  00000FBF            00200 CCPR1LH EQU 0X0FBF
  00000FBF            00201 CCPR1H EQU 0X0FBF
  00000FC0            00202 ADCON2 EQU 0X0FC0
  00000FC1            00203 ADCON1 EQU 0X0FC1
  00000FC2            00204 ADCON0 EQU 0X0FC2
  00000FC3            00205 ADRES EQU 0X0FC3
  00000FC3            00206 ADRESL EQU 0X0FC3
  00000FC4            00207 ADRESLH EQU 0X0FC4
  00000FC4            00208 ADRESH EQU 0X0FC4
  00000FC5            00209 SSPCON2 EQU 0X0FC5
  00000FC6            00210 SSPCON1 EQU 0X0FC6
  00000FC7            00211 SSPSTAT EQU 0X0FC7
  00000FC8            00212 SSPADD EQU 0X0FC8
  00000FC9            00213 SSPBUF EQU 0X0FC9
  00000FCA            00214 T2CON EQU 0X0FCA
  00000FCB            00215 PR2 EQU 0X0FCB
  00000FCC            00216 TMR2 EQU 0X0FCC
  00000FCD            00217 T1CON EQU 0X0FCD
  00000FCE            00218 TMR1L EQU 0X0FCE
  00000FCF            00219 TMR1LH EQU 0X0FCF
  00000FCF            00220 TMR1H EQU 0X0FCF
  00000FD0            00221 RCON EQU 0X0FD0
  00000FD1            00222 WDTCON EQU 0X0FD1
  00000FD2            00223 HLVDCON EQU 0X0FD2
  00000FD2            00224 LVDCON EQU 0X0FD2
  00000FD3            00225 OSCCON EQU 0X0FD3
  00000FD4            00226 DEBUG EQU 0X0FD4
  00000FD5            00227 T0CON EQU 0X0FD5
  00000FD6            00228 TMR0L EQU 0X0FD6
  00000FD7            00229 TMR0LH EQU 0X0FD7
  00000FD7            00230 TMR0H EQU 0X0FD7
  00000FD8            00231 STATUS EQU 0X0FD8
  00000FD9            00232 FSR2L EQU 0X0FD9
  00000FDA            00233 FSR2LH EQU 0X0FDA
  00000FDA            00234 FSR2H EQU 0X0FDA
  00000FDB            00235 PLUSW2 EQU 0X0FDB
  00000FDC            00236 PREINC2 EQU 0X0FDC
  00000FDD            00237 POSTDEC2 EQU 0X0FDD
  00000FDE            00238 POSTINC2 EQU 0X0FDE
  00000FDF            00239 INDF2 EQU 0X0FDF
  00000FE0            00240 BSR EQU 0X0FE0
  00000FE1            00241 FSR1L EQU 0X0FE1
  00000FE2            00242 FSR1LH EQU 0X0FE2
  00000FE2            00243 FSR1H EQU 0X0FE2
  00000FE3            00244 PLUSW1 EQU 0X0FE3
  00000FE4            00245 PREINC1 EQU 0X0FE4
  00000FE5            00246 POSTDEC1 EQU 0X0FE5
  00000FE6            00247 POSTINC1 EQU 0X0FE6
  00000FE7            00248 INDF1 EQU 0X0FE7
  00000FE8            00249 WREG EQU 0X0FE8
  00000FE9            00250 FSR0L EQU 0X0FE9
  00000FEA            00251 FSR0LH EQU 0X0FEA
  00000FEA            00252 FSR0H EQU 0X0FEA
  00000FEB            00253 PLUSW0 EQU 0X0FEB
  00000FEC            00254 PREINC0 EQU 0X0FEC
  00000FED            00255 POSTDEC0 EQU 0X0FED
  00000FEE            00256 POSTINC0 EQU 0X0FEE
  00000FEF            00257 INDF0 EQU 0X0FEF
  00000FF0            00258 INTCON3 EQU 0X0FF0
  00000FF1            00259 INTCON2 EQU 0X0FF1
  00000FF2            00260 INTCON EQU 0X0FF2
  00000FF3            00261 PRODL EQU 0X0FF3
  00000FF4            00262 PRODLH EQU 0X0FF4
  00000FF4            00263 PRODH EQU 0X0FF4
  00000FF5            00264 TABLAT EQU 0X0FF5
  00000FF6            00265 TBLPTRL EQU 0X0FF6
  00000FF7            00266 TBLPTRLH EQU 0X0FF7
  00000FF7            00267 TBLPTRH EQU 0X0FF7
  00000FF8            00268 TBLPTRU EQU 0X0FF8
  00000FF8            00269 TBLPTRLHH EQU 0X0FF8
  00000FF9            00270 PC EQU 0X0FF9
  00000FF9            00271 PCL EQU 0X0FF9
  00000FFA            00272 PCLATH EQU 0X0FFA
  00000FFB            00273 PCLATU EQU 0X0FFB
  00000FFC            00274 STKPTR EQU 0X0FFC
  00000FFD            00275 TOS EQU 0X0FFD
  00000FFD            00276 TOSL EQU 0X0FFD
  00000FFE            00277 TOSLH EQU 0X0FFE
  00000FFE            00278 TOSH EQU 0X0FFE
  00000FFF            00279 TOSU EQU 0X0FFF
  00000F94            00280 _I2C_SCL_PORT = TRISC
  00000003            00281 _I2C_SCL_PIN = 3
  00000F94            00282 _I2C_SDA_PORT = TRISC
  00000004            00283 _I2C_SDA_PIN = 4
  00000000            00284 RA0=0
  00000001            00285 RA1=1
  00000002            00286 RA2=2
  00000003            00287 RA3=3
  00000004            00288 RA4=4
  00000005            00289 RA5=5
  00000006            00290 RA6=6
  00000007            00291 RA7=7
  00000004            00292 T0CKI=4
  00000005            00293 AN4=5
  00000005            00294 SS=5
  00000005            00295 NOT_SS=5
  00000005            00296 LVDIN=5
  00000005            00297 HLVDIN=5
  00000000            00298 RB0=0
  00000001            00299 RB1=1
  00000002            00300 RB2=2
  00000003            00301 RB3=3
  00000004            00302 RB4=4
  00000005            00303 RB5=5
  00000006            00304 RB6=6
  00000007            00305 RB7=7
  00000000            00306 INT0=0
  00000001            00307 INT1=1
  00000002            00308 INT2=2
  00000003            00309 CCP2_PORTB=3
  00000004            00310 KBI0=4
  00000005            00311 KBI1=5
  00000006            00312 KBI2=6
  00000007            00313 KBI3=7
  00000000            00314 AN12=0
  00000001            00315 AN10=1
  00000002            00316 AN8=2
  00000003            00317 AN9=3
  00000004            00318 AN11=4
  00000005            00319 PGM=5
  00000006            00320 PGC=6
  00000007            00321 PGD=7
  00000000            00322 RC0=0
  00000001            00323 RC1=1
  00000002            00324 RC2=2
  00000003            00325 RC3=3
  00000004            00326 RC4=4
  00000005            00327 RC5=5
  00000006            00328 RC6=6
  00000007            00329 RC7=7
  00000000            00330 T1OSO=0
  00000001            00331 T1OSI=1
  00000002            00332 CCP1=2
  00000003            00333 SCK=3
  00000004            00334 SDI=4
  00000005            00335 SDO=5
  00000006            00336 TX=6
  00000007            00337 RX=7
  00000000            00338 T13CKI=0
  00000001            00339 CCP2_PORTC=1
  00000003            00340 SCL=3
  00000004            00341 SDA=4
  00000006            00342 CK=6
  00000000            00343 T1CKI=0
  00000000            00344 RD0=0
  00000001            00345 RD1=1
  00000002            00346 RD2=2
  00000003            00347 RD3=3
  00000004            00348 RD4=4
  00000005            00349 RD5=5
  00000006            00350 RD6=6
  00000007            00351 RD7=7
  00000000            00352 PSP0=0
  00000001            00353 PSP1=1
  00000002            00354 PSP2=2
  00000003            00355 PSP3=3
  00000004            00356 PSP4=4
  00000005            00357 PSP5=5
  00000006            00358 PSP6=6
  00000007            00359 PSP7=7
  00000005            00360 P1B=5
  00000006            00361 P1C=6
  00000007            00362 P1D=7
  00000000            00363 RE0=0
  00000001            00364 RE1=1
  00000002            00365 RE2=2
  00000003            00366 RE3=3
  00000000            00367 RD=0
  00000000            00368 PP_RD=0
  00000001            00369 WR=1
  00000001            00370 PP_WR=1
  00000002            00371 CS=2
  00000003            00372 MCLR=3
  00000000            00373 NOT_RD=0
  00000001            00374 NOT_WR=1
  00000002            00375 NOT_CS=2
  00000003            00376 NOT_MCLR=3
  00000000            00377 AN5=0
  00000001            00378 AN6=1
  00000002            00379 AN7=2
  00000003            00380 VPP=3
  00000000            00381 LATA0=0
  00000001            00382 LATA1=1
  00000002            00383 LATA2=2
  00000003            00384 LATA3=3
  00000004            00385 LATA4=4
  00000005            00386 LATA5=5
  00000006            00387 LATA6=6
  00000007            00388 LATA7=7
  00000000            00389 LATB0=0
  00000001            00390 LATB1=1
  00000002            00391 LATB2=2
  00000003            00392 LATB3=3
  00000004            00393 LATB4=4
  00000005            00394 LATB5=5
  00000006            00395 LATB6=6
  00000007            00396 LATB7=7
  00000000            00397 LATC0=0
  00000001            00398 LATC1=1
  00000002            00399 LATC2=2
  00000003            00400 LATC3=3
  00000004            00401 LATC4=4
  00000005            00402 LATC5=5
  00000006            00403 LATC6=6
  00000007            00404 LATC7=7
  00000000            00405 LATD0=0
  00000001            00406 LATD1=1
  00000002            00407 LATD2=2
  00000003            00408 LATD3=3
  00000004            00409 LATD4=4
  00000005            00410 LATD5=5
  00000006            00411 LATD6=6
  00000007            00412 LATD7=7
  00000000            00413 LATE0=0
  00000001            00414 LATE1=1
  00000002            00415 LATE2=2
  00000000            00416 RA0=0
  00000001            00417 RA1=1
  00000002            00418 RA2=2
  00000003            00419 RA3=3
  00000004            00420 RA4=4
  00000005            00421 RA5=5
  00000006            00422 RA6=6
  00000007            00423 RA7=7
  00000000            00424 TRISA0=0
  00000001            00425 TRISA1=1
  00000002            00426 TRISA2=2
  00000003            00427 TRISA3=3
  00000004            00428 TRISA4=4
  00000005            00429 TRISA5=5
  00000006            00430 TRISA6=6
  00000007            00431 TRISA7=7
  00000000            00432 RB0=0
  00000001            00433 RB1=1
  00000002            00434 RB2=2
  00000003            00435 RB3=3
  00000004            00436 RB4=4
  00000005            00437 RB5=5
  00000006            00438 RB6=6
  00000007            00439 RB7=7
  00000000            00440 TRISB0=0
  00000001            00441 TRISB1=1
  00000002            00442 TRISB2=2
  00000003            00443 TRISB3=3
  00000004            00444 TRISB4=4
  00000005            00445 TRISB5=5
  00000006            00446 TRISB6=6
  00000007            00447 TRISB7=7
  00000000            00448 RC0=0
  00000001            00449 RC1=1
  00000002            00450 RC2=2
  00000003            00451 RC3=3
  00000004            00452 RC4=4
  00000005            00453 RC5=5
  00000006            00454 RC6=6
  00000007            00455 RC7=7
  00000000            00456 TRISC0=0
  00000001            00457 TRISC1=1
  00000002            00458 TRISC2=2
  00000003            00459 TRISC3=3
  00000004            00460 TRISC4=4
  00000005            00461 TRISC5=5
  00000006            00462 TRISC6=6
  00000007            00463 TRISC7=7
  00000000            00464 RD0=0
  00000001            00465 RD1=1
  00000002            00466 RD2=2
  00000003            00467 RD3=3
  00000004            00468 RD4=4
  00000005            00469 RD5=5
  00000006            00470 RD6=6
  00000007            00471 RD7=7
  00000000            00472 TRISD0=0
  00000001            00473 TRISD1=1
  00000002            00474 TRISD2=2
  00000003            00475 TRISD3=3
  00000004            00476 TRISD4=4
  00000005            00477 TRISD5=5
  00000006            00478 TRISD6=6
  00000007            00479 TRISD7=7
  00000000            00480 RE0=0
  00000001            00481 RE1=1
  00000002            00482 RE2=2
  00000003            00483 RE3=3
  00000000            00484 TRISE0=0
  00000001            00485 TRISE1=1
  00000002            00486 TRISE2=2
  00000004            00487 TRISE4=4
  00000005            00488 TRISE5=5
  00000006            00489 TRISE6=6
  00000007            00490 TRISE7=7
  00000004            00491 PSPMODE=4
  00000005            00492 IBOV=5
  00000006            00493 OBF=6
  00000007            00494 IBF=7
  00000000            00495 TUN0=0
  00000001            00496 TUN1=1
  00000002            00497 TUN2=2
  00000003            00498 TUN3=3
  00000004            00499 TUN4=4
  00000006            00500 PLLEN=6
  00000007            00501 INTSRC=7
  00000000            00502 TMR1IE=0
  00000001            00503 TMR2IE=1
  00000002            00504 CCP1IE=2
  00000003            00505 SSPIE=3
  00000004            00506 TXIE=4
  00000005            00507 RCIE=5
  00000006            00508 ADIE=6
  00000007            00509 PSPIE=7
  00000000            00510 TMR1IF=0
  00000001            00511 TMR2IF=1
  00000002            00512 CCP1IF=2
  00000003            00513 SSPIF=3
  00000004            00514 TXIF=4
  00000004            00515 PP_TXIF=4
  00000005            00516 RCIF=5
  00000005            00517 PP_RCIF=5
  00000006            00518 ADIF=6
  00000007            00519 PSPIF=7
  00000000            00520 TMR1IP=0
  00000001            00521 TMR2IP=1
  00000002            00522 CCP1IP=2
  00000003            00523 SSPIP=3
  00000004            00524 TXIP=4
  00000005            00525 RCIP=5
  00000006            00526 ADIP=6
  00000007            00527 PSPIP=7
  00000000            00528 CCP2IE=0
  00000001            00529 TMR3IE=1
  00000002            00530 LVDIE=2
  00000003            00531 BCLIE=3
  00000004            00532 EEIE=4
  00000006            00533 CMIE=6
  00000007            00534 OSCFIE=7
  00000002            00535 HLVDIE=2
  00000000            00536 CCP2IF=0
  00000001            00537 TMR3IF=1
  00000002            00538 LVDIF=2
  00000003            00539 BCLIF=3
  00000004            00540 EEIF=4
  00000006            00541 CMIF=6
  00000007            00542 OSCFIF=7
  00000002            00543 HLVDIF=2
  00000000            00544 CCP2IP=0
  00000001            00545 TMR3IP=1
  00000002            00546 LVDIP=2
  00000003            00547 BCLIP=3
  00000004            00548 EEIP=4
  00000006            00549 CMIP=6
  00000007            00550 OSCFIP=7
  00000002            00551 HLVDIP=2
  00000000            00552 RD=0
  00000000            00553 PP_RD=0
  00000001            00554 WR=1
  00000001            00555 PP_WR=1
  00000002            00556 WREN=2
  00000002            00557 PP_WREN=2
  00000003            00558 WRERR=3
  00000004            00559 FREE=4
  00000006            00560 CFGS=6
  00000007            00561 EEPGD=7
  00000007            00562 PP_EEPGD=7
  00000000            00563 RX9D=0
  00000001            00564 OERR=1
  00000001            00565 PP_OERR=1
  00000002            00566 FERR=2
  00000003            00567 ADEN=3
  00000004            00568 CREN=4
  00000004            00569 PP_CREN=4
  00000005            00570 SREN=5
  00000006            00571 RX9=6
  00000007            00572 SPEN=7
  00000003            00573 ADDEN=3
  00000000            00574 TX9D=0
  00000001            00575 TRMT=1
  00000002            00576 BRGH=2
  00000003            00577 SENDB=3
  00000004            00578 SYNC=4
  00000005            00579 TXEN=5
  00000006            00580 TX9=6
  00000007            00581 CSRC=7
  00000000            00582 TMR3ON=0
  00000001            00583 TMR3CS=1
  00000002            00584 T3SYNC=2
  00000003            00585 T3CCP1=3
  00000004            00586 T3CKPS0=4
  00000005            00587 T3CKPS1=5
  00000006            00588 T3CCP2=6
  00000007            00589 RD16=7
  00000002            00590 NOT_T3SYNC=2
  00000000            00591 CM0=0
  00000001            00592 CM1=1
  00000002            00593 CM2=2
  00000003            00594 CIS=3
  00000004            00595 C1INV=4
  00000005            00596 C2INV=5
  00000006            00597 C1OUT=6
  00000007            00598 C2OUT=7
  00000000            00599 CVR0=0
  00000001            00600 CVR1=1
  00000002            00601 CVR2=2
  00000003            00602 CVR3=3
  00000004            00603 CVRSS=4
  00000005            00604 CVRR=5
  00000006            00605 CVROE=6
  00000007            00606 CVREN=7
  00000000            00607 PSSBD0=0
  00000001            00608 PSSBD1=1
  00000002            00609 PSSAC0=2
  00000003            00610 PSSAC1=3
  00000004            00611 ECCPAS0=4
  00000005            00612 ECCPAS1=5
  00000006            00613 ECCPAS2=6
  00000007            00614 ECCPASE=7
  00000000            00615 PSSBD0=0
  00000001            00616 PSSBD1=1
  00000002            00617 PSSAC0=2
  00000003            00618 PSSAC1=3
  00000004            00619 ECCPAS0=4
  00000005            00620 ECCPAS1=5
  00000006            00621 ECCPAS2=6
  00000007            00622 ECCPASE=7
  00000000            00623 PDC0=0
  00000001            00624 PDC1=1
  00000002            00625 PDC2=2
  00000003            00626 PDC3=3
  00000004            00627 PDC4=4
  00000005            00628 PDC5=5
  00000006            00629 PDC6=6
  00000007            00630 PRSEN=7
  00000000            00631 ABDEN=0
  00000001            00632 WUE=1
  00000003            00633 BRG16=3
  00000004            00634 SCKP=4
  00000006            00635 RCIDL=6
  00000007            00636 ABDOVF=7
  00000006            00637 RCMT=6
  00000000            00638 ABDEN=0
  00000001            00639 WUE=1
  00000003            00640 BRG16=3
  00000004            00641 SCKP=4
  00000006            00642 RCIDL=6
  00000007            00643 ABDOVF=7
  00000006            00644 RCMT=6
  00000000            00645 CCP2M0=0
  00000001            00646 CCP2M1=1
  00000002            00647 CCP2M2=2
  00000003            00648 CCP2M3=3
  00000004            00649 CCP2Y=4
  00000005            00650 CCP2X=5
  00000004            00651 DC2B0=4
  00000005            00652 DC2B1=5
  00000000            00653 CCP1M0=0
  00000001            00654 CCP1M1=1
  00000002            00655 CCP1M2=2
  00000003            00656 CCP1M3=3
  00000004            00657 CCP1Y=4
  00000005            00658 CCP1X=5
  00000004            00659 DC1B0=4
  00000005            00660 DC1B1=5
  00000006            00661 P1M0=6
  00000007            00662 P1M1=7
  00000000            00663 ADCS0=0
  00000001            00664 ADCS1=1
  00000002            00665 ADCS2=2
  00000003            00666 ACQT0=3
  00000004            00667 ACQT1=4
  00000005            00668 ACQT2=5
  00000007            00669 ADFM=7
  00000000            00670 PCFG0=0
  00000001            00671 PCFG1=1
  00000002            00672 PCFG2=2
  00000003            00673 PCFG3=3
  00000004            00674 VCFG0=4
  00000005            00675 VCFG1=5
  00000000            00676 ADON=0
  00000000            00677 PP_ADON=0
  00000001            00678 GO=1
  00000002            00679 CHS0=2
  00000003            00680 CHS1=3
  00000004            00681 CHS2=4
  00000005            00682 CHS3=5
  00000001            00683 DONE=1
  00000001            00684 NOT_DONE=1
  00000001            00685 GO_DONE=1
  00000001            00686 PP_GO_DONE=1
  00000000            00687 SEN=0
  00000000            00688 PP_SEN=0
  00000001            00689 RSEN=1
  00000001            00690 PP_RSEN=1
  00000002            00691 PEN=2
  00000002            00692 PP_PEN=2
  00000003            00693 RCEN=3
  00000003            00694 PP_RCEN=3
  00000004            00695 ACKEN=4
  00000004            00696 PP_ACKEN=4
  00000005            00697 ACKDT=5
  00000006            00698 ACKSTAT=6
  00000007            00699 GCEN=7
  00000000            00700 SSPM0=0
  00000001            00701 SSPM1=1
  00000002            00702 SSPM2=2
  00000003            00703 SSPM3=3
  00000004            00704 CKP=4
  00000005            00705 SSPEN=5
  00000006            00706 SSPOV=6
  00000007            00707 WCOL=7
  00000000            00708 BF=0
  00000001            00709 UA=1
  00000002            00710 R=2
  00000003            00711 S=3
  00000004            00712 P=4
  00000005            00713 D=5
  00000006            00714 CKE=6
  00000007            00715 SMP=7
  00000002            00716 NOT_W=2
  00000005            00717 NOT_A=5
  00000002            00718 R_W=2
  00000002            00719 PP_R_W=2
  00000005            00720 D_A=5
  00000002            00721 NOT_WRITE=2
  00000005            00722 NOT_ADDRESS=5
  00000000            00723 T2CKPS0=0
  00000000            00724 PP_T2CKPS0=0
  00000001            00725 T2CKPS1=1
  00000001            00726 PP_T2CKPS1=1
  00000002            00727 TMR2ON=2
  00000002            00728 PP_TMR2ON=2
  00000003            00729 T2OUTPS0=3
  00000004            00730 T2OUTPS1=4
  00000005            00731 T2OUTPS2=5
  00000006            00732 T2OUTPS3=6
  00000003            00733 TOUTPS0=3
  00000004            00734 TOUTPS1=4
  00000005            00735 TOUTPS2=5
  00000006            00736 TOUTPS3=6
  00000000            00737 TMR1ON=0
  00000001            00738 TMR1CS=1
  00000002            00739 T1SYNC=2
  00000003            00740 T1OSCEN=3
  00000004            00741 T1CKPS0=4
  00000005            00742 T1CKPS1=5
  00000006            00743 T1RUN=6
  00000007            00744 RD16=7
  00000002            00745 NOT_T1SYNC=2
  00000000            00746 BOR=0
  00000001            00747 POR=1
  00000002            00748 PD=2
  00000003            00749 TO=3
  00000004            00750 RI=4
  00000006            00751 SBOREN=6
  00000007            00752 IPEN=7
  00000000            00753 NOT_BOR=0
  00000001            00754 NOT_POR=1
  00000002            00755 NOT_PD=2
  00000003            00756 NOT_TO=3
  00000004            00757 NOT_RI=4
  00000000            00758 SWDTEN=0
  00000000            00759 SWDTE=0
  00000000            00760 LVDL0=0
  00000001            00761 LVDL1=1
  00000002            00762 LVDL2=2
  00000003            00763 LVDL3=3
  00000004            00764 LVDEN=4
  00000005            00765 IRVST=5
  00000000            00766 LVV0=0
  00000001            00767 LVV1=1
  00000002            00768 LVV2=2
  00000003            00769 LVV3=3
  00000005            00770 BGST=5
  00000000            00771 HLVDL0=0
  00000001            00772 HLVDL1=1
  00000002            00773 HLVDL2=2
  00000003            00774 HLVDL3=3
  00000004            00775 HLVDEN=4
  00000007            00776 VDIRMAG=7
  00000005            00777 IVRST=5
  00000000            00778 SCS0=0
  00000001            00779 SCS1=1
  00000002            00780 IOFS=2
  00000003            00781 OSTS=3
  00000004            00782 IRCF0=4
  00000005            00783 IRCF1=5
  00000006            00784 IRCF2=6
  00000007            00785 IDLEN=7
  00000002            00786 FLTS=2
  00000000            00787 T0PS0=0
  00000001            00788 T0PS1=1
  00000002            00789 T0PS2=2
  00000003            00790 PSA=3
  00000004            00791 T0SE=4
  00000005            00792 T0CS=5
  00000006            00793 T016BIT=6
  00000007            00794 TMR0ON=7
  00000006            00795 T08BIT=6
  00000000            00796 C=0
  00000001            00797 DC=1
  00000002            00798 Z=2
  00000003            00799 OV=3
  00000004            00800 N=4
  00000000            00801 INT1F=0
  00000001            00802 INT2F=1
  00000003            00803 INT1E=3
  00000004            00804 INT2E=4
  00000006            00805 INT1P=6
  00000007            00806 INT2P=7
  00000000            00807 INT1IF=0
  00000001            00808 INT2IF=1
  00000003            00809 INT1IE=3
  00000004            00810 INT2IE=4
  00000006            00811 INT1IP=6
  00000007            00812 INT2IP=7
  00000000            00813 RBIP=0
  00000002            00814 TMR0IP=2
  00000004            00815 INTEDG2=4
  00000005            00816 INTEDG1=5
  00000006            00817 INTEDG0=6
  00000007            00818 RBPU=7
  00000007            00819 NOT_RBPU=7
  00000000            00820 RBIF=0
  00000001            00821 INT0F=1
  00000002            00822 TMR0IF=2
  00000003            00823 RBIE=3
  00000004            00824 INT0E=4
  00000005            00825 TMR0IE=5
  00000006            00826 PEIE=6
  00000007            00827 GIE=7
  00000001            00828 INT0IF=1
  00000002            00829 T0IF=2
  00000004            00830 INT0IE=4
  00000005            00831 T0IE=5
  00000006            00832 GIEL=6
  00000007            00833 GIEH=7
  00000000            00834 STKPTR0=0
  00000001            00835 STKPTR1=1
  00000002            00836 STKPTR2=2
  00000003            00837 STKPTR3=3
  00000004            00838 STKPTR4=4
  00000006            00839 STKUNF=6
  00000007            00840 STKOVF=7
  00000000            00841 SP0=0
  00000001            00842 SP1=1
  00000002            00843 SP2=2
  00000003            00844 SP3=3
  00000004            00845 SP4=4
  00000007            00846 STKFUL=7
  00000FFF            00847   __MAXRAM  0X0FFF
                      00848   __BADRAM  0X0F85-0X0F88
                      00849   __BADRAM  0X0F8E-0X0F91
                      00850   __BADRAM  0X0F97-0X0F9A
                      00851   __BADRAM  0X0F9C
                      00852   __BADRAM  0X0FA3-0X0FA5
                      00853   __BADRAM  0X0FB9
  00300001            00854 CONFIG1H EQU 0X300001
  00300002            00855 CONFIG2L EQU 0X300002
  00300003            00856 CONFIG2H EQU 0X300003
  00300005            00857 CONFIG3H EQU 0X300005
  00300006            00858 CONFIG4L EQU 0X300006
  00300008            00859 CONFIG5L EQU 0X300008
  00300009            00860 CONFIG5H EQU 0X300009
  0030000A            00861 CONFIG6L EQU 0X30000A
  0030000B            00862 CONFIG6H EQU 0X30000B
  0030000C            00863 CONFIG7L EQU 0X30000C
  0030000D            00864 CONFIG7H EQU 0X30000D
  000000F0            00865 OSC_LP_1 EQU 0XF0
  000000F1            00866 OSC_XT_1 EQU 0XF1
  000000F2            00867 OSC_HS_1 EQU 0XF2
  000000F3            00868 OSC_RC_1 EQU 0XF3
  000000F4            00869 OSC_EC_1 EQU 0XF4
  000000F5            00870 OSC_ECIO6_1 EQU 0XF5
  000000F6            00871 OSC_HSPLL_1 EQU 0XF6
  000000F7            00872 OSC_RCIO6_1 EQU 0XF7
  000000F8            00873 OSC_INTIO67_1 EQU 0XF8
  000000F9            00874 OSC_INTIO7_1 EQU 0XF9
  000000BF            00875 FCMEN_OFF_1 EQU 0XBF
  000000FF            00876 FCMEN_ON_1 EQU 0XFF
  0000007F            00877 IESO_OFF_1 EQU 0X7F
  000000FF            00878 IESO_ON_1 EQU 0XFF
  000000FE            00879 PWRT_ON_2 EQU 0XFE
  000000FF            00880 PWRT_OFF_2 EQU 0XFF
  000000F9            00881 BOREN_OFF_2 EQU 0XF9
  000000FB            00882 BOREN_ON_2 EQU 0XFB
  000000FD            00883 BOREN_NOSLP_2 EQU 0XFD
  000000FF            00884 BOREN_SBORDIS_2 EQU 0XFF
  000000E7            00885 BORV_0_2 EQU 0XE7
  000000EF            00886 BORV_1_2 EQU 0XEF
  000000F7            00887 BORV_2_2 EQU 0XF7
  000000FF            00888 BORV_3_2 EQU 0XFF
  000000FE            00889 WDT_OFF_2 EQU 0XFE
  000000FF            00890 WDT_ON_2 EQU 0XFF
  000000E1            00891 WDTPS_1_2 EQU 0XE1
  000000E3            00892 WDTPS_2_2 EQU 0XE3
  000000E5            00893 WDTPS_4_2 EQU 0XE5
  000000E7            00894 WDTPS_8_2 EQU 0XE7
  000000E9            00895 WDTPS_16_2 EQU 0XE9
  000000EB            00896 WDTPS_32_2 EQU 0XEB
  000000ED            00897 WDTPS_64_2 EQU 0XED
  000000EF            00898 WDTPS_128_2 EQU 0XEF
  000000F1            00899 WDTPS_256_2 EQU 0XF1
  000000F3            00900 WDTPS_512_2 EQU 0XF3
  000000F5            00901 WDTPS_1024_2 EQU 0XF5
  000000F7            00902 WDTPS_2048_2 EQU 0XF7
  000000F9            00903 WDTPS_4096_2 EQU 0XF9
  000000FB            00904 WDTPS_8192_2 EQU 0XFB
  000000FD            00905 WDTPS_16384_2 EQU 0XFD
  000000FF            00906 WDTPS_32768_2 EQU 0XFF
  0000007F            00907 MCLRE_OFF_3 EQU 0X7F
  000000FF            00908 MCLRE_ON_3 EQU 0XFF
  000000FB            00909 LPT1OSC_OFF_3 EQU 0XFB
  000000FF            00910 LPT1OSC_ON_3 EQU 0XFF
  000000FD            00911 PBADEN_OFF_3 EQU 0XFD
  000000FF            00912 PBADEN_ON_3 EQU 0XFF
  000000FE            00913 CCP2MX_PORTBE_3 EQU 0XFE
  000000FF            00914 CCP2MX_PORTC_3 EQU 0XFF
  000000FE            00915 STVREN_OFF_4 EQU 0XFE
  000000FF            00916 STVREN_ON_4 EQU 0XFF
  000000FB            00917 LVP_OFF_4 EQU 0XFB
  000000FF            00918 LVP_ON_4 EQU 0XFF
  000000BF            00919 XINST_OFF_4 EQU 0XBF
  000000FF            00920 XINST_ON_4 EQU 0XFF
  0000007F            00921 DEBUG_ON_4 EQU 0X7F
  000000FF            00922 DEBUG_OFF_4 EQU 0XFF
  000000FE            00923 CP0_ON_5 EQU 0XFE
  000000FF            00924 CP0_OFF_5 EQU 0XFF
  000000FD            00925 CP1_ON_5 EQU 0XFD
  000000FF            00926 CP1_OFF_5 EQU 0XFF
  000000FB            00927 CP2_ON_5 EQU 0XFB
  000000FF            00928 CP2_OFF_5 EQU 0XFF
  000000BF            00929 CPB_ON_5 EQU 0XBF
  000000FF            00930 CPB_OFF_5 EQU 0XFF
  0000007F            00931 CPD_ON_5 EQU 0X7F
  000000FF            00932 CPD_OFF_5 EQU 0XFF
  000000FE            00933 WRT0_ON_6 EQU 0XFE
  000000FF            00934 WRT0_OFF_6 EQU 0XFF
  000000FD            00935 WRT1_ON_6 EQU 0XFD
  000000FF            00936 WRT1_OFF_6 EQU 0XFF
  000000FB            00937 WRT2_ON_6 EQU 0XFB
  000000FF            00938 WRT2_OFF_6 EQU 0XFF
  000000BF            00939 WRTB_ON_6 EQU 0XBF
  000000FF            00940 WRTB_OFF_6 EQU 0XFF
  000000DF            00941 WRTC_ON_6 EQU 0XDF
  000000FF            00942 WRTC_OFF_6 EQU 0XFF
  0000007F            00943 WRTD_ON_6 EQU 0X7F
  000000FF            00944 WRTD_OFF_6 EQU 0XFF
  000000FE            00945 EBTR0_ON_7 EQU 0XFE
  000000FF            00946 EBTR0_OFF_7 EQU 0XFF
  000000FD            00947 EBTR1_ON_7 EQU 0XFD
  000000FF            00948 EBTR1_OFF_7 EQU 0XFF
  000000FB            00949 EBTR2_ON_7 EQU 0XFB
  000000FF            00950 EBTR2_OFF_7 EQU 0XFF
  000000BF            00951 EBTRB_ON_7 EQU 0XBF
  000000FF            00952 EBTRB_OFF_7 EQU 0XFF
  003FFFFE            00953 DEVID1 EQU 0X3FFFFE
  003FFFFF            00954 DEVID2 EQU 0X3FFFFF
  00200000            00955 IDLOC0 EQU 0X200000
  00200000            00956 __IDLOC0 EQU 0X200000
  00200001            00957 IDLOC1 EQU 0X200001
  00200001            00958 __IDLOC1 EQU 0X200001
  00200002            00959 IDLOC2 EQU 0X200002
  00200002            00960 __IDLOC2 EQU 0X200002
  00200003            00961 IDLOC3 EQU 0X200003
  00200003            00962 __IDLOC3 EQU 0X200003
  00200004            00963 IDLOC4 EQU 0X200004
  00200004            00964 __IDLOC4 EQU 0X200004
  00200005            00965 IDLOC5 EQU 0X200005
  00200005            00966 __IDLOC5 EQU 0X200005
  00200006            00967 IDLOC6 EQU 0X200006
  00200006            00968 __IDLOC6 EQU 0X200006
  00200007            00969 IDLOC7 EQU 0X200007
  00200007            00970 __IDLOC7 EQU 0X200007
                      01021 #DEFINE __18F4525 1
                      01022 #DEFINE XTAL 4
                      01023 #DEFINE _CORE 16
                      01024 #DEFINE _MAXRAM 3968
                      01025 #DEFINE _RAM_END 3968
                      01026 #DEFINE _MAXMEM 49152
                      01027 #DEFINE _ADC 13
                      01028 #DEFINE _ADC_RES 10
                      01029 #DEFINE _EEPROM 1024
                      01030 #DEFINE RAM_BANKS 15
                      01031 #DEFINE _USART 1
                      01032 #DEFINE _USB 0
                      01033 #DEFINE _FLASH 1
                      01034 #DEFINE _CWRITE_BLOCK 8
                      01035 #DEFINE BANK0_START 128
                      01036 #DEFINE BANK0_END 255
                      01037 #DEFINE BANK1_START 256
                      01038 #DEFINE BANK1_END 511
                      01039 #DEFINE BANK2_START 512
                      01040 #DEFINE BANK2_END 767
                      01041 #DEFINE BANK3_START 768
                      01042 #DEFINE BANK3_END 1023
                      01043 #DEFINE BANK4_START 1024
                      01044 #DEFINE BANK4_END 1279
                      01045 #DEFINE BANK5_START 1280
                      01046 #DEFINE BANK5_END 1535
                      01047 #DEFINE BANK6_START 1536
                      01048 #DEFINE BANK6_END 1791
                      01049 #DEFINE BANK7_START 1792
                      01050 #DEFINE BANK7_END 2047
                      01051 #DEFINE BANK8_START 2048
                      01052 #DEFINE BANK8_END 2303
                      01053 #DEFINE BANK9_START 2304
                      01054 #DEFINE BANK9_END 2559
                      01055 #DEFINE BANK10_START 2560
                      01056 #DEFINE BANK10_END 2815
                      01057 #DEFINE BANK11_START 2816
                      01058 #DEFINE BANK11_END 3071
                      01059 #DEFINE BANK12_START 3072
                      01060 #DEFINE BANK12_END 3327
                      01061 #DEFINE BANK13_START 3328
                      01062 #DEFINE BANK13_END 3583
                      01063 #DEFINE BANK14_START 3584
                      01064 #DEFINE BANK14_END 3839
                      01065 #DEFINE BANKA_START 0
                      01066 #DEFINE BANKA_END 127
                      01067 #DEFINE _SYSTEM_VARIABLE_COUNT 50
  00000000            01068 RAM_BANK = 0
                      01069 #DEFINE LCD#DTPORT PORTD
                      01070 #DEFINE LCD#DTPIN 0
                      01071 #DEFINE LCD#RSPORT PORTD
                      01072 #DEFINE LCD#RSPIN 7
                      01073 #DEFINE LCD#ENPORT PORTD
                      01074 #DEFINE LCD#ENPIN 6
                      01075 #DEFINE LCD#INTERFACE 4
                      01076 #DEFINE LCD#LINES 2
                      01077 #DEFINE LCD#TYPE 0
                      01089 #DEFINE CLRW CLRF WREG
                      01090 #DEFINE NEGW NEGF WREG
                      01091 #DEFINE SKPC BTFSS STATUS,0
                      01092 #DEFINE SKPNC BTFSC STATUS,0
                      01093 #DEFINE CLRC BCF STATUS,0
                      01094 #DEFINE SETC BSF STATUS,0
                      01095 #DEFINE SKPZ BTFSS STATUS,2
                      01096 #DEFINE SKPNZ BTFSC STATUS,2
                      01097 #DEFINE CLRZ BCF STATUS,2
                      01098 #DEFINE SETZ BSF STATUS,2
                      01099 #DEFINE SD_INIT_MSSP#REQ 1
                      01100 #DEFINE SD_CLOSE_FILE#REQ 1
                      01101 #DEFINE SD_OPEN_FILE#REQ 1
                      01102 #DEFINE SD_READ_BYTE_FROM_FILE#REQ 1
                      01103 #DEFINE SD_CHECK_FOR_FILE#REQ 1
                      01104 #DEFINE SD_NEW_FILE#REQ 1
                      01105 #DEFINE SD_APPEND_FILE#REQ 1
                      01106 #DEFINE SD_DELETE_FILE#REQ 1
                      01107 #DEFINE SD_INIT_FS_MSSP#REQ 1
                      01108 #DEFINE SD_WRITE_BYTE_TO_FILE#REQ 1
                      01109 #DEFINE SD_WRITE_STRING_TO_FILE#REQ 1
                      01110 MOVFW MACRO M#VARIN
                      01111         MOVF M#VARIN,W
                      01112         ENDM
                      01113 RLF MACRO M#VARIN,M#DEST
                      01114         RLCF M#VARIN,M#DEST
                      01115         ENDM
                      01116 RRF MACRO M#VARIN,M#DEST
                      01117         RRCF M#VARIN,M#DEST
                      01118         ENDM
                      01119 JUMP MACRO LABEL
                      01120         GOTO LABEL
                      01121         ENDM
                      01122 F@CALL MACRO M#DEST
                      01123 IF (M#DEST < 1)
                      01124         CALL M#DEST
                      01125 ELSE
                      01126 IF (M#DEST > $)
                      01127         CALL M#DEST
                      01128 ELSE
                      01129 IF (M#DEST < ($ - 0X03FF))
                      01130         CALL M#DEST
                      01131 ELSE
                      01132         RCALL M#DEST
                      01133 ENDIF
                      01134 ENDIF
                      01135 ENDIF
                      01136         ENDM
                      01137 F@JUMP MACRO M#DEST
                      01138 IFDEF WATCHDOG_REQ
                      01139 IF ($ == M#DEST)
                      01140         CLRWDT
                      01141 ENDIF
                      01142 ENDIF
                      01143 IF (M#DEST < 1)
                      01144         GOTO M#DEST
                      01145 ELSE
                      01146 IF ((M#DEST) > $)
                      01147         GOTO M#DEST
                      01148 ELSE
                      01149 IF ((M#DEST) < ($ - 0X03FF))
                      01150         GOTO M#DEST
                      01151 ELSE
                      01152         BRA M#DEST
                      01153 ENDIF
                      01154 ENDIF
                      01155 ENDIF
                      01156         ENDM
                      01157 IFDEF WATCHDOG_REQ
                      01158         CHK@SLF MACRO M#DEST
                      01159 IF ($ == M#DEST)
                      01160         CLRWDT
                      01161 ENDIF
                      01162         ENDM
                      01163 ENDIF
                      01164 G@OTO MACRO M#DEST
                      01165 IF (M#DEST < 1)
                      01166         BTFSC STATUS,OV
                      01167         GOTO M#DEST
                      01168 ELSE
                      01169 IF (M#DEST > $)
                      01170         BTFSC STATUS,OV
                      01171         GOTO M#DEST
                      01172 ELSE
                      01173 IF (M#DEST < ($ - 127))
                      01174         BTFSC STATUS,OV
                      01175         GOTO M#DEST
                      01176 ELSE
                      01177         BOV M#DEST
                      01178 ENDIF
                      01179 ENDIF
                      01180 ENDIF
                      01181         ENDM
                      01182 GO@TO MACRO M#DEST
                      01183 IF (M#DEST < 1)
                      01184         GOTO M#DEST
                      01185 ELSE
                      01186 IF (M#DEST > $)
                      01187         GOTO M#DEST
                      01188 ELSE
                      01189 IF (M#DEST < ($ - 0X03FF))
                      01190         GOTO M#DEST
                      01191 ELSE
                      01192         BRA M#DEST
                      01193 ENDIF
                      01194 ENDIF
                      01195 ENDIF
                      01196         ENDM
                      01197 S@B MACRO M#VARIN
                      01198 IF ((M#VARIN > BANKA_END) & (M#VARIN < 0X0F80))
                      01199 IF ((M#VARIN & 0X0F00) != (RAM_BANK << 8))
                      01200         MOVLB HIGH (M#VARIN)
                      01201         RAM_BANK = (M#VARIN >> 8)
                      01202 ENDIF
                      01203 ENDIF
                      01204         ENDM
                      01205 R@B MACRO
                      01206 IF(RAM_BANK != 0)
                      01207         MOVLB 0
                      01208         RAM_BANK = 0
                      01209 ENDIF
                      01210         ENDM
                      01211 WREG_BYTE MACRO M#BYTEOUT
                      01212         MOVFF WREG,M#BYTEOUT
                      01213         ENDM
                      01214 WREG_BIT MACRO M#VAROUT,M#BITOUT
                      01215         S@B M#VAROUT
                      01216         BTFSC WREG,0
                      01217         BSF M#VAROUT,M#BITOUT
                      01218         BTFSS WREG,0
                      01219         BCF M#VAROUT,M#BITOUT
                      01220         R@B
                      01221         ENDM
                      01222 WREG_WORD MACRO M#WORDOUT
                      01223         MOVFF WREG,M#WORDOUT
                      01224         MOVLW 0
                      01225         MOVFF WREG,M#WORDOUT + 1
                      01226         ENDM
                      01227 WREG_DWORD MACRO M#DWORDOUT
                      01228         MOVFF WREG,M#DWORDOUT
                      01229         MOVLW 0
                      01230         MOVFF WREG,M#DWORDOUT + 3
                      01231         MOVFF WREG,M#DWORDOUT + 2
                      01232         MOVFF WREG,M#DWORDOUT + 1
                      01233         ENDM
                      01234 BYTE_WREG MACRO M#BYTEIN
                      01235         MOVFF M#BYTEIN,WREG
                      01236         ENDM
                      01237 NUM_WREG MACRO M#NUMIN
                      01238         MOVLW (M#NUMIN & 255)
                      01239         ENDM
                      01240 NUM_BYTE MACRO M#NUMIN,M#BYTEOUT
                      01241         MOVLW (M#NUMIN & 255)
                      01242         MOVFF WREG,M#BYTEOUT
                      01243         ENDM
                      01244 NUM_BIT MACRO M#NUMIN,M#VAROUT,M#BITOUT
                      01245         S@B M#VAROUT
                      01246 IF((M#NUMIN & 1) == 1)
                      01247         BSF M#VAROUT,M#BITOUT
                      01248 ELSE
                      01249         BCF M#VAROUT,M#BITOUT
                      01250 ENDIF
                      01251         R@B
                      01252         ENDM
                      01253 NUM_WORD MACRO M#NUMIN,M#WORDOUT
                      01254 IFDEF _USELFSR
                      01255 IF(M#WORDOUT == FSR0L)
                      01256         LFSR 0,M#NUMIN
                      01257         EXITM
                      01258 ENDIF
                      01259 IF(M#WORDOUT == FSR1L)
                      01260         LFSR 1,M#NUMIN
                      01261         EXITM
                      01262 ENDIF
                      01263 IF(M#WORDOUT == FSR2L)
                      01264         LFSR 2,M#NUMIN
                      01265         EXITM
                      01266 ENDIF
                      01267 ENDIF
                      01268         S@B M#WORDOUT
                      01269         MOVLW (M#NUMIN & 255)
                      01270         MOVWF M#WORDOUT
                      01271         S@B M#WORDOUT + 1
                      01272         MOVLW HIGH (M#NUMIN)
                      01273         MOVWF M#WORDOUT + 1
                      01274         R@B
                      01275         ENDM
                      01276 NUM_DWORD MACRO M#NUMIN,M#DWORDOUT
                      01277         S@B M#DWORDOUT
                      01278         MOVLW LOW (M#NUMIN)
                      01279         MOVWF M#DWORDOUT
                      01280         S@B M#DWORDOUT + 1
                      01281         MOVLW HIGH (M#NUMIN)
                      01282         MOVWF M#DWORDOUT + 1
                      01283         S@B M#DWORDOUT + 2
                      01284         MOVLW ((M#NUMIN >> 16) & 255)
                      01285         MOVWF M#DWORDOUT + 2
                      01286         S@B M#DWORDOUT + 3
                      01287         MOVLW ((M#NUMIN >> 24) & 255)
                      01288         MOVWF M#DWORDOUT + 3
                      01289         R@B
                      01290         ENDM
                      01291 BIT_WREG MACRO M#VARIN,M#BITIN
                      01292         S@B M#VARIN
                      01293         CLRW
                      01294         BTFSC M#VARIN,M#BITIN
                      01295         MOVLW 1
                      01296         R@B
                      01297         ENDM
                      01298 BIT_BYTE MACRO M#VARIN,M#BITIN,M#BYTEOUT
                      01299         S@B M#VARIN
                      01300         CLRW
                      01301         BTFSC M#VARIN,M#BITIN
                      01302         MOVLW 1
                      01303         S@B M#BYTEOUT
                      01304         MOVWF M#BYTEOUT
                      01305         R@B
                      01306         ENDM
                      01307 BIT_BIT MACRO M#VARIN,M#BITIN,M#VAROUT,M#BITOUT
                      01308 IF ((M#VARIN & 0X0F00) == (M#VAROUT & 0X0F00))
                      01309         S@B M#VARIN
                      01310         BTFSC M#VARIN,M#BITIN
                      01311         BSF M#VAROUT,M#BITOUT
                      01312         BTFSS M#VARIN,M#BITIN
                      01313         BCF M#VAROUT,M#BITOUT
                      01314 ELSE
                      01315 IF ((M#VARIN <= BANKA_END) | (M#VARIN >= 0X0F80))
                      01316         S@B M#VAROUT
                      01317         BTFSC M#VARIN,M#BITIN
                      01318         BSF M#VAROUT,M#BITOUT
                      01319         BTFSS M#VARIN,M#BITIN
                      01320         BCF M#VAROUT,M#BITOUT
                      01321 ELSE
                      01322 IF ((M#VAROUT <= BANKA_END) | (M#VAROUT >= 0X0F80))
                      01323         S@B M#VARIN
                      01324         BTFSC M#VARIN,M#BITIN
                      01325         BSF M#VAROUT,M#BITOUT
                      01326         BTFSS M#VARIN,M#BITIN
                      01327         BCF M#VAROUT,M#BITOUT
                      01328 ELSE
                      01329         S@B M#VARIN
                      01330         CLRDC
                      01331         BTFSC M#VARIN,M#BITIN
                      01332         SETDC
                      01333         S@B M#VAROUT
                      01334         SKPNDC
                      01335         BSF M#VAROUT,M#BITOUT
                      01336         SKPDC
                      01337         BCF M#VAROUT,M#BITOUT
                      01338 ENDIF
                      01339 ENDIF
                      01340 ENDIF
                      01341         R@B
                      01342         ENDM
                      01343 BIT_WORD MACRO M#VARIN,M#BITIN,M#WORDOUT
                      01344         S@B M#WORDOUT + 1
                      01345         CLRF M#WORDOUT + 1
                      01346         BIT_BYTE M#VARIN,M#BITIN,M#WORDOUT
                      01347         ENDM
                      01348 BIT_DWORD MACRO M#VARIN,M#BITIN,M#DWORDOUT
                      01349         S@B M#DWORDOUT + 3
                      01350         CLRF M#DWORDOUT + 3
                      01351         S@B M#DWORDOUT + 2
                      01352         CLRF M#DWORDOUT + 2
                      01353         S@B M#DWORDOUT + 1
                      01354         CLRF M#DWORDOUT + 1
                      01355         BIT_BYTE M#VARIN,M#BITIN,M#DWORDOUT
                      01356         ENDM
                      01357 WORD_WREG MACRO M#WORDIN
                      01358         BYTE_WREG M#WORDIN
                      01359         ENDM
                      01360 WORD_BYTE MACRO M#WORDIN,M#BYTEOUT
                      01361         BYTE_BYTE M#WORDIN,M#BYTEOUT
                      01362         ENDM
                      01363 WORD_BIT MACRO M#WORDIN,M#VAROUT,M#BITOUT
                      01364         BYTE_BIT M#WORDIN, M#VAROUT, M#BITOUT
                      01365         ENDM
                      01366 WORD_WORD MACRO M#WORDIN,M#WORDOUT
                      01367         MOVFF M#WORDIN + 1,M#WORDOUT + 1
                      01368         MOVFF M#WORDIN,M#WORDOUT
                      01369         ENDM
                      01370 WORD_DWORD MACRO M#WORDIN,M#DWORDOUT
                      01371         MOVLW 0
                      01372         MOVFF WREG,M#DWORDOUT + 3
                      01373         MOVFF WREG,M#DWORDOUT + 2
                      01374         WORD_WORD M#WORDIN,M#DWORDOUT
                      01375         ENDM
                      01376 BYTE_BYTE MACRO M#BYTEIN,M#BYTEOUT
                      01377         MOVFF M#BYTEIN,M#BYTEOUT
                      01378         ENDM
                      01379 BYTE_WORD MACRO M#BYTEIN,M#WORDOUT
                      01380         MOVLW 0
                      01381         MOVFF WREG,M#WORDOUT + 1
                      01382         BYTE_BYTE M#BYTEIN,M#WORDOUT
                      01383         ENDM
                      01384 BYTE_DWORD MACRO M#BYTEIN,M#DWORDOUT
                      01385         MOVLW 0
                      01386         MOVFF WREG,M#DWORDOUT + 3
                      01387         MOVFF WREG,M#DWORDOUT + 2
                      01388         MOVFF WREG,M#DWORDOUT + 1
                      01389         BYTE_BYTE M#BYTEIN,M#DWORDOUT
                      01390         ENDM
                      01391 BYTE_BIT MACRO M#BYTEIN,M#VAROUT,M#BITOUT
                      01392 IF ((M#BYTEIN & 0X0F00) == (M#VAROUT & 0X0F00))
                      01393         S@B M#BYTEIN
                      01394         BTFSC M#BYTEIN,0
                      01395         BSF M#VAROUT,M#BITOUT
                      01396         BTFSS M#BYTEIN,0
                      01397         BCF M#VAROUT,M#BITOUT
                      01398 ELSE
                      01399 IF ((M#BYTEIN <= BANKA_END) | (M#BYTEIN >= 0X0F80))
                      01400         S@B M#VAROUT
                      01401         BTFSC M#BYTEIN,0
                      01402         BSF M#VAROUT,M#BITOUT
                      01403         BTFSS M#BYTEIN,0
                      01404         BCF M#VAROUT,M#BITOUT
                      01405 ELSE
                      01406 IF ((M#VAROUT <= BANKA_END) | (M#VAROUT >= 0X0F80))
                      01407         S@B M#BYTEIN
                      01408         BTFSC M#BYTEIN,0
                      01409         BSF M#VAROUT,M#BITOUT
                      01410         BTFSS M#BYTEIN,0
                      01411         BCF M#VAROUT,M#BITOUT
                      01412 ELSE
                      01413         S@B M#BYTEIN
                      01414         RRF M#BYTEIN,W
                      01415         S@B M#VAROUT
                      01416         SKPNC
                      01417         BSF M#VAROUT,M#BITOUT
                      01418         SKPC
                      01419         BCF M#VAROUT,M#BITOUT
                      01420 ENDIF
                      01421 ENDIF
                      01422 ENDIF
                      01423         R@B
                      01424         ENDM
                      01425 DWORD_WREG MACRO M#DWORDIN
                      01426         BYTE_WREG M#DWORDIN
                      01427         ENDM
                      01428 DWORD_BYTE MACRO M#DWORDIN,M#BYTEOUT
                      01429         BYTE_BYTE M#DWORDIN,M#BYTEOUT
                      01430         ENDM
                      01431 DWORD_WORD MACRO M#DWORDIN,M#WORDOUT
                      01432         MOVFF M#DWORDIN + 1,M#WORDOUT + 1
                      01433         MOVFF M#DWORDIN,M#WORDOUT
                      01434         ENDM
                      01435 DWORD_DWORD MACRO M#DWORDIN,M#DWORDOUT
                      01436         MOVFF M#DWORDIN + 3,M#DWORDOUT + 3
                      01437         MOVFF M#DWORDIN + 2,M#DWORDOUT + 2
                      01438         MOVFF M#DWORDIN + 1,M#DWORDOUT + 1
                      01439         MOVFF M#DWORDIN,M#DWORDOUT
                      01440         ENDM
                      01441 DWORD_BIT MACRO M#DWORDIN,M#VAROUT,M#BITOUT
                      01442         BYTE_BIT M#DWORDIN,M#VAROUT,M#BITOUT
                      01443         ENDM
                      01444 NUM_FLOAT MACRO M#NUMIN,FLOATOUT
                      01445         NUM_BYTE M#NUMIN,FLOATOUT + 3
                      01446         NUM_BYTE ((M#NUMIN >> 8) & 255),FLOATOUT + 2
                      01447         NUM_BYTE ((M#NUMIN >> 16) & 255),FLOATOUT + 1
                      01448         NUM_BYTE ((M#NUMIN >> 24) & 255),FLOATOUT
                      01449         ENDM
                      01450 WREG_FLOAT MACRO FLOATOUT
                      01451         CALL FLO@0832U
                      01452         MOVFF PBP_AARG,FLOATOUT
                      01453         MOVFF PBP_AARGH,FLOATOUT + 1
                      01454         MOVFF PBP_AARGHH,FLOATOUT + 2
                      01455         MOVFF PBP_AARGHHH,FLOATOUT + 3
                      01456         ENDM
                      01457 BIT_FLOAT MACRO M#VARIN,M#BITIN,FLOATOUT
                      01458         BIT_WREG M#VARIN,M#BITIN
                      01459         CALL FLO@0832U
                      01460         MOVFF PBP_AARG,FLOATOUT
                      01461         MOVFF PBP_AARGH,FLOATOUT + 1
                      01462         MOVFF PBP_AARGHH,FLOATOUT + 2
                      01463         MOVFF PBP_AARGHHH,FLOATOUT + 3
                      01464         ENDM
                      01465 BYTE_FLOAT MACRO M#BYTEIN,FLOATOUT
                      01466         BYTE_WREG M#BYTEIN
                      01467         CALL FLO@0832U
                      01468         MOVFF PBP_AARG,FLOATOUT
                      01469         MOVFF PBP_AARGH,FLOATOUT + 1
                      01470         MOVFF PBP_AARGHH,FLOATOUT + 2
                      01471         MOVFF PBP_AARGHHH,FLOATOUT + 3
                      01472         ENDM
                      01473 WORD_FLOAT MACRO M#WORDIN,FLOATOUT
                      01474         BYTE_BYTE M#WORDIN,PBP_AARG
                      01475         BYTE_BYTE M#WORDIN + 1,PBP_AARGH
                      01476         CALL FLO@1632U
                      01477         MOVFF PBP_AARG,FLOATOUT
                      01478         MOVFF PBP_AARGH,FLOATOUT + 1
                      01479         MOVFF PBP_AARGHH,FLOATOUT + 2
                      01480         MOVFF PBP_AARGHHH,FLOATOUT + 3
                      01481         ENDM
                      01482 DWORD_FLOAT MACRO M#DWORDIN,FLOATOUT
                      01483         MOVFF M#DWORDIN,PBP_AARG
                      01484         MOVFF M#DWORDIN + 1,PBP_AARGH
                      01485         MOVFF M#DWORDIN + 2,PBP_AARGHH
                      01486         MOVFF M#DWORDIN + 3,PBP_AARGHHH
                      01487         CALL FLO@3232S
                      01488         MOVFF PBP_AARG,FLOATOUT
                      01489         MOVFF PBP_AARGH,FLOATOUT + 1
                      01490         MOVFF PBP_AARGHH,FLOATOUT + 2
                      01491         MOVFF PBP_AARGHHH,FLOATOUT + 3
                      01492         ENDM
                      01493 FLOAT_FLOAT MACRO FLOATIN,FLOATOUT
                      01494         MOVFF FLOATIN,FLOATOUT
                      01495         MOVFF FLOATIN + 1,FLOATOUT + 1
                      01496         MOVFF FLOATIN + 2,FLOATOUT + 2
                      01497         MOVFF FLOATIN + 3,FLOATOUT + 3
                      01498         ENDM
                      01499 FLOAT_WREG MACRO FLOATIN
                      01500         FLOAT_FLOAT FLOATIN,PBP_AARG
                      01501         CALL INT@3232
                      01502         ENDM
                      01503 FLOAT_BIT MACRO FLOATIN,M#VAROUT,M#BITOUT
                      01504         FLOAT_FLOAT FLOATIN,PBP_AARG
                      01505         CALL INT@3232
                      01506         WREG_BIT M#VAROUT,M#BITOUT
                      01507         ENDM
                      01508 FLOAT_BYTE MACRO FLOATIN,M#BYTEOUT
                      01509         FLOAT_FLOAT FLOATIN,PBP_AARG
                      01510         CALL INT@3232
                      01511         WREG_BYTE M#BYTEOUT
                      01512         ENDM
                      01513 FLOAT_WORD MACRO FLOATIN,M#WORDOUT
                      01514         FLOAT_FLOAT FLOATIN,PBP_AARG
                      01515         CALL INT@3232
                      01516         MOVFF PBP_AARGHHH,M#WORDOUT
                      01517         MOVFF PBP_AARGHH,M#WORDOUT + 1
                      01518         ENDM
                      01519 FLOAT_DWORD MACRO FLOATIN,M#DWORDOUT
                      01520         FLOAT_FLOAT FLOATIN,PBP_AARG
                      01521         CALL INT@3232
                      01522         MOVFF PBP_AARGHHH,M#DWORDOUT
                      01523         MOVFF PBP_AARGHH,M#DWORDOUT + 1
                      01524         MOVFF PBP_AARGH,M#DWORDOUT + 2
                      01525         MOVFF PBP_AARG,M#DWORDOUT + 3
                      01526         ENDM
                      01527 NUM_FSR0 MACRO M#NUMIN
                      01528         LFSR 0, M#NUMIN
                      01529         ENDM
                      01530 NUM_FSR1 MACRO M#NUMIN
                      01531         LFSR 1, M#NUMIN
                      01532         ENDM
                      01533 NUM_FSR2 MACRO M#NUMIN
                      01534         LFSR 2, M#NUMIN
                      01535         ENDM
                      01536 LABEL_WORD MACRO LABELIN,M#WORDOUT
                      01537         MOVLW LOW (LABELIN)
                      01538         MOVFF WREG, M#WORDOUT
                      01539         MOVLW HIGH (LABELIN)
                      01540         MOVFF WREG, M#WORDOUT + 1
                      01541         ENDM
  00000000            01543 BPF = 0
  00000001            01544 BPFH = 1
  00000002            01545 GEN = 2
  00000003            01546 GEN3H = 3
  00000004            01547 GEN4 = 4
  00000005            01548 GEN4H = 5
  00000006            01549 GENH = 6
  00000007            01550 GPR = 7
  00000008            01551 PBP#VAR0 = 8
  00000009            01552 PBP#VAR0H = 9
  0000000A            01553 PBP#VAR0HH = 10
  0000000B            01554 PBP#VAR0HHH = 11
  0000000C            01555 PBP#VAR1 = 12
  0000000D            01556 PBP_AARG = 13
  0000000E            01557 PBP_AARGH = 14
  0000000F            01558 PBP_AARGHH = 15
  00000010            01559 PBP_AARGHHH = 16
  00000011            01560 PP0 = 17
  00000012            01561 PP0H = 18
  00000013            01562 PP0HH = 19
  00000014            01563 PP0HHH = 20
  00000015            01564 PP1 = 21
  00000016            01565 PP1H = 22
  00000017            01566 PP1HH = 23
  00000018            01567 PP1HHH = 24
  00000019            01568 PP2 = 25
  0000001A            01569 PP2H = 26
  0000001B            01570 PP2HH = 27
  0000001C            01571 PP2HHH = 28
  0000001D            01572 PP3 = 29
  0000001E            01573 PP3H = 30
  0000001F            01574 PP4 = 31
  00000020            01575 PP5 = 32
  00000021            01576 PP6 = 33
  00000022            01577 PP6H = 34
  00000023            01578 PP7 = 35
  00000024            01579 PP7H = 36
  00000025            01580 PP7HH = 37
  00000026            01581 PP7HHH = 38
  00000027            01582 PP8 = 39
  00000028            01583 PP8H = 40
  00000029            01584 PPZ = 41
  0000002A            01585 PPZH = 42
  0000002B            01586 PPZHH = 43
  0000002C            01587 PPZHHH = 44
  0000002D            01588 SP#P9 = 45
  0000002E            01589 _AEXP = 46
  0000002F            01590 _FP_FLAGS = 47
  00000030            01591 _FP_TEMP = 48
  00000031            01592 _SIGN = 49
  00000032            01593 SD_BYTER = 50
  00000033            01594 SD_IDX = 51
  00000034            01595 SD_SECTOR_NUM = 52
  00000035            01596 SD_SECTOR_NUMH = 53
  00000036            01597 SD_SECTOR_NUMHH = 54
  00000037            01598 SD_SECTOR_NUMHHH = 55
  00000038            01599 SD_ADDRESS = 56
  00000039            01600 SD_ADDRESSH = 57
  0000003A            01601 SD_ADDRESSHH = 58
  0000003B            01602 SD_ADDRESSHHH = 59
  0000003C            01603 SD_SEEK_RESPONSE_IDX = 60
  0000003D            01604 SD_SEEK_RESPONSE_IDXH = 61
  0000003E            01605 SD_SEEK_RESPONSE_REQD = 62
  0000003F            01606 SD_SEEK_RESPONSE_RETURN = 63
  00000040            01607 SD_RETURN = 64
  00000041            01608 SD_BUFFER0 = 65
  0041                01609 VARIABLE SD_BUFFER0#0=65,SD_BUFFER0#1=66,SD_BUFFER0#2=67,SD_BUFFER0#3=68
  0045                01610 VARIABLE SD_BUFFER0#4=69,SD_BUFFER0#5=70,SD_BUFFER0#6=71,SD_BUFFER0#7=72
  0049                01611 VARIABLE SD_BUFFER0#8=73,SD_BUFFER0#9=74,SD_BUFFER0#10=75,SD_BUFFER0#11=76
  004D                01612 VARIABLE SD_BUFFER0#12=77,SD_BUFFER0#13=78,SD_BUFFER0#14=79,SD_BUFFER0#15=80
  0051                01613 VARIABLE SD_BUFFER0#16=81,SD_BUFFER0#17=82,SD_BUFFER0#18=83,SD_BUFFER0#19=84
  0055                01614 VARIABLE SD_BUFFER0#20=85,SD_BUFFER0#21=86,SD_BUFFER0#22=87,SD_BUFFER0#23=88
  0059                01615 VARIABLE SD_BUFFER0#24=89,SD_BUFFER0#25=90,SD_BUFFER0#26=91,SD_BUFFER0#27=92
  005D                01616 VARIABLE SD_BUFFER0#28=93,SD_BUFFER0#29=94,SD_BUFFER0#30=95,SD_BUFFER0#31=96
  0061                01617 VARIABLE SD_BUFFER0#32=97,SD_BUFFER0#33=98,SD_BUFFER0#34=99,SD_BUFFER0#35=100
  0065                01618 VARIABLE SD_BUFFER0#36=101,SD_BUFFER0#37=102,SD_BUFFER0#38=103,SD_BUFFER0#39=104
  0069                01619 VARIABLE SD_BUFFER0#40=105,SD_BUFFER0#41=106,SD_BUFFER0#42=107,SD_BUFFER0#43=108
  006D                01620 VARIABLE SD_BUFFER0#44=109,SD_BUFFER0#45=110,SD_BUFFER0#46=111,SD_BUFFER0#47=112
  0071                01621 VARIABLE SD_BUFFER0#48=113,SD_BUFFER0#49=114,SD_BUFFER0#50=115,SD_BUFFER0#51=116
  0075                01622 VARIABLE SD_BUFFER0#52=117,SD_BUFFER0#53=118,SD_BUFFER0#54=119,SD_BUFFER0#55=120
  0079                01623 VARIABLE SD_BUFFER0#56=121,SD_BUFFER0#57=122,SD_BUFFER0#58=123,SD_BUFFER0#59=124
  007D                01624 VARIABLE SD_BUFFER0#60=125,SD_BUFFER0#61=126,SD_BUFFER0#62=127,SD_BUFFER0#63=128
  0081                01625 VARIABLE SD_BUFFER0#64=129,SD_BUFFER0#65=130,SD_BUFFER0#66=131,SD_BUFFER0#67=132
  0085                01626 VARIABLE SD_BUFFER0#68=133,SD_BUFFER0#69=134,SD_BUFFER0#70=135,SD_BUFFER0#71=136
  0089                01627 VARIABLE SD_BUFFER0#72=137,SD_BUFFER0#73=138,SD_BUFFER0#74=139,SD_BUFFER0#75=140
  008D                01628 VARIABLE SD_BUFFER0#76=141,SD_BUFFER0#77=142,SD_BUFFER0#78=143,SD_BUFFER0#79=144
  0091                01629 VARIABLE SD_BUFFER0#80=145,SD_BUFFER0#81=146,SD_BUFFER0#82=147,SD_BUFFER0#83=148
  0095                01630 VARIABLE SD_BUFFER0#84=149,SD_BUFFER0#85=150,SD_BUFFER0#86=151,SD_BUFFER0#87=152
  0099                01631 VARIABLE SD_BUFFER0#88=153,SD_BUFFER0#89=154,SD_BUFFER0#90=155,SD_BUFFER0#91=156
  009D                01632 VARIABLE SD_BUFFER0#92=157,SD_BUFFER0#93=158,SD_BUFFER0#94=159,SD_BUFFER0#95=160
  00A1                01633 VARIABLE SD_BUFFER0#96=161,SD_BUFFER0#97=162,SD_BUFFER0#98=163,SD_BUFFER0#99=164
  00A5                01634 VARIABLE SD_BUFFER0#100=165,SD_BUFFER0#101=166,SD_BUFFER0#102=167,SD_BUFFER0#103=168
  00A9                01635 VARIABLE SD_BUFFER0#104=169,SD_BUFFER0#105=170,SD_BUFFER0#106=171,SD_BUFFER0#107=172
  00AD                01636 VARIABLE SD_BUFFER0#108=173,SD_BUFFER0#109=174,SD_BUFFER0#110=175,SD_BUFFER0#111=176
  00B1                01637 VARIABLE SD_BUFFER0#112=177,SD_BUFFER0#113=178,SD_BUFFER0#114=179,SD_BUFFER0#115=180
  00B5                01638 VARIABLE SD_BUFFER0#116=181,SD_BUFFER0#117=182,SD_BUFFER0#118=183,SD_BUFFER0#119=184
  00B9                01639 VARIABLE SD_BUFFER0#120=185,SD_BUFFER0#121=186,SD_BUFFER0#122=187,SD_BUFFER0#123=188
  00BD                01640 VARIABLE SD_BUFFER0#124=189,SD_BUFFER0#125=190,SD_BUFFER0#126=191,SD_BUFFER0#127=192
  00C1                01641 VARIABLE SD_BUFFER0#128=193,SD_BUFFER0#129=194,SD_BUFFER0#130=195,SD_BUFFER0#131=196
  00C5                01642 VARIABLE SD_BUFFER0#132=197,SD_BUFFER0#133=198,SD_BUFFER0#134=199,SD_BUFFER0#135=200
  00C9                01643 VARIABLE SD_BUFFER0#136=201,SD_BUFFER0#137=202,SD_BUFFER0#138=203,SD_BUFFER0#139=204
  00CD                01644 VARIABLE SD_BUFFER0#140=205,SD_BUFFER0#141=206,SD_BUFFER0#142=207,SD_BUFFER0#143=208
  00D1                01645 VARIABLE SD_BUFFER0#144=209,SD_BUFFER0#145=210,SD_BUFFER0#146=211,SD_BUFFER0#147=212
  00D5                01646 VARIABLE SD_BUFFER0#148=213,SD_BUFFER0#149=214,SD_BUFFER0#150=215,SD_BUFFER0#151=216
  00D9                01647 VARIABLE SD_BUFFER0#152=217,SD_BUFFER0#153=218,SD_BUFFER0#154=219,SD_BUFFER0#155=220
  00DD                01648 VARIABLE SD_BUFFER0#156=221,SD_BUFFER0#157=222,SD_BUFFER0#158=223,SD_BUFFER0#159=224
  00E1                01649 VARIABLE SD_BUFFER0#160=225,SD_BUFFER0#161=226,SD_BUFFER0#162=227,SD_BUFFER0#163=228
  00E5                01650 VARIABLE SD_BUFFER0#164=229,SD_BUFFER0#165=230,SD_BUFFER0#166=231,SD_BUFFER0#167=232
  00E9                01651 VARIABLE SD_BUFFER0#168=233,SD_BUFFER0#169=234,SD_BUFFER0#170=235,SD_BUFFER0#171=236
  00ED                01652 VARIABLE SD_BUFFER0#172=237,SD_BUFFER0#173=238,SD_BUFFER0#174=239,SD_BUFFER0#175=240
  00F1                01653 VARIABLE SD_BUFFER0#176=241,SD_BUFFER0#177=242,SD_BUFFER0#178=243,SD_BUFFER0#179=244
  00F5                01654 VARIABLE SD_BUFFER0#180=245,SD_BUFFER0#181=246,SD_BUFFER0#182=247,SD_BUFFER0#183=248
  00F9                01655 VARIABLE SD_BUFFER0#184=249,SD_BUFFER0#185=250,SD_BUFFER0#186=251,SD_BUFFER0#187=252
  00FD                01656 VARIABLE SD_BUFFER0#188=253,SD_BUFFER0#189=254,SD_BUFFER0#190=255,SD_BUFFER0#191=256
  0101                01657 VARIABLE SD_BUFFER0#192=257,SD_BUFFER0#193=258,SD_BUFFER0#194=259,SD_BUFFER0#195=260
  0105                01658 VARIABLE SD_BUFFER0#196=261,SD_BUFFER0#197=262,SD_BUFFER0#198=263,SD_BUFFER0#199=264
  0109                01659 VARIABLE SD_BUFFER0#200=265,SD_BUFFER0#201=266,SD_BUFFER0#202=267,SD_BUFFER0#203=268
  010D                01660 VARIABLE SD_BUFFER0#204=269,SD_BUFFER0#205=270,SD_BUFFER0#206=271,SD_BUFFER0#207=272
  0111                01661 VARIABLE SD_BUFFER0#208=273,SD_BUFFER0#209=274,SD_BUFFER0#210=275,SD_BUFFER0#211=276
  0115                01662 VARIABLE SD_BUFFER0#212=277,SD_BUFFER0#213=278,SD_BUFFER0#214=279,SD_BUFFER0#215=280
  0119                01663 VARIABLE SD_BUFFER0#216=281,SD_BUFFER0#217=282,SD_BUFFER0#218=283,SD_BUFFER0#219=284
  011D                01664 VARIABLE SD_BUFFER0#220=285,SD_BUFFER0#221=286,SD_BUFFER0#222=287,SD_BUFFER0#223=288
  0121                01665 VARIABLE SD_BUFFER0#224=289,SD_BUFFER0#225=290,SD_BUFFER0#226=291,SD_BUFFER0#227=292
  0125                01666 VARIABLE SD_BUFFER0#228=293,SD_BUFFER0#229=294,SD_BUFFER0#230=295,SD_BUFFER0#231=296
  0129                01667 VARIABLE SD_BUFFER0#232=297,SD_BUFFER0#233=298,SD_BUFFER0#234=299,SD_BUFFER0#235=300
  012D                01668 VARIABLE SD_BUFFER0#236=301,SD_BUFFER0#237=302,SD_BUFFER0#238=303,SD_BUFFER0#239=304
  0131                01669 VARIABLE SD_BUFFER0#240=305,SD_BUFFER0#241=306,SD_BUFFER0#242=307,SD_BUFFER0#243=308
  0135                01670 VARIABLE SD_BUFFER0#244=309,SD_BUFFER0#245=310,SD_BUFFER0#246=311,SD_BUFFER0#247=312
  0139                01671 VARIABLE SD_BUFFER0#248=313,SD_BUFFER0#249=314,SD_BUFFER0#250=315,SD_BUFFER0#251=316
  013D                01672 VARIABLE SD_BUFFER0#252=317,SD_BUFFER0#253=318,SD_BUFFER0#254=319,SD_BUFFER0#255=320
  00000141            01673 SD_BUFFER1 = 321
  0141                01674 VARIABLE SD_BUFFER1#0=321,SD_BUFFER1#1=322,SD_BUFFER1#2=323,SD_BUFFER1#3=324
  0145                01675 VARIABLE SD_BUFFER1#4=325,SD_BUFFER1#5=326,SD_BUFFER1#6=327,SD_BUFFER1#7=328
  0149                01676 VARIABLE SD_BUFFER1#8=329,SD_BUFFER1#9=330,SD_BUFFER1#10=331,SD_BUFFER1#11=332
  014D                01677 VARIABLE SD_BUFFER1#12=333,SD_BUFFER1#13=334,SD_BUFFER1#14=335,SD_BUFFER1#15=336
  0151                01678 VARIABLE SD_BUFFER1#16=337,SD_BUFFER1#17=338,SD_BUFFER1#18=339,SD_BUFFER1#19=340
  0155                01679 VARIABLE SD_BUFFER1#20=341,SD_BUFFER1#21=342,SD_BUFFER1#22=343,SD_BUFFER1#23=344
  0159                01680 VARIABLE SD_BUFFER1#24=345,SD_BUFFER1#25=346,SD_BUFFER1#26=347,SD_BUFFER1#27=348
  015D                01681 VARIABLE SD_BUFFER1#28=349,SD_BUFFER1#29=350,SD_BUFFER1#30=351,SD_BUFFER1#31=352
  0161                01682 VARIABLE SD_BUFFER1#32=353,SD_BUFFER1#33=354,SD_BUFFER1#34=355,SD_BUFFER1#35=356
  0165                01683 VARIABLE SD_BUFFER1#36=357,SD_BUFFER1#37=358,SD_BUFFER1#38=359,SD_BUFFER1#39=360
  0169                01684 VARIABLE SD_BUFFER1#40=361,SD_BUFFER1#41=362,SD_BUFFER1#42=363,SD_BUFFER1#43=364
  016D                01685 VARIABLE SD_BUFFER1#44=365,SD_BUFFER1#45=366,SD_BUFFER1#46=367,SD_BUFFER1#47=368
  0171                01686 VARIABLE SD_BUFFER1#48=369,SD_BUFFER1#49=370,SD_BUFFER1#50=371,SD_BUFFER1#51=372
  0175                01687 VARIABLE SD_BUFFER1#52=373,SD_BUFFER1#53=374,SD_BUFFER1#54=375,SD_BUFFER1#55=376
  0179                01688 VARIABLE SD_BUFFER1#56=377,SD_BUFFER1#57=378,SD_BUFFER1#58=379,SD_BUFFER1#59=380
  017D                01689 VARIABLE SD_BUFFER1#60=381,SD_BUFFER1#61=382,SD_BUFFER1#62=383,SD_BUFFER1#63=384
  0181                01690 VARIABLE SD_BUFFER1#64=385,SD_BUFFER1#65=386,SD_BUFFER1#66=387,SD_BUFFER1#67=388
  0185                01691 VARIABLE SD_BUFFER1#68=389,SD_BUFFER1#69=390,SD_BUFFER1#70=391,SD_BUFFER1#71=392
  0189                01692 VARIABLE SD_BUFFER1#72=393,SD_BUFFER1#73=394,SD_BUFFER1#74=395,SD_BUFFER1#75=396
  018D                01693 VARIABLE SD_BUFFER1#76=397,SD_BUFFER1#77=398,SD_BUFFER1#78=399,SD_BUFFER1#79=400
  0191                01694 VARIABLE SD_BUFFER1#80=401,SD_BUFFER1#81=402,SD_BUFFER1#82=403,SD_BUFFER1#83=404
  0195                01695 VARIABLE SD_BUFFER1#84=405,SD_BUFFER1#85=406,SD_BUFFER1#86=407,SD_BUFFER1#87=408
  0199                01696 VARIABLE SD_BUFFER1#88=409,SD_BUFFER1#89=410,SD_BUFFER1#90=411,SD_BUFFER1#91=412
  019D                01697 VARIABLE SD_BUFFER1#92=413,SD_BUFFER1#93=414,SD_BUFFER1#94=415,SD_BUFFER1#95=416
  01A1                01698 VARIABLE SD_BUFFER1#96=417,SD_BUFFER1#97=418,SD_BUFFER1#98=419,SD_BUFFER1#99=420
  01A5                01699 VARIABLE SD_BUFFER1#100=421,SD_BUFFER1#101=422,SD_BUFFER1#102=423,SD_BUFFER1#103=424
  01A9                01700 VARIABLE SD_BUFFER1#104=425,SD_BUFFER1#105=426,SD_BUFFER1#106=427,SD_BUFFER1#107=428
  01AD                01701 VARIABLE SD_BUFFER1#108=429,SD_BUFFER1#109=430,SD_BUFFER1#110=431,SD_BUFFER1#111=432
  01B1                01702 VARIABLE SD_BUFFER1#112=433,SD_BUFFER1#113=434,SD_BUFFER1#114=435,SD_BUFFER1#115=436
  01B5                01703 VARIABLE SD_BUFFER1#116=437,SD_BUFFER1#117=438,SD_BUFFER1#118=439,SD_BUFFER1#119=440
  01B9                01704 VARIABLE SD_BUFFER1#120=441,SD_BUFFER1#121=442,SD_BUFFER1#122=443,SD_BUFFER1#123=444
  01BD                01705 VARIABLE SD_BUFFER1#124=445,SD_BUFFER1#125=446,SD_BUFFER1#126=447,SD_BUFFER1#127=448
  01C1                01706 VARIABLE SD_BUFFER1#128=449,SD_BUFFER1#129=450,SD_BUFFER1#130=451,SD_BUFFER1#131=452
  01C5                01707 VARIABLE SD_BUFFER1#132=453,SD_BUFFER1#133=454,SD_BUFFER1#134=455,SD_BUFFER1#135=456
  01C9                01708 VARIABLE SD_BUFFER1#136=457,SD_BUFFER1#137=458,SD_BUFFER1#138=459,SD_BUFFER1#139=460
  01CD                01709 VARIABLE SD_BUFFER1#140=461,SD_BUFFER1#141=462,SD_BUFFER1#142=463,SD_BUFFER1#143=464
  01D1                01710 VARIABLE SD_BUFFER1#144=465,SD_BUFFER1#145=466,SD_BUFFER1#146=467,SD_BUFFER1#147=468
  01D5                01711 VARIABLE SD_BUFFER1#148=469,SD_BUFFER1#149=470,SD_BUFFER1#150=471,SD_BUFFER1#151=472
  01D9                01712 VARIABLE SD_BUFFER1#152=473,SD_BUFFER1#153=474,SD_BUFFER1#154=475,SD_BUFFER1#155=476
  01DD                01713 VARIABLE SD_BUFFER1#156=477,SD_BUFFER1#157=478,SD_BUFFER1#158=479,SD_BUFFER1#159=480
  01E1                01714 VARIABLE SD_BUFFER1#160=481,SD_BUFFER1#161=482,SD_BUFFER1#162=483,SD_BUFFER1#163=484
  01E5                01715 VARIABLE SD_BUFFER1#164=485,SD_BUFFER1#165=486,SD_BUFFER1#166=487,SD_BUFFER1#167=488
  01E9                01716 VARIABLE SD_BUFFER1#168=489,SD_BUFFER1#169=490,SD_BUFFER1#170=491,SD_BUFFER1#171=492
  01ED                01717 VARIABLE SD_BUFFER1#172=493,SD_BUFFER1#173=494,SD_BUFFER1#174=495,SD_BUFFER1#175=496
  01F1                01718 VARIABLE SD_BUFFER1#176=497,SD_BUFFER1#177=498,SD_BUFFER1#178=499,SD_BUFFER1#179=500
  01F5                01719 VARIABLE SD_BUFFER1#180=501,SD_BUFFER1#181=502,SD_BUFFER1#182=503,SD_BUFFER1#183=504
  01F9                01720 VARIABLE SD_BUFFER1#184=505,SD_BUFFER1#185=506,SD_BUFFER1#186=507,SD_BUFFER1#187=508
  01FD                01721 VARIABLE SD_BUFFER1#188=509,SD_BUFFER1#189=510,SD_BUFFER1#190=511,SD_BUFFER1#191=512
  0201                01722 VARIABLE SD_BUFFER1#192=513,SD_BUFFER1#193=514,SD_BUFFER1#194=515,SD_BUFFER1#195=516
  0205                01723 VARIABLE SD_BUFFER1#196=517,SD_BUFFER1#197=518,SD_BUFFER1#198=519,SD_BUFFER1#199=520
  0209                01724 VARIABLE SD_BUFFER1#200=521,SD_BUFFER1#201=522,SD_BUFFER1#202=523,SD_BUFFER1#203=524
  020D                01725 VARIABLE SD_BUFFER1#204=525,SD_BUFFER1#205=526,SD_BUFFER1#206=527,SD_BUFFER1#207=528
  0211                01726 VARIABLE SD_BUFFER1#208=529,SD_BUFFER1#209=530,SD_BUFFER1#210=531,SD_BUFFER1#211=532
  0215                01727 VARIABLE SD_BUFFER1#212=533,SD_BUFFER1#213=534,SD_BUFFER1#214=535,SD_BUFFER1#215=536
  0219                01728 VARIABLE SD_BUFFER1#216=537,SD_BUFFER1#217=538,SD_BUFFER1#218=539,SD_BUFFER1#219=540
  021D                01729 VARIABLE SD_BUFFER1#220=541,SD_BUFFER1#221=542,SD_BUFFER1#222=543,SD_BUFFER1#223=544
  0221                01730 VARIABLE SD_BUFFER1#224=545,SD_BUFFER1#225=546,SD_BUFFER1#226=547,SD_BUFFER1#227=548
  0225                01731 VARIABLE SD_BUFFER1#228=549,SD_BUFFER1#229=550,SD_BUFFER1#230=551,SD_BUFFER1#231=552
  0229                01732 VARIABLE SD_BUFFER1#232=553,SD_BUFFER1#233=554,SD_BUFFER1#234=555,SD_BUFFER1#235=556
  022D                01733 VARIABLE SD_BUFFER1#236=557,SD_BUFFER1#237=558,SD_BUFFER1#238=559,SD_BUFFER1#239=560
  0231                01734 VARIABLE SD_BUFFER1#240=561,SD_BUFFER1#241=562,SD_BUFFER1#242=563,SD_BUFFER1#243=564
  0235                01735 VARIABLE SD_BUFFER1#244=565,SD_BUFFER1#245=566,SD_BUFFER1#246=567,SD_BUFFER1#247=568
  0239                01736 VARIABLE SD_BUFFER1#248=569,SD_BUFFER1#249=570,SD_BUFFER1#250=571,SD_BUFFER1#251=572
  023D                01737 VARIABLE SD_BUFFER1#252=573,SD_BUFFER1#253=574,SD_BUFFER1#254=575,SD_BUFFER1#255=576
  00000241            01738 SD_BYTE0 = 577
  00000242            01739 SD_BYTE1 = 578
  00000243            01740 SD_BYTE2 = 579
  00000244            01741 SD_BYTE3 = 580
  00000245            01742 SD_BYTE4 = 581
  00000246            01743 SD_BYTE5 = 582
  00000247            01744 SD_BUFFER_IDX = 583
  00000248            01745 SD_BUFFER_IDXH = 584
  00000249            01746 SD_BYTE_RW = 585
  0000024A            01747 SD_RW_OPTION = 586
  0000024B            01748 SD_EXTENDED_RETURN = 587
  0000024C            01749 SD_EXTENDED_RETURN_ROOT_DIR = 588
  0000024D            01750 SD_DATA_IO = 589
  0000024E            01751 SD_BUFFER_POS = 590
  0000024F            01752 SD_BUFFER_POSH = 591
  00000250            01753 SD_ROOT_DIR_FILE_POS = 592
  00000251            01754 SD_SEC_NUM = 593
  00000252            01755 SD_SEC_NUMH = 594
  00000253            01756 SD_SEC_NUMHH = 595
  00000254            01757 SD_SEC_NUMHHH = 596
  00000255            01758 SD_SECS_PER_CLUSTER = 597
  00000256            01759 SD_RESERVED_SECS = 598
  00000257            01760 SD_RESERVED_SECSH = 599
  00000258            01761 SD_SECS_PER_FAT = 600
  00000259            01762 SD_SECS_PER_FATH = 601
  0000025A            01763 SD_NUM_OF_FATS = 602
  0000025B            01764 SD_NUM_OF_SECS = 603
  0000025C            01765 SD_NUM_OF_SECSH = 604
  0000025D            01766 SD_NUM_OF_SECSHH = 605
  0000025E            01767 SD_NUM_OF_SECSHHH = 606
  0000025F            01768 SD_BYTES_PER_SEC = 607
  00000260            01769 SD_BYTES_PER_SECH = 608
  00000261            01770 SD_NUM_OF_ROOT_ENTRIES = 609
  00000262            01771 SD_NUM_OF_ROOT_ENTRIESH = 610
  00000263            01772 SD_SECS_IN_ROOT = 611
  00000264            01773 SD_SECS_IN_ROOTH = 612
  00000265            01774 SD_BOOT_RECORD = 613
  00000266            01775 SD_BOOT_RECORDH = 614
  00000267            01776 SD_FAT1 = 615
  00000268            01777 SD_FAT1H = 616
  00000269            01778 SD_FAT1HH = 617
  0000026A            01779 SD_FAT1HHH = 618
  0000026B            01780 SD_FAT2 = 619
  0000026C            01781 SD_FAT2H = 620
  0000026D            01782 SD_FAT2HH = 621
  0000026E            01783 SD_FAT2HHH = 622
  0000026F            01784 SD_ROOT_DIR = 623
  00000270            01785 SD_ROOT_DIRH = 624
  00000271            01786 SD_ROOT_DIRHH = 625
  00000272            01787 SD_ROOT_DIRHHH = 626
  00000273            01788 SD_DATA_AREA = 627
  00000274            01789 SD_DATA_AREAH = 628
  00000275            01790 SD_DATA_AREAHH = 629
  00000276            01791 SD_DATA_AREAHHH = 630
  00000277            01792 SD_FAT_ENTRY = 631
  00000278            01793 SD_FAT_ENTRYH = 632
  00000279            01794 SD_FAT_SEC = 633
  0000027A            01795 SD_FAT_SECH = 634
  0000027B            01796 SD_FAT_SECHH = 635
  0000027C            01797 SD_FAT_SECHHH = 636
  0000027D            01798 SD_FAT_BUFFER_POS = 637
  0000027E            01799 SD_FAT_BUFFER_POSH = 638
  0000027F            01800 SD_FAT_SEC_PREV = 639
  00000280            01801 SD_FAT_SEC_PREVH = 640
  00000281            01802 SD_FAT_SEC_PREVHH = 641
  00000282            01803 SD_FAT_SEC_PREVHHH = 642
  00000283            01804 SD_FAT_BUFFER_POS_PREV = 643
  00000284            01805 SD_FAT_BUFFER_POS_PREVH = 644
  00000285            01806 SD_ROOT_DIR_SEC = 645
  00000286            01807 SD_ROOT_DIR_SECH = 646
  00000287            01808 SD_ROOT_DIR_SECHH = 647
  00000288            01809 SD_ROOT_DIR_SECHHH = 648
  00000289            01810 SD_ROOT_DIR_POS = 649
  0000028A            01811 SD_ROOT_DIR_POSH = 650
  0000028B            01812 SD_DATA_SEC = 651
  0000028C            01813 SD_DATA_SECH = 652
  0000028D            01814 SD_DATA_SECHH = 653
  0000028E            01815 SD_DATA_SECHHH = 654
  0000028F            01816 SD_DATA_BUFFER_POS = 655
  00000290            01817 SD_DATA_BUFFER_POSH = 656
  00000291            01818 SD_FILE_NAME = 657
  0291                01819 VARIABLE SD_FILE_NAME#0=657,SD_FILE_NAME#1=658,SD_FILE_NAME#2=659,SD_FILE_NAME#3=660
  0295                01820 VARIABLE SD_FILE_NAME#4=661,SD_FILE_NAME#5=662,SD_FILE_NAME#6=663,SD_FILE_NAME#7=664
  0299                01821 VARIABLE SD_FILE_NAME#8=665
  0000029A            01822 SD_FILE_EXT = 666
  029A                01823 VARIABLE SD_FILE_EXT#0=666,SD_FILE_EXT#1=667,SD_FILE_EXT#2=668,SD_FILE_EXT#3=669
  0000029E            01824 SD_ROOT_DIR_FILE = 670
  029E                01825 VARIABLE SD_ROOT_DIR_FILE#0=670,SD_ROOT_DIR_FILE#1=671,SD_ROOT_DIR_FILE#2=672,SD_ROOT_DIR_FILE#3=673
  02A2                01826 VARIABLE SD_ROOT_DIR_FILE#4=674,SD_ROOT_DIR_FILE#5=675,SD_ROOT_DIR_FILE#6=676,SD_ROOT_DIR_FILE#7=677
  02A6                01827 VARIABLE SD_ROOT_DIR_FILE#8=678,SD_ROOT_DIR_FILE#9=679,SD_ROOT_DIR_FILE#10=680,SD_ROOT_DIR_FILE#11=681
  02AA                01828 VARIABLE SD_ROOT_DIR_FILE#12=682,SD_ROOT_DIR_FILE#13=683,SD_ROOT_DIR_FILE#14=684,SD_ROOT_DIR_FILE#15=685
  02AE                01829 VARIABLE SD_ROOT_DIR_FILE#16=686,SD_ROOT_DIR_FILE#17=687,SD_ROOT_DIR_FILE#18=688,SD_ROOT_DIR_FILE#19=689
  02B2                01830 VARIABLE SD_ROOT_DIR_FILE#20=690,SD_ROOT_DIR_FILE#21=691,SD_ROOT_DIR_FILE#22=692,SD_ROOT_DIR_FILE#23=693
  02B6                01831 VARIABLE SD_ROOT_DIR_FILE#24=694,SD_ROOT_DIR_FILE#25=695,SD_ROOT_DIR_FILE#26=696,SD_ROOT_DIR_FILE#27=697
  02BA                01832 VARIABLE SD_ROOT_DIR_FILE#28=698,SD_ROOT_DIR_FILE#29=699,SD_ROOT_DIR_FILE#30=700,SD_ROOT_DIR_FILE#31=701
  000002BE            01833 SD_WRITE_SEC_NUM = 702
  000002BF            01834 SD_WRITE_SEC_NUMH = 703
  000002C0            01835 SD_WRITE_SEC_NUMHH = 704
  000002C1            01836 SD_WRITE_SEC_NUMHHH = 705
  000002C2            01837 SD_WRITE_BUFFER_POS = 706
  000002C3            01838 SD_WRITE_BUFFER_POSH = 707
  000002C4            01839 SD_NULL_F = 708
  000002C5            01840 SD_CLUSTER_NUM = 709
  000002C6            01841 SD_CLUSTER_NUMH = 710
  000002C7            01842 SD_CLUSTER_NUM_PREV = 711
  000002C8            01843 SD_CLUSTER_NUM_PREVH = 712
  000002C9            01844 SD_LAST_CLUSTER = 713
  000002CA            01845 SD_LAST_CLUSTERH = 714
  000002CB            01846 SD_SEC_IN_CLUSTER = 715
  000002CC            01847 SD_FILE_SIZE = 716
  000002CD            01848 SD_FILE_SIZEH = 717
  000002CE            01849 SD_FILE_SIZEHH = 718
  000002CF            01850 SD_FILE_SIZEHHH = 719
  000002D0            01851 SD_IO_BYTE = 720
  000002D1            01852 SD_TEMP_BYTE = 721
  000002D2            01853 SD_TEMP = 722
  000002D3            01854 SD_TEMPH = 723
  000002D4            01855 SD_TEMP_DWORD = 724
  000002D5            01856 SD_TEMP_DWORDH = 725
  000002D6            01857 SD_TEMP_DWORDHH = 726
  000002D7            01858 SD_TEMP_DWORDHHH = 727
  000002D8            01859 SD_CLUSTER_SEQ_NUM = 728
  000002D9            01860 SD_CLUSTER_SEQ_NUMH = 729
  000002DA            01861 SD_CLUSTER_SEQ_IDX = 730
  000002DB            01862 SD_CLUSTER_SEQ_IDXH = 731
  000002DC            01863 SD_CLUSTER_SEQ_NUM_PREV = 732
  000002DD            01864 SD_CLUSTER_SEQ_NUM_PREVH = 733
  000002DE            01865 SD_CLUSTER_SEQ_IDX_PREV = 734
  000002DF            01866 SD_CLUSTER_SEQ_IDX_PREVH = 735
  000002E0            01867 SD_FIND_ROOT_DIR_ENTRY_F = 736
  000002E1            01868 SD_BYTES_READ = 737
  000002E2            01869 SD_BYTES_READH = 738
  000002E3            01870 SD_BYTES_READHH = 739
  000002E4            01871 SD_BYTES_READHHH = 740
  000002E5            01872 _B#VR1 = 741
  000002E6            01873 SD_FILE_NUM = 742
  000002E7            01874 SD_FILE_NUMH = 743
  000002E8            01875 SD_DIR_DIRECTION = 744
  000002E9            01876 SD_EXTENDED_RETURN_INT = 745
  000002EA            01877 SD_FILE_SIZE_LEFT = 746
  000002EB            01878 SD_FILE_SIZE_LEFTH = 747
  000002EC            01879 SD_FILE_SIZE_LEFTHH = 748
  000002ED            01880 SD_FILE_SIZE_LEFTHHH = 749
  000002EE            01881 SD_TIMEOUT = 750
  000002EF            01882 SD_DAY = 751
  000002F0            01883 SD_MONTH = 752
  000002F1            01884 SD_YEAR = 753
  000002F2            01885 SD_MSECONDS = 754
  000002F3            01886 SD_SECONDS = 755
  000002F4            01887 SD_MINUTES = 756
  000002F5            01888 SD_HOURS = 757
  000002F6            01889 SD_IS_DIRTY = 758
  000002F7            01890 SD_SSPSTAT = 759
  000002F8            01891 SD_RETURN_F = 760
  000002F9            01892 SD_IO_STRING_LENGTH = 761
  000002FA            01893 SD_IO_STRING_POS = 762
  000002FB            01894 SD_IO_STRING = 763
  02FB                01895 VARIABLE SD_IO_STRING#0=763,SD_IO_STRING#1=764,SD_IO_STRING#2=765,SD_IO_STRING#3=766
  02FF                01896 VARIABLE SD_IO_STRING#4=767,SD_IO_STRING#5=768,SD_IO_STRING#6=769,SD_IO_STRING#7=770
  0303                01897 VARIABLE SD_IO_STRING#8=771,SD_IO_STRING#9=772,SD_IO_STRING#10=773,SD_IO_STRING#11=774
  0307                01898 VARIABLE SD_IO_STRING#12=775,SD_IO_STRING#13=776,SD_IO_STRING#14=777,SD_IO_STRING#15=778
  030B                01899 VARIABLE SD_IO_STRING#16=779,SD_IO_STRING#17=780,SD_IO_STRING#18=781,SD_IO_STRING#19=782
  030F                01900 VARIABLE SD_IO_STRING#20=783,SD_IO_STRING#21=784,SD_IO_STRING#22=785,SD_IO_STRING#23=786
  0313                01901 VARIABLE SD_IO_STRING#24=787,SD_IO_STRING#25=788,SD_IO_STRING#26=789,SD_IO_STRING#27=790
  0317                01902 VARIABLE SD_IO_STRING#28=791,SD_IO_STRING#29=792,SD_IO_STRING#30=793,SD_IO_STRING#31=794
  031B                01903 VARIABLE SD_IO_STRING#32=795,SD_IO_STRING#33=796,SD_IO_STRING#34=797,SD_IO_STRING#35=798
  031F                01904 VARIABLE SD_IO_STRING#36=799,SD_IO_STRING#37=800,SD_IO_STRING#38=801,SD_IO_STRING#39=802
  0323                01905 VARIABLE SD_IO_STRING#40=803,SD_IO_STRING#41=804,SD_IO_STRING#42=805,SD_IO_STRING#43=806
  0327                01906 VARIABLE SD_IO_STRING#44=807,SD_IO_STRING#45=808,SD_IO_STRING#46=809,SD_IO_STRING#47=810
  032B                01907 VARIABLE SD_IO_STRING#48=811,SD_IO_STRING#49=812,SD_IO_STRING#50=813,SD_IO_STRING#51=814
  032F                01908 VARIABLE SD_IO_STRING#52=815,SD_IO_STRING#53=816,SD_IO_STRING#54=817,SD_IO_STRING#55=818
  0333                01909 VARIABLE SD_IO_STRING#56=819,SD_IO_STRING#57=820,SD_IO_STRING#58=821,SD_IO_STRING#59=822
  0337                01910 VARIABLE SD_IO_STRING#60=823,SD_IO_STRING#61=824,SD_IO_STRING#62=825,SD_IO_STRING#63=826
  033B                01911 VARIABLE SD_IO_STRING#64=827,SD_IO_STRING#65=828,SD_IO_STRING#66=829,SD_IO_STRING#67=830
  033F                01912 VARIABLE SD_IO_STRING#68=831,SD_IO_STRING#69=832,SD_IO_STRING#70=833,SD_IO_STRING#71=834
  0343                01913 VARIABLE SD_IO_STRING#72=835,SD_IO_STRING#73=836,SD_IO_STRING#74=837,SD_IO_STRING#75=838
  0347                01914 VARIABLE SD_IO_STRING#76=839,SD_IO_STRING#77=840,SD_IO_STRING#78=841,SD_IO_STRING#79=842
  034B                01915 VARIABLE SD_IO_STRING#80=843,SD_IO_STRING#81=844,SD_IO_STRING#82=845,SD_IO_STRING#83=846
  034F                01916 VARIABLE SD_IO_STRING#84=847,SD_IO_STRING#85=848,SD_IO_STRING#86=849,SD_IO_STRING#87=850
  0353                01917 VARIABLE SD_IO_STRING#88=851,SD_IO_STRING#89=852,SD_IO_STRING#90=853,SD_IO_STRING#91=854
  0357                01918 VARIABLE SD_IO_STRING#92=855,SD_IO_STRING#93=856,SD_IO_STRING#94=857,SD_IO_STRING#95=858
  035B                01919 VARIABLE SD_IO_STRING#96=859,SD_IO_STRING#97=860,SD_IO_STRING#98=861,SD_IO_STRING#99=862
  035F                01920 VARIABLE SD_IO_STRING#100=863,SD_IO_STRING#101=864,SD_IO_STRING#102=865,SD_IO_STRING#103=866
  0363                01921 VARIABLE SD_IO_STRING#104=867,SD_IO_STRING#105=868,SD_IO_STRING#106=869,SD_IO_STRING#107=870
  0367                01922 VARIABLE SD_IO_STRING#108=871,SD_IO_STRING#109=872,SD_IO_STRING#110=873,SD_IO_STRING#111=874
  036B                01923 VARIABLE SD_IO_STRING#112=875,SD_IO_STRING#113=876,SD_IO_STRING#114=877,SD_IO_STRING#115=878
  036F                01924 VARIABLE SD_IO_STRING#116=879,SD_IO_STRING#117=880,SD_IO_STRING#118=881,SD_IO_STRING#119=882
  0373                01925 VARIABLE SD_IO_STRING#120=883,SD_IO_STRING#121=884,SD_IO_STRING#122=885,SD_IO_STRING#123=886
  0377                01926 VARIABLE SD_IO_STRING#124=887,SD_IO_STRING#125=888,SD_IO_STRING#126=889,SD_IO_STRING#127=890
  037B                01927 VARIABLE SD_IO_STRING#128=891,SD_IO_STRING#129=892,SD_IO_STRING#130=893,SD_IO_STRING#131=894
  037F                01928 VARIABLE SD_IO_STRING#132=895,SD_IO_STRING#133=896,SD_IO_STRING#134=897,SD_IO_STRING#135=898
  0383                01929 VARIABLE SD_IO_STRING#136=899,SD_IO_STRING#137=900,SD_IO_STRING#138=901,SD_IO_STRING#139=902
  0387                01930 VARIABLE SD_IO_STRING#140=903,SD_IO_STRING#141=904,SD_IO_STRING#142=905,SD_IO_STRING#143=906
  038B                01931 VARIABLE SD_IO_STRING#144=907,SD_IO_STRING#145=908,SD_IO_STRING#146=909,SD_IO_STRING#147=910
  038F                01932 VARIABLE SD_IO_STRING#148=911,SD_IO_STRING#149=912,SD_IO_STRING#150=913,SD_IO_STRING#151=914
  0393                01933 VARIABLE SD_IO_STRING#152=915,SD_IO_STRING#153=916,SD_IO_STRING#154=917,SD_IO_STRING#155=918
  0397                01934 VARIABLE SD_IO_STRING#156=919,SD_IO_STRING#157=920,SD_IO_STRING#158=921,SD_IO_STRING#159=922
  039B                01935 VARIABLE SD_IO_STRING#160=923,SD_IO_STRING#161=924,SD_IO_STRING#162=925,SD_IO_STRING#163=926
  039F                01936 VARIABLE SD_IO_STRING#164=927,SD_IO_STRING#165=928,SD_IO_STRING#166=929,SD_IO_STRING#167=930
  03A3                01937 VARIABLE SD_IO_STRING#168=931,SD_IO_STRING#169=932,SD_IO_STRING#170=933,SD_IO_STRING#171=934
  03A7                01938 VARIABLE SD_IO_STRING#172=935,SD_IO_STRING#173=936,SD_IO_STRING#174=937,SD_IO_STRING#175=938
  03AB                01939 VARIABLE SD_IO_STRING#176=939,SD_IO_STRING#177=940,SD_IO_STRING#178=941,SD_IO_STRING#179=942
  03AF                01940 VARIABLE SD_IO_STRING#180=943,SD_IO_STRING#181=944,SD_IO_STRING#182=945,SD_IO_STRING#183=946
  03B3                01941 VARIABLE SD_IO_STRING#184=947,SD_IO_STRING#185=948,SD_IO_STRING#186=949,SD_IO_STRING#187=950
  03B7                01942 VARIABLE SD_IO_STRING#188=951,SD_IO_STRING#189=952,SD_IO_STRING#190=953,SD_IO_STRING#191=954
  03BB                01943 VARIABLE SD_IO_STRING#192=955,SD_IO_STRING#193=956,SD_IO_STRING#194=957,SD_IO_STRING#195=958
  03BF                01944 VARIABLE SD_IO_STRING#196=959,SD_IO_STRING#197=960,SD_IO_STRING#198=961,SD_IO_STRING#199=962
  03C3                01945 VARIABLE SD_IO_STRING#200=963
  000003C4            01946 USER_POINTER = 964
  000003C5            01947 USER_POINTERH = 965
  000003C6            01948 TAGIN = 966
  03C6                01949 VARIABLE TAGIN#0=966,TAGIN#1=967,TAGIN#2=968,TAGIN#3=969
  03CA                01950 VARIABLE TAGIN#4=970,TAGIN#5=971,TAGIN#6=972,TAGIN#7=973
  03CE                01951 VARIABLE TAGIN#8=974,TAGIN#9=975
  000003D0            01952 USERIN = 976
  03D0                01953 VARIABLE USERIN#0=976,USERIN#1=977,USERIN#2=978,USERIN#3=979
  000003D4            01954 UTAG = 980
  03D4                01955 VARIABLE UTAG#0=980,UTAG#1=981,UTAG#2=982,UTAG#3=983
  03D8                01956 VARIABLE UTAG#4=984,UTAG#5=985,UTAG#6=986,UTAG#7=987
  03DC                01957 VARIABLE UTAG#8=988,UTAG#9=989,UTAG#10=990,UTAG#11=991
  03E0                01958 VARIABLE UTAG#12=992,UTAG#13=993,UTAG#14=994,UTAG#15=995
  000003E4            01959 ETX = 996
  000003E5            01960 CHECKSUM = 997
  000003E6            01961 MODNUM = 998
  03E6                01962 VARIABLE MODNUM#0=998,MODNUM#1=999,MODNUM#2=1000,MODNUM#3=1001
  03EA                01963 VARIABLE MODNUM#4=1002,MODNUM#5=1003,MODNUM#6=1004
  000003ED            01964 RESPONSE = 1005
  000003EE            01965 SD_IO = 1006
  000003EF            01966 MYCOUNT = 1007
  000003F0            01967 INDEX = 1008
  000003F1            01968 INDEX2 = 1009
  000003F2            01969 TV1 = 1010
  000003F3            01970 WORD_VAR = 1011
  000003F4            01971 WORD_VARH = 1012
  000003F5            01972 MYNUM = 1013
  03F5                01973 VARIABLE MYNUM#0=1013,MYNUM#1=1014,MYNUM#2=1015,MYNUM#3=1016
                      01974 #DEFINE SD_CS PORTC,2
                      01975 #DEFINE SD_DI PORTC,5
                      01976 #DEFINE SD_CLK PORTC,3
                      01977 #DEFINE SD_DO PORTC,4
                      01978 #DEFINE SD_EOF _B#VR1,0
                      01979 #DEFINE SD_RW_PTR SD_BYTES_READ
                      01980 #DEFINE SD_RW_PTRH SD_BYTES_READH
                      01981 #DEFINE SD_RW_PTRHH SD_BYTES_READHH
                      01982 #DEFINE SD_RW_PTRHHH SD_BYTES_READHHH
                      01983 #DEFINE SD_FREE_CLUSTER_NUM SD_CLUSTER_SEQ_NUM
                      01984 #DEFINE SD_FREE_CLUSTER_NUMH SD_CLUSTER_SEQ_NUMH
                      01985 #DEFINE SD_FREE_SPACE_KB SD_BYTES_READ
                      01986 #DEFINE SD_FREE_SPACE_KBH SD_BYTES_READH
                      01987 #DEFINE SD_FREE_SPACE_KBHH SD_BYTES_READHH
                      01988 #DEFINE SD_FREE_SPACE_KBHHH SD_BYTES_READHHH
                      01989 #DEFINE SD_DISK_SIZE_KB SD_BYTES_READ
                      01990 #DEFINE SD_DISK_SIZE_KBH SD_BYTES_READH
                      01991 #DEFINE SD_DISK_SIZE_KBHH SD_BYTES_READHH
                      01992 #DEFINE SD_DISK_SIZE_KBHHH SD_BYTES_READHHH
                      01993 #DEFINE SD_SPI_BF SSPSTAT,0
                      01994 #DEFINE SD_SPI_IF PIR1,3
                      01995 #DEFINE __KEYPAD_PORT PORTB
                      01996 #DEFINE __LCD_DTPORT PORTD
                      01997 #DEFINE __LCD_ENPORT PORTD
                      01998 #DEFINE __LCD_RSPORT PORTD
                      01999 #DEFINE SD_DETECT PORTA,1
                      02000 #DEFINE RFIDENABLE PORTD,4
                      02001 #DEFINE FLAG _B#VR1,1
                      02002 #DEFINE SD_FIRST 0
                      02003 #DEFINE SD_NEXT 1
                      02004 #DEFINE SD_PREVIOUS 2
                      02005 #DEFINE SD_SPI_FOSC_64 2
                      02006 #DEFINE SD_SPI_FOSC_16 1
                      02007 #DEFINE SD_SPI_FOSC_04 0
                      02008 #DEFINE __XTAL 4
                      02009 #DEFINE __LCD_TYPE 0
                      02010 #DEFINE __LCD_DTPIN 0
                      02011 #DEFINE __LCD_ENPIN 6
                      02012 #DEFINE __LCD_RSPIN 7
                      02013 #DEFINE __LCD_INTERFACE 4
                      02014 #DEFINE __LCD_LINES 2
                      02015 #DEFINE __HSERIAL_BAUD 9600
                      02016 #DEFINE __HSERIAL_RCSTA 144
                      02017 #DEFINE __HSERIAL_TXSTA 32
                      02018 #DEFINE BUA 40016
                      02019 #DEFINE BUAH 156
                      02020 #DEFINE UPA_L 0
                      02021 #DEFINE UPA_H 1
                      02022 #DEFINE NOU 2
                      02023 #DEFINE NUM_UHE 3
                      02024 #DEFINE NUM_MHE 4
                      02025 #DEFINE TAGOFFSET 4
                      02026 #DEFINE UHA 16
                      02027 #DEFINE MHA 912
                      02028 #DEFINE MHAH 3
                      02029 #DEFINE NUM_UH 200
                      02030 #DEFINE NUM_MH 10
  00000006            02031 HSERIAL_SPBRG = 6
  00000020            02032 HSERIAL_TXSTA = 32
  00000090            02033 HSERIAL_RCSTA = 144
  00002580            02034 HSERIAL_BAUD = 9600
000000                02035 PROTON#CODE#START
000000                02036         ORG 0
000000 EFFB F002      02037         GOTO PROTON#MAIN#START
000008                02038         ORG 8
000008                02039 T@EB
000008 6A12           02040         CLRF 18
00000A                02041 T@EW
00000A 6A16           02042         CLRF 22
00000C                02043 T@E
00000C 6E15           02044         MOVWF 21
00000E 0E02           02045         MOVLW 2
000010 D002           02046         BRA T@ST
000012                02047 T@GE
000012 6E15           02048         MOVWF 21
000014 0E03           02049         MOVLW 3
000016                02050 T@ST
000016 6E07           02051         MOVWF 7
000018 5016           02052         MOVF 22,W
00001A 5C12           02053         SUBWF 18,W
00001C E102           02054         BNZ CN@EQ
00001E 5015           02055         MOVF 21,W
000020 5C11           02056         SUBWF 17,W
000022                02057 CN@EQ
000022 0E04           02058         MOVLW 4
000024 B0D8           02059         BTFSC 4056,0
000026 0E01           02060         MOVLW 1
000028 B4D8           02061         BTFSC 4056,2
00002A 0E02           02062         MOVLW 2
00002C 1407           02063         ANDWF 7,W
00002E A4D8           02064         BTFSS 4056,2
000030 0E01           02065         MOVLW 1
000032 0012           02066         RETURN
000034                02067 LCD@CLS
000034 0E80           02068         MOVLW 128
000036 6E01           02069         MOVWF 1
000038                02070 CLS
000038 0EFE           02071         MOVLW 254
00003A ECF2 F000      02072         CALL CH@SND
00003E 0E01           02073         MOVLW 1
000040 ECF2 F000      02074         CALL CH@SND
000044 0E75           02075         MOVLW 117
000046 6E12           02076         MOVWF 18
000048 0E30           02077         MOVLW 48
00004A EF32 F001      02078         GOTO DLUS@W
00004E                02079 LCD@CRS
00004E 6A01           02080         CLRF 1
000050 8E01           02081         BSF 1,7
000052                02082 CURS@
000052 6E20           02083         MOVWF 32
000054 0EFE           02084         MOVLW 254
000056 ECF2 F000      02085         CALL CH@SND
00005A 5020           02086         MOVF 32,W
00005C EFF2 F000      02087         GOTO CH@SND
000060                02088 OUT@DECB
000060 6A05           02089         CLRF 5
000062                02090 OUT@DECC
000062 6E19           02091         MOVWF 25
000064 6A1A           02092         CLRF 26
000066                02093 OUT@DEC
000066 9600           02094         BCF 0,3
000068 5005           02095         MOVF 5,W
00006A B4D8           02096         BTFSC 4056,2
00006C 8600           02097         BSF 0,3
00006E 0E05           02098         MOVLW 5
000070 6E04           02099         MOVWF 4
000072 0E27           02100         MOVLW 39
000074 6E16           02101         MOVWF 22
000076 0E10           02102         MOVLW 16
000078 D80C           02103         RCALL D@DIG
00007A 0E03           02104         MOVLW 3
00007C 6E16           02105         MOVWF 22
00007E 0EE8           02106         MOVLW 232
000080 D808           02107         RCALL D@DIG
000082 6A16           02108         CLRF 22
000084 0E64           02109         MOVLW 100
000086 D805           02110         RCALL D@DIG
000088 6A16           02111         CLRF 22
00008A 0E0A           02112         MOVLW 10
00008C D802           02113         RCALL D@DIG
00008E 5019           02114         MOVF 25,W
000090 D008           02115         BRA SEND@IT
000092                02116 D@DIG
000092 6E15           02117         MOVWF 21
000094 501A           02118         MOVF 26,W
000096 6E12           02119         MOVWF 18
000098 5019           02120         MOVF 25,W
00009A 6E11           02121         MOVWF 17
00009C ECA2 F001      02122         CALL D@VD
0000A0 5011           02123         MOVF 17,W
0000A2                02124 SEND@IT
0000A2 6E11           02125         MOVWF 17
0000A4 4E04           02126         DCFSNZ 4,F
0000A6 9600           02127         BCF 0,3
0000A8 5005           02128         MOVF 5,W
0000AA E003           02129         BZ $ + 8
0000AC 5C04           02130         SUBWF 4,W
0000AE B0D8           02131         BTFSC 4056,0
0000B0 D008           02132         BRA EX@SEND@IT
0000B2 5011           02133         MOVF 17,W
0000B4 A4D8           02134         BTFSS 4056,2
0000B6 9600           02135         BCF 0,3
0000B8 B600           02136         BTFSC 0,3
0000BA D003           02137         BRA EX@SEND@IT
0000BC 0F30           02138         ADDLW 48
0000BE EFF2 F000      02139         GOTO CH@SND
0000C2                02140 EX@SEND@IT
0000C2 0012           02141         RETURN
0000C4                02142 SB@STROUT
0000C4 6E19           02143         MOVWF 25
0000C6                02144 SB@STROUTLP
0000C6 5004           02145         MOVF 4,W
0000C8 B4D8           02146         BTFSC 4056,2
0000CA 0012           02147         RETURN
0000CC C019 FFE9      02148         MOVFF 25,4073
0000D0 C01A FFEA      02149         MOVFF 26,4074
0000D4 50EF           02150         MOVF 4079,W
0000D6 B4D8           02151         BTFSC 4056,2
0000D8 0012           02152         RETURN
0000DA ECF2 F000      02153         CALL CH@SND
0000DE 4A19           02154         INFSNZ 25,F
0000E0 2A1A           02155         INCF 26,F
0000E2 0604           02156         DECF 4,F
0000E4 D7F0           02157         BRA SB@STROUTLP
0000E6                02158 PRINT@MSTR
0000E6                02159 PRINT@MSTRL
0000E6 6AA6           02160         CLRF 4006
0000E8 8EA6           02161         BSF 4006,PP_EEPGD
0000EA                02162 PRT@MTL1
0000EA 0009           02163         TBLRD*+
0000EC 50F5           02164         MOVF 4085,W
0000EE E002           02165         BZ PRT@MTEXT
0000F0 D802           02166         RCALL PRINT
0000F2 D7FB           02167         BRA PRT@MTL1
0000F4                02168 PRT@MTEXT
0000F4 0012           02169         RETURN
0000F6                02170 PRINT
0000F6 6E1E           02171         MOVWF 30
0000F8 9C8C           02172         BCF LATD,6
0000FA 0000           02173         NOP
0000FC 9E8C           02174         BCF LATD,7
0000FE 9C95           02175         BCF TRISD,6
000100 9E95           02176         BCF TRISD,7
000102 0EF0           02177         MOVLW 240
000104 1695           02178         ANDWF TRISD,F
000106 501E           02179         MOVF 30,W
000108 B200           02180         BTFSC 0,1
00010A EFA9 F000      02181         GOTO PRT@1
00010E 0E3A           02182         MOVLW 58
000110 6E12           02183         MOVWF 18
000112 0E98           02184         MOVLW 152
000114 EC32 F001      02185         CALL DLUS@W
000118 0E33           02186         MOVLW 51
00011A 6E1D           02187         MOVWF 29
00011C D82E           02188         RCALL PR@LP
00011E 0E13           02189         MOVLW 19
000120 6E12           02190         MOVWF 18
000122 0E88           02191         MOVLW 136
000124 EC32 F001      02192         CALL DLUS@W
000128 D828           02193         RCALL PR@LP
00012A 0E64           02194         MOVLW 100
00012C EC31 F001      02195         CALL DL@US
000130 D824           02196         RCALL PR@LP
000132 0E64           02197         MOVLW 100
000134 EC31 F001      02198         CALL DL@US
000138 0E22           02199         MOVLW 34
00013A 6E1D           02200         MOVWF 29
00013C D81E           02201         RCALL PR@LP
00013E 0E28           02202         MOVLW 40
000140 D807           02203         RCALL PR@CM
000142 0E0C           02204         MOVLW 12
000144 D805           02205         RCALL PR@CM
000146 0E06           02206         MOVLW 6
000148 D803           02207         RCALL PR@CM
00014A 8200           02208         BSF 0,1
00014C 501E           02209         MOVF 30,W
00014E D001           02210         BRA PRT@1
000150                02211 PR@CM
000150 8000           02212         BSF 0,0
000152                02213 PRT@1
000152 6E1D           02214         MOVWF 29
000154 A000           02215         BTFSS 0,0
000156 D00B           02216         BRA PR@CC
000158 9E8C           02217         BCF LATD,7
00015A 0803           02218         SUBLW 3
00015C E30C           02219         BNC PR@SD
00015E D80B           02220         RCALL PR@SD
000160 0E07           02221         MOVLW 7
000162 6E12           02222         MOVWF 18
000164 0ED0           02223         MOVLW 208
000166 EC32 F001      02224         CALL DLUS@W
00016A 80D8           02225         BSF 4056,0
00016C 0012           02226         RETURN
00016E                02227 PR@CC
00016E 8000           02228         BSF 0,0
000170 08FE           02229         SUBLW 254
000172 E012           02230         BZ PR@EX
000174 8E8C           02231         BSF LATD,7
000176                02232 PR@SD
000176 3A1D           02233         SWAPF 29,F
000178 A000           02234         BTFSS 0,0
00017A                02235 PR@LP
00017A 9000           02236         BCF 0,0
00017C 8C8C           02237         BSF LATD,6
00017E 0EF0           02238         MOVLW 240
000180 1683           02239         ANDWF PORTD,F
000182 501D           02240         MOVF 29,W
000184 0B0F           02241         ANDLW 15
000186 1283           02242         IORWF PORTD,F
000188 9C8C           02243         BCF LATD,6
00018A 3A1D           02244         SWAPF 29,F
00018C B000           02245         BTFSC 0,0
00018E D7F5           02246         BRA PR@LP
000190 0E32           02247         MOVLW 50
000192 EC31 F001      02248         CALL DL@US
000196 80D8           02249         BSF 4056,0
000198                02250 PR@EX
000198 501E           02251         MOVF 30,W
00019A 0012           02252         RETURN
00019C                02253 HRSIN2
00019C B2AB           02254         BTFSC 4011,PP_OERR
00019E 98AB           02255         BCF 4011,PP_CREN
0001A0 88AB           02256         BSF 4011,PP_CREN
0001A2 C002 F011      02257         MOVFF 2,17
0001A6 C006 F012      02258         MOVFF 6,18
0001AA 6A15           02259         CLRF 21
0001AC 6A16           02260         CLRF 22
0001AE                02261 HRI@L0
0001AE 0000           02262         NOP
0001B0 D000           02263         BRA $ + 2
0001B2                02264 HRI@L
0001B2 0000           02265         NOP
0001B4 BA9E           02266         BTFSC 3998,PP_RCIF
0001B6 D013           02267         BRA H@RSIN
0001B8 68E8           02268         SETF 4072
0001BA 2615           02269         ADDWF 21,F
0001BC 2216           02270         ADDWFC 22,F
0001BE 2211           02271         ADDWFC 17,F
0001C0 2212           02272         ADDWFC 18,F
0001C2 A0D8           02273         BTFSS 4056,0
0001C4 0012           02274         RETURN
0001C6 4815           02275         INFSNZ 21,W
0001C8 3C16           02276         INCFSZ 22,W
0001CA D7F1           02277         BRA HRI@L0
0001CC 0E3D           02278         MOVLW 61
0001CE 6E15           02279         MOVWF 21
0001D0 6A16           02280         CLRF 22
0001D2 D7EF           02281         BRA HRI@L
0001D4                02282 HRSIN
0001D4 B2AB           02283         BTFSC 4011,PP_OERR
0001D6 98AB           02284         BCF 4011,PP_CREN
0001D8 88AB           02285         BSF 4011,PP_CREN
0001DA AA9E           02286         BTFSS 3998,PP_RCIF
0001DC D7FE           02287         BRA $ - 2
0001DE                02288 H@RSIN
0001DE 50AE           02289         MOVF 4014,W
0001E0 80D8           02290         BSF 4056,0
0001E2 0012           02291         RETURN
0001E4                02292 CH@SND
0001E4 BE01           02293         BTFSC 1,7
0001E6 EF7B F000      02294         GOTO PRINT
0001EA A201           02295         BTFSS 1,1
0001EC D005           02296         BRA $ + 12
0001EE B001           02297         BTFSC 1,0
0001F0 D003           02298         BRA $ + 8
0001F2 B201           02299         BTFSC 1,1
0001F4 6EEE           02300         MOVWF 4078
0001F6 0012           02301         RETURN
0001F8                02302 EE@RD
0001F8 6AAA           02303         CLRF 4010
0001FA 6EA9           02304         MOVWF 4009
0001FC                02305 EE@RD@W
0001FC 6AA6           02306         CLRF 4006
0001FE 80A6           02307         BSF 4006,PP_RD
000200 50A8           02308         MOVF 4008,W
000202 4AA9           02309         INFSNZ 4009,F
000204 2AAA           02310         INCF 4010,F
000206 0012           02311         RETURN
000208                02312 EE@WR
000208 6AAA           02313         CLRF 4010
00020A                02314 EE@WR@W
00020A 6EA8           02315         MOVWF 4008
00020C 6AA6           02316         CLRF 4006
00020E 84A6           02317         BSF 4006,PP_WREN
000210 0E55           02318         MOVLW 85
000212 6EA7           02319         MOVWF 4007
000214 0EAA           02320         MOVLW 170
000216 6EA7           02321         MOVWF 4007
000218 82A6           02322         BSF 4006,PP_WR
00021A B2A6           02323         BTFSC 4006,PP_WR
00021C D7FE           02324         BRA $ - 2
00021E 94A6           02325         BCF 4006,PP_WREN
000220 4AA9           02326         INFSNZ 4009,F
000222 2AAA           02327         INCF 4010,F
000224 0012           02328         RETURN
000226                02329 C@WRITE
000226 6EF5           02330         MOVWF 4085
000228 000C           02331         TBLWT*
00022A 28F6           02332         INCF 4086,W
00022C 0B07           02333         ANDLW 7
00022E E109           02334         BNZ CR@EXIT
000230 0E84           02335         MOVLW 132
000232 6EA6           02336         MOVWF 4006
000234 0E55           02337         MOVLW 85
000236 6EA7           02338         MOVWF 4007
000238 0EAA           02339         MOVLW 170
00023A 6EA7           02340         MOVWF 4007
00023C 82A6           02341         BSF 4006,PP_WR
00023E D000           02342         BRA $ + 2
000240 94A6           02343         BCF 4006,PP_WREN
000242                02344 CR@EXIT
000242 4AF6           02345         INFSNZ 4086,F
000244 2AF7           02346         INCF 4087,F
000246 0012           02347         RETURN
000248                02348 DL@MS
000248 6A16           02349         CLRF 22
00024A                02350 DLY@W
00024A 6E15           02351         MOVWF 21
00024C                02352 DLY@P
00024C 0EFF           02353         MOVLW 255
00024E 2615           02354         ADDWF 21,F
000250 2216           02355         ADDWFC 22,F
000252 D000           02356         BRA $ + 2
000254 A0D8           02357         BTFSS 4056,0
000256 0012           02358         RETURN
000258 0E03           02359         MOVLW 3
00025A 6E12           02360         MOVWF 18
00025C 0EDF           02361         MOVLW 223
00025E D802           02362         RCALL DLUS@W
000260 D7F5           02363         BRA DLY@P
000262                02364 DL@US
000262 6A12           02365         CLRF 18
000264                02366 DLUS@W
000264 0FE9           02367         ADDLW 233
000266 6E11           02368         MOVWF 17
000268 0EFC           02369         MOVLW 252
00026A E305           02370         BNC $ + 12
00026C 0000           02371         NOP
00026E 0000           02372         NOP
000270 2611           02373         ADDWF 17,F
000272 E2FD           02374         BC $ - 4
000274 0000           02375         NOP
000276 2611           02376         ADDWF 17,F
000278 0612           02377         DECF 18,F
00027A E2F9           02378         BC $ - 12
00027C B011           02379         BTFSC 17,0
00027E D000           02380         BRA $ + 2
000280 A211           02381         BTFSS 17,1
000282 D002           02382         BRA $ + 6
000284 D000           02383         BRA $ + 2
000286 0000           02384         NOP
000288 0012           02385         RETURN
00028A                02386 L@DIV
00028A                02387 L@MOD
00028A 5014           02388         MOVF 20,W
00028C 181C           02389         XORWF 28,W
00028E 0B80           02390         ANDLW 128
000290 6EF4           02391         MOVWF 4084
000292 AE14           02392         BTFSS 20,7
000294 D006           02393         BRA DIVS@32X32SKIP1
000296 80D8           02394         BSF 4056,0
000298 0E00           02395         MOVLW 0
00029A 5611           02396         SUBFWB 17,F
00029C 5612           02397         SUBFWB 18,F
00029E 5613           02398         SUBFWB 19,F
0002A0 5614           02399         SUBFWB 20,F
0002A2                02400 DIVS@32X32SKIP1
0002A2 AE1C           02401         BTFSS 28,7
0002A4 D006           02402         BRA DIVS@32X32SKIP2
0002A6 80D8           02403         BSF 4056,0
0002A8 0E00           02404         MOVLW 0
0002AA 5619           02405         SUBFWB 25,F
0002AC 561A           02406         SUBFWB 26,F
0002AE 561B           02407         SUBFWB 27,F
0002B0 561C           02408         SUBFWB 28,F
0002B2                02409 DIVS@32X32SKIP2
0002B2 6A15           02410         CLRF 21
0002B4 6A16           02411         CLRF 22
0002B6 6A17           02412         CLRF 23
0002B8 6A18           02413         CLRF 24
0002BA 6A29           02414         CLRF 41
0002BC 6A2A           02415         CLRF 42
0002BE 6A2B           02416         CLRF 43
0002C0 6A2C           02417         CLRF 44
0002C2 501C           02418         MOVF 28,W
0002C4 101B           02419         IORWF 27,W
0002C6 101A           02420         IORWF 26,W
0002C8 1019           02421         IORWF 25,W
0002CA E023           02422         BZ DIVS@32X32SKIP5
0002CC 0E20           02423         MOVLW 32
0002CE 6EF3           02424         MOVWF 4083
0002D0                02425 DIVS@32X32LOOP
0002D0 90D8           02426         BCF 4056,0
0002D2 3611           02427         RLCF 17,F
0002D4 3612           02428         RLCF 18,F
0002D6 3613           02429         RLCF 19,F
0002D8 3614           02430         RLCF 20,F
0002DA 3629           02431         RLCF 41,F
0002DC 362A           02432         RLCF 42,F
0002DE 362B           02433         RLCF 43,F
0002E0 362C           02434         RLCF 44,F
0002E2 5019           02435         MOVF 25,W
0002E4 5C29           02436         SUBWF 41,W
0002E6 501A           02437         MOVF 26,W
0002E8 582A           02438         SUBWFB 42,W
0002EA 501B           02439         MOVF 27,W
0002EC 582B           02440         SUBWFB 43,W
0002EE 501C           02441         MOVF 28,W
0002F0 582C           02442         SUBWFB 44,W
0002F2 E309           02443         BNC DIVS@32X32SKIP4
0002F4 5019           02444         MOVF 25,W
0002F6 5E29           02445         SUBWF 41,F
0002F8 501A           02446         MOVF 26,W
0002FA 5A2A           02447         SUBWFB 42,F
0002FC 501B           02448         MOVF 27,W
0002FE 5A2B           02449         SUBWFB 43,F
000300 501C           02450         MOVF 28,W
000302 5A2C           02451         SUBWFB 44,F
000304 80D8           02452         BSF 4056,0
000306                02453 DIVS@32X32SKIP4
000306 3615           02454         RLCF 21,F
000308 3616           02455         RLCF 22,F
00030A 3617           02456         RLCF 23,F
00030C 3618           02457         RLCF 24,F
00030E 2EF3           02458         DECFSZ 4083,F
000310 D7DF           02459         BRA DIVS@32X32LOOP
000312                02460 DIVS@32X32SKIP5
000312 AEF4           02461         BTFSS 4084,7
000314 D006           02462         BRA DIVS@32X32EXIT
000316 80D8           02463         BSF 4056,0
000318 0E00           02464         MOVLW 0
00031A 5615           02465         SUBFWB 21,F
00031C 5616           02466         SUBFWB 22,F
00031E 5617           02467         SUBFWB 23,F
000320 5618           02468         SUBFWB 24,F
000322                02469 DIVS@32X32EXIT
000322 C015 F011      02470         MOVFF 21,17
000326 C016 F012      02471         MOVFF 22,18
00032A C017 F013      02472         MOVFF 23,19
00032E C018 F014      02473         MOVFF 24,20
000332 C029 F019      02474         MOVFF 41,25
000336 C02A F01A      02475         MOVFF 42,26
00033A C02B F01B      02476         MOVFF 43,27
00033E C02C F01C      02477         MOVFF 44,28
000342 0012           02478         RETURN
000344                02479 D@VD
000344 6A1A           02480         CLRF 26
000346 6A19           02481         CLRF 25
000348                02482 D@VD2
000348 0E10           02483         MOVLW 16
00034A 6EF3           02484         MOVWF 4083
00034C                02485 DV@LP
00034C 3412           02486         RLCF 18,W
00034E 3619           02487         RLCF 25,F
000350 361A           02488         RLCF 26,F
000352 5015           02489         MOVF 21,W
000354 5C19           02490         SUBWF 25,W
000356 5016           02491         MOVF 22,W
000358 581A           02492         SUBWFB 26,W
00035A E305           02493         BNC D@K
00035C 5015           02494         MOVF 21,W
00035E 5E19           02495         SUBWF 25,F
000360 5016           02496         MOVF 22,W
000362 5A1A           02497         SUBWFB 26,F
000364 80D8           02498         BSF 4056,0
000366                02499 D@K
000366 3611           02500         RLCF 17,F
000368 3612           02501         RLCF 18,F
00036A 2EF3           02502         DECFSZ 4083,F
00036C D7EF           02503         BRA DV@LP
00036E 5011           02504         MOVF 17,W
000370 0012           02505         RETURN
000372                02506 AL@MUL
000372 C014 F02C      02507         MOVFF 20,44
000376 C013 F02B      02508         MOVFF 19,43
00037A C012 F02A      02509         MOVFF 18,42
00037E C011 F029      02510         MOVFF 17,41
000382 502B           02511         MOVF 43,W
000384 0219           02512         MULWF 25
000386 CFF3 F013      02513         MOVFF 4083,19
00038A CFF4 F014      02514         MOVFF 4084,20
00038E 502A           02515         MOVF 42,W
000390 021A           02516         MULWF 26
000392 50F3           02517         MOVF 4083,W
000394 2613           02518         ADDWF 19,F
000396 50F4           02519         MOVF 4084,W
000398 2214           02520         ADDWFC 20,F
00039A 5029           02521         MOVF 41,W
00039C 021B           02522         MULWF 27
00039E 50F3           02523         MOVF 4083,W
0003A0 2613           02524         ADDWF 19,F
0003A2 50F4           02525         MOVF 4084,W
0003A4 2214           02526         ADDWFC 20,F
0003A6 502C           02527         MOVF 44,W
0003A8 0219           02528         MULWF 25
0003AA 50F3           02529         MOVF 4083,W
0003AC 2614           02530         ADDWF 20,F
0003AE 502B           02531         MOVF 43,W
0003B0 021A           02532         MULWF 26
0003B2 50F3           02533         MOVF 4083,W
0003B4 2614           02534         ADDWF 20,F
0003B6 502A           02535         MOVF 42,W
0003B8 021B           02536         MULWF 27
0003BA 50F3           02537         MOVF 4083,W
0003BC 2614           02538         ADDWF 20,F
0003BE 5029           02539         MOVF 41,W
0003C0 021C           02540         MULWF 28
0003C2 50F3           02541         MOVF 4083,W
0003C4 2614           02542         ADDWF 20,F
0003C6 5029           02543         MOVF 41,W
0003C8 0219           02544         MULWF 25
0003CA CFF3 F011      02545         MOVFF 4083,17
0003CE CFF4 F012      02546         MOVFF 4084,18
0003D2 502A           02547         MOVF 42,W
0003D4 0219           02548         MULWF 25
0003D6 50F3           02549         MOVF 4083,W
0003D8 2612           02550         ADDWF 18,F
0003DA 50F4           02551         MOVF 4084,W
0003DC 2213           02552         ADDWFC 19,F
0003DE 0E00           02553         MOVLW 0
0003E0 2214           02554         ADDWFC 20,F
0003E2 5029           02555         MOVF 41,W
0003E4 021A           02556         MULWF 26
0003E6 50F3           02557         MOVF 4083,W
0003E8 2612           02558         ADDWF 18,F
0003EA 50F4           02559         MOVF 4084,W
0003EC 2213           02560         ADDWFC 19,F
0003EE 0E00           02561         MOVLW 0
0003F0 2214           02562         ADDWFC 20,F
0003F2 0012           02563         RETURN
0003F4                02564 LOAD@MSTR
0003F4                02565 LOAD@MSTRL
0003F4 6AA6           02566         CLRF 4006
0003F6 8EA6           02567         BSF 4006,PP_EEPGD
0003F8 0009           02568         TBLRD*+
0003FA 50F5           02569         MOVF 4085,W
0003FC E002           02570         BZ $ + 6
0003FE 6EEE           02571         MOVWF 4078
000400 D7FB           02572         BRA $ - 8
000402 0012           02573         RETURN
000404                02574 INT@3232
000404 C00E F031      02575         MOVFF 14,49
000408 0E7F           02576         MOVLW 127
00040A 5C0D           02577         SUBWF 13,W
00040C 6E30           02578         MOVWF 48
00040E E33F           02579         BNC FTO@I_RES0
000410 8E0E           02580         BSF 14,7
000412 6A0D           02581         CLRF 13
000414 6A29           02582         CLRF 41
000416 0817           02583         SUBLW 23
000418 6E30           02584         MOVWF 48
00041A E20B           02585         BC FTO@I_1
00041C 0E08           02586         MOVLW 8
00041E 2630           02587         ADDWF 48,F
000420 E338           02588         BNC FTO@I_OVERFLOW
000422 C00E F00D      02589         MOVFF 14,13
000426 C00F F00E      02590         MOVFF 15,14
00042A C010 F00F      02591         MOVFF 16,15
00042E 6A10           02592         CLRF 16
000430 D00C           02593         BRA FTO@I_3
000432                02594 FTO@I_1
000432 0E08           02595         MOVLW 8
000434 5E30           02596         SUBWF 48,F
000436 E308           02597         BNC FTO@I_2
000438 C010 F029      02598         MOVFF 16,41
00043C C00F F010      02599         MOVFF 15,16
000440 C00E F00F      02600         MOVFF 14,15
000444 6A0E           02601         CLRF 14
000446 D7F5           02602         BRA FTO@I_1
000448                02603 FTO@I_2
000448 2630           02604         ADDWF 48,F
00044A                02605 FTO@I_3
00044A 5230           02606         MOVF 48,F
00044C E008           02607         BZ FTO@I_5
00044E                02608 FTO@I_4
00044E 90D8           02609         BCF 4056,0
000450 320D           02610         RRCF 13,F
000452 320E           02611         RRCF 14,F
000454 320F           02612         RRCF 15,F
000456 3210           02613         RRCF 16,F
000458 3229           02614         RRCF 41,F
00045A 2E30           02615         DECFSZ 48,F
00045C D7F8           02616         BRA FTO@I_4
00045E                02617 FTO@I_5
00045E BE0D           02618         BTFSC 13,7
000460 D018           02619         BRA FTO@I_OVERFLOW
000462 AC2F           02620         BTFSS 47,6
000464 D00B           02621         BRA FTO@I_6
000466 AE29           02622         BTFSS 41,7
000468 D009           02623         BRA FTO@I_6
00046A 3E10           02624         INCFSZ 16,F
00046C D007           02625         BRA FTO@I_6
00046E 3E0F           02626         INCFSZ 15,F
000470 D005           02627         BRA FTO@I_6
000472 3E0E           02628         INCFSZ 14,F
000474 D003           02629         BRA FTO@I_6
000476 2A0E           02630         INCF 14,F
000478 BE0D           02631         BTFSC 13,7
00047A D00B           02632         BRA FTO@I_OVERFLOW
00047C                02633 FTO@I_6
00047C AE31           02634         BTFSS 49,7
00047E D010           02635         BRA FTO@I_RET
000480 80D8           02636         BSF 4056,0
000482 0E00           02637         MOVLW 0
000484 5610           02638         SUBFWB 16,F
000486 560F           02639         SUBFWB 15,F
000488 560E           02640         SUBFWB 14,F
00048A 560D           02641         SUBFWB 13,F
00048C D009           02642         BRA FTO@I_RET
00048E                02643 FTO@I_RES0
00048E 0E00           02644         MOVLW 0
000490 D002           02645         BRA FTO@I_ASSIGNW
000492                02646 FTO@I_OVERFLOW
000492 822F           02647         BSF 47,1
000494 0EFF           02648         MOVLW 255
000496                02649 FTO@I_ASSIGNW
000496 6E0D           02650         MOVWF 13
000498 6E0E           02651         MOVWF 14
00049A 6E0F           02652         MOVWF 15
00049C 6E10           02653         MOVWF 16
00049E 9E0D           02654         BCF 13,7
0004A0                02655 FTO@I_RET
0004A0 5010           02656         MOVF 16,W
0004A2 0012           02657         RETURN
0004A4                02658 STR@LB1
0004A4 2020 2020 2020 02659         DB 32,32,32,32,32,32,32,32,0
       2020 0000 
0004AE                02660 STR@LB2
0004AE 6544 6574 7463 02661         DB 68,101,116,101,99,116,101,100,33,0
       6465 0021 
0004B8                02662 STR@LB3
0004B8 6843 6365 696B 02663         DB 67,104,101,99,107,105,110,103,32,84,65,71,0
       676E 5420 4741 
       0000 
0004C6                02664 STR@LB4
0004C6 6F47 2074 2061 02665         DB 71,111,116,32,97,32,109,97,116,99,104,0
       616D 6374 0068 
0004D2                02666 STR@LB5
0004D2 6948 7473 726F 02667         DB 72,105,115,116,111,114,121,32,68,79,78,69,33,0
       2079 4F44 454E 
       0021 
0004E0                02668 STR@LB6
0004E0 6F4E 4D20 7461 02669         DB 78,111,32,77,97,116,99,104,0
       6863 0000 
0004EA                02670 STR@LB7
0004EA 5441 4554 504D 02671         DB 65,84,84,69,77,80,84,73,78,71,32,84,79,0
       4954 474E 5420 
       004F 
0004F8                02672 STR@LB8
0004F8 4552 4441 5420 02673         DB 82,69,65,68,32,84,65,71,46,46,46,46,0
       4741 2E2E 2E2E 
       0000 
000506                02674 STR@LB9
000506 6854 6E61 206B 02675         DB 84,104,97,110,107,32,89,111,117,0
       6F59 0075 
000510                02676 STR@LB10
000510 6F4E 5420 6761 02677         DB 78,111,32,84,97,103,32,68,101,116,101,99,116,101,100,0
       4420 7465 6365 
       6574 0064 
000520                02678 STR@LB11
000520 6946 656C 6E20 02679         DB 70,105,108,101,32,110,111,116,32,102,111,117,110,100,0
       746F 6620 756F 
       646E 0000 
000530                02680 STR@LB12
000530 6F4E 3520 2045 02681         DB 78,111,32,53,69,32,40,94,41,0
       5E28 0029 
00053A                02682 STR@LB13
00053A 7453 706F 6570 02683         DB 83,116,111,112,112,101,100,33,0
       2164 0000 
000544                02684 STR@LB14
000544 205E 7250 626F 02685         DB 94,32,80,114,111,98,108,101,109,46,46,0
       656C 2E6D 002E 
000550                02686 STR@LB15
000550 6F4E 3320 2041 02687         DB 78,111,32,51,65,32,40,58,41,46,46,0
       3A28 2E29 002E 
00055C                02688 STR@LB16
00055C 7453 706F 6570 02689         DB 83,116,111,112,112,101,100,33,0
       2164 0000 
000566                02690 STR@LB17
000566 6946 656C 6E20 02691         DB 70,105,108,101,32,110,111,116,32,102,111,117,110,100,0
       746F 6620 756F 
       646E 0000 
000576                02692 STR@LB18
000576 6F4E 4920 696E 02693         DB 78,111,32,73,110,105,116,33,0
       2174 0000 
000580                02694 STR@LB19
000580 6F4E 5520 6573 02695         DB 78,111,32,85,115,101,114,115,0
       7372 0000 
00058A                02696 STR@LB20
00058A 614D 616E 6567 02697         DB 77,97,110,97,103,101,114,32,68,111,110,101,0
       2072 6F44 656E 
       0000 
000598                02698 STR@LB21
000598 6F4E 4D20 6E61 02699         DB 78,111,32,77,97,110,97,103,101,114,32,72,105,115,116,111,114,121,0
       6761 7265 4820 
       7369 6F74 7972 
       0000 
0005AC                02700 STR@LB22
0005AC 6F4E 5520 6573 02701         DB 78,111,32,85,115,101,114,115,0
       7372 0000 
0005B6                02702 STR@LB23
0005B6 6F4E 5520 6573 02703         DB 78,111,32,85,115,101,114,115,32,69,120,105,115,116,0
       7372 4520 6978 
       7473 0000 
0005C6                02704 STR@LB24
0005C6 6F44 656E 5520 02705         DB 68,111,110,101,32,85,115,101,114,115,0
       6573 7372 0000 
0005D2                02706 STR@LB25
0005D2 6F47 6E69 2067 02707         DB 71,111,105,110,103,32,116,111,32,115,108,101,101,112,46,46,0
       6F74 7320 656C 
       7065 2E2E 0000 
0005E4                02708 STR@LB26
0005E4 2049 756A 7473 02709         DB 73,32,106,117,115,116,32,119,111,107,101,32,117,112,33,33,0
       7720 6B6F 2065 
       7075 2121 0000 
0005F6                02710 PROTON#MAIN#START
0005F6 6AF8           02711         CLRF 4088
0005F8 0E40           02712         MOVLW 64
0005FA 6E2F           02713         MOVWF 47
0005FC 6A00           02714         CLRF 0
0005FE 0E06           02715         MOVLW 6
000600 6EAF           02716         MOVWF 4015
000602 0E20           02717         MOVLW 32
000604 6EAC           02718         MOVWF 4012
000606 0E90           02719         MOVLW 144
000608 6EAB           02720         MOVWF 4011
  0000060A            02722 F2_SOF EQU $ ; V4.0 RFID 2ND GENERATION.PRP
  0000060A            02723 F3_SOF EQU $ ; V4.0 RFID 2ND GENERATION_FWD.PBP
  0000060A            02724 F3_EOF EQU $ ; V4.0 RFID 2ND GENERATION_FWD.PBP
  0000060A            02725 F4_SOF EQU $ ; V4.0 RFID 2ND GENERATION_LIB.PBP
  0000060A            02726 F4_000001 EQU $ ; IN [V4.0 RFID 2ND GENERATION_LIB.PBP] GOTO OVERLIBCODE
                      02727         F@JUMP OVERLIBCODE
00060E                02728 SD_WRITE_SUB
  0000060E            02729 F4_000109 EQU $ ; IN [V4.0 RFID 2ND GENERATION_LIB.PBP] IF SD_BUFFER_IDX > $FF THEN
00060E 0E01           02730         MOVLW 1
000610 0102           02731         MOVLB 2
  00000002            02732 RAM_BANK = 2
000612 5D48           02733         SUBWF SD_BUFFER_IDXH,W
000614 0100           02734         MOVLB 0
  00000000            02735 RAM_BANK = 0
000616 A0D8           02736         BTFSS STATUS,0,0
                      02737         GO@TO BC@LL2
  0000061C            02738 F4_000110 EQU $ ; IN [V4.0 RFID 2ND GENERATION_LIB.PBP] SD_BUFFER1[SD_BUFFER_IDX - $100] = SD_BYTE_RW
00061C 0102           02739         MOVLB 2
  00000002            02740 RAM_BANK = 2
00061E 5147           02741         MOVF SD_BUFFER_IDX,W
000620 EE01 F041      02742         LFSR 0,SD_BUFFER1
000624 26E9           02743         ADDWF FSR0L,F,0
000626 0E00           02744         MOVLW 0
000628 22EA           02745         ADDWFC FSR0H,F,0
00062A C249 FFEF      02746         MOVFF SD_BYTE_RW,INDF0
00062E 0100           02747         MOVLB 0
  00000000            02748 RAM_BANK = 0
                      02749         F@JUMP BC@LL3
000634                02750 BC@LL2
  00000634            02751 F4_000111 EQU $ ; IN [V4.0 RFID 2ND GENERATION_LIB.PBP] ELSE
  00000634            02752 F4_000112 EQU $ ; IN [V4.0 RFID 2ND GENERATION_LIB.PBP] SD_BUFFER0[SD_BUFFER_IDX] = SD_BYTE_RW
000634 EE00 F041      02753         LFSR 0,SD_BUFFER0
000638 0102           02754         MOVLB 2
  00000002            02755 RAM_BANK = 2
00063A 5147           02756         MOVF SD_BUFFER_IDX,W
00063C 26E9           02757         ADDWF FSR0L,F,0
00063E 0E00           02758         MOVLW 0
000640 22EA           02759         ADDWFC FSR0H,F,0
000642 C249 FFEF      02760         MOVFF SD_BYTE_RW,INDF0
  00000646            02761 F4_000113 EQU $ ; IN [V4.0 RFID 2ND GENERATION_LIB.PBP] ENDIF
000646                02762 BC@LL3
000646 0100           02763         MOVLB 0
  00000000            02764 RAM_BANK = 0
  00000648            02765 F4_000114 EQU $ ; IN [V4.0 RFID 2ND GENERATION_LIB.PBP] SD_IS_DIRTY = 1
000648 0E01           02766         MOVLW 1
00064A 0102           02767         MOVLB 2
  00000002            02768 RAM_BANK = 2
00064C 6FF6           02769         MOVWF SD_IS_DIRTY
  0000064E            02770 F4_000115 EQU $ ; IN [V4.0 RFID 2ND GENERATION_LIB.PBP] IF SD_BUFFER_IDX = $1FF THEN
00064E 2947           02771         INCF SD_BUFFER_IDX,W
000650 0E01           02772         MOVLW 1
000652 B4D8           02773         BTFSC STATUS,2,0
000654 1948           02774         XORWF SD_BUFFER_IDXH,W
000656 0100           02775         MOVLB 0
  00000000            02776 RAM_BANK = 0
000658 A4D8           02777         BTFSS STATUS,2,0
                      02778         GO@TO BC@LL5
  0000065E            02779 F4_000116 EQU $ ; IN [V4.0 RFID 2ND GENERATION_LIB.PBP] REPEAT
00065E                02780 BC@LL6
  0000065E            02781 F4_000117 EQU $ ; IN [V4.0 RFID 2ND GENERATION_LIB.PBP] GOSUB SD_WRITE_SECTOR
                      02782         F@CALL SD_WRITE_SECTOR
  00000662            02783 F4_000118 EQU $ ; IN [V4.0 RFID 2ND GENERATION_LIB.PBP] UNTIL SD_RETURN = 0
000662 5240           02784         MOVF SD_RETURN,F,0
000664 A4D8           02785         BTFSS STATUS,2,0
                      02786         GO@TO BC@LL6
000668                02787 BC@LL7
  00000668            02788 F4_000119 EQU $ ; IN [V4.0 RFID 2ND GENERATION_LIB.PBP] SD_IS_DIRTY = 0
000668 0102           02789         MOVLB 2
  00000002            02790 RAM_BANK = 2
00066A 6BF6           02791         CLRF SD_IS_DIRTY
  0000066C            02792 F4_000120 EQU $ ; IN [V4.0 RFID 2ND GENERATION_LIB.PBP] SD_BUFFER_IDX = 0
00066C 6B48           02793         CLRF SD_BUFFER_IDXH
00066E 6B47           02794         CLRF SD_BUFFER_IDX
  00000670            02795 F4_000121 EQU $ ; IN [V4.0 RFID 2ND GENERATION_LIB.PBP] INC SD_SECTOR_NUM
000670 2A34           02796         INCF SD_SECTOR_NUM,F,0
000672 0E00           02797         MOVLW 0
000674 2235           02798         ADDWFC SD_SECTOR_NUMH,F,0
000676 2236           02799         ADDWFC SD_SECTOR_NUMHH,F,0
000678 2237           02800         ADDWFC SD_SECTOR_NUMHHH,F,0
00067A 0100           02801         MOVLB 0
  00000000            02802 RAM_BANK = 0
                      02803         F@JUMP BC@LL8
000680                02804 BC@LL5
  00000680            02805 F4_000122 EQU $ ; IN [V4.0 RFID 2ND GENERATION_LIB.PBP] ELSE
  00000680            02806 F4_000123 EQU $ ; IN [V4.0 RFID 2ND GENERATION_LIB.PBP] SD_BUFFER_IDX = SD_BUFFER_IDX + 1
000680 0102           02807         MOVLB 2
  00000002            02808 RAM_BANK = 2
000682 4B47           02809         INFSNZ SD_BUFFER_IDX,F
000684 2B48           02810         INCF SD_BUFFER_IDXH,F
  00000686            02811 F4_000124 EQU $ ; IN [V4.0 RFID 2ND GENERATION_LIB.PBP] ENDIF
000686                02812 BC@LL8
000686 0100           02813         MOVLB 0
  00000000            02814 RAM_BANK = 0
  00000688            02815 F4_000125 EQU $ ; IN [V4.0 RFID 2ND GENERATION_LIB.PBP] RETURN
000688 0012           02816         RETURN 0
00068A                02817 SD_SECTOR_SUB
  0000068A            02818 F4_000128 EQU $ ; IN [V4.0 RFID 2ND GENERATION_LIB.PBP] SD_BUFFER_IDX = 0
00068A 0102           02819         MOVLB 2
  00000002            02820 RAM_BANK = 2
00068C 6B48           02821         CLRF SD_BUFFER_IDXH
00068E 6B47           02822         CLRF SD_BUFFER_IDX
  00000690            02823 F4_000129 EQU $ ; IN [V4.0 RFID 2ND GENERATION_LIB.PBP] IF SD_RW_OPTION = 0 THEN
000690 534A           02824         MOVF SD_RW_OPTION,F
000692 0100           02825         MOVLB 0
  00000000            02826 RAM_BANK = 0
000694 A4D8           02827         BTFSS STATUS,2,0
                      02828         GO@TO BC@LL10
  0000069A            02829 F4_000130 EQU $ ; IN [V4.0 RFID 2ND GENERATION_LIB.PBP] FOR SD_IDX = 0 TO $FF
00069A 6A33           02830         CLRF SD_IDX,0
00069C                02831 FR@LB12
  0000069C            02832 F4_000131 EQU $ ; IN [V4.0 RFID 2ND GENERATION_LIB.PBP] SD_BUFFER0[SD_IDX] = 0
00069C EE00 F041      02833         LFSR 0,SD_BUFFER0
0006A0 5033           02834         MOVF SD_IDX,W,0
0006A2 26E9           02835         ADDWF FSR0L,F,0
0006A4 0E00           02836         MOVLW 0
0006A6 22EA           02837         ADDWFC FSR0H,F,0
0006A8 6AEF           02838         CLRF INDF0,0
  000006AA            02839 F4_000132 EQU $ ; IN [V4.0 RFID 2ND GENERATION_LIB.PBP] SD_BUFFER1[SD_IDX] = 0
0006AA EE01 F041      02840         LFSR 0,SD_BUFFER1
0006AE 5033           02841         MOVF SD_IDX,W,0
0006B0 26E9           02842         ADDWF FSR0L,F,0
0006B2 0E00           02843         MOVLW 0
0006B4 22EA           02844         ADDWFC FSR0H,F,0
0006B6 6AEF           02845         CLRF INDF0,0
  000006B8            02846 F4_000133 EQU $ ; IN [V4.0 RFID 2ND GENERATION_LIB.PBP] NEXT SD_IDX
0006B8 2A33           02847         INCF SD_IDX,F,0
0006BA A4D8           02848         BTFSS STATUS,2,0
                      02849         GO@TO FR@LB12
0006BE                02850 NX@LB13
                      02851         F@JUMP BC@LL13
0006C2                02852 BC@LL10
  000006C2            02853 F4_000134 EQU $ ; IN [V4.0 RFID 2ND GENERATION_LIB.PBP] ELSE
  000006C2            02854 F4_000135 EQU $ ; IN [V4.0 RFID 2ND GENERATION_LIB.PBP] GOSUB SD_READ_SECTOR
                      02855         F@CALL SD_READ_SECTOR
  000006C6            02856 F4_000136 EQU $ ; IN [V4.0 RFID 2ND GENERATION_LIB.PBP] ENDIF
0006C6                02857 BC@LL13
  000006C6            02858 F4_000137 EQU $ ; IN [V4.0 RFID 2ND GENERATION_LIB.PBP] RETURN
0006C6 0012           02859         RETURN 0
0006C8                02860 SD_SEEK_RESPONSE
  000006C8            02861 F4_000151 EQU $ ; IN [V4.0 RFID 2ND GENERATION_LIB.PBP] REPEAT
0006C8                02862 BC@LL14
  000006C8            02863 F4_000152 EQU $ ; IN [V4.0 RFID 2ND GENERATION_LIB.PBP] GOSUB SD_RECEIVE_BYTE
                      02864         F@CALL SD_RECEIVE_BYTE
  000006CC            02865 F4_000153 EQU $ ; IN [V4.0 RFID 2ND GENERATION_LIB.PBP] DEC SD_SEEK_RESPONSE_IDX
0006CC 063C           02866         DECF SD_SEEK_RESPONSE_IDX,F,0
0006CE 0E00           02867         MOVLW 0
0006D0 5A3D           02868         SUBWFB SD_SEEK_RESPONSE_IDXH,F,0
  000006D2            02869 F4_000154 EQU $ ; IN [V4.0 RFID 2ND GENERATION_LIB.PBP] UNTIL SD_BYTER = SD_SEEK_RESPONSE_REQD OR SD_SEEK_RESPONSE_IDX = 0
0006D2 C032 F011      02870         MOVFF SD_BYTER,PP0
0006D6 503E           02871         MOVF SD_SEEK_RESPONSE_REQD,W,0
                      02872         F@CALL T@EB
0006DC 6E2D           02873         MOVWF SP#P9,0
0006DE 503D           02874         MOVF SD_SEEK_RESPONSE_IDXH,W,0
0006E0 103C           02875         IORWF SD_SEEK_RESPONSE_IDX,W,0
0006E2 B4D8           02876         BTFSC STATUS,2,0
                      02877         GO@TO CP@LB4
0006E8 0E00           02878         MOVLW 0
0006EA D001           02879         BRA $ + 4
0006EC                02880 CP@LB4
0006EC 0E01           02881         MOVLW 1
0006EE 122D           02882         IORWF SP#P9,F,0
0006F0 B4D8           02883         BTFSC STATUS,2,0
                      02884         GO@TO BC@LL14
0006F4                02885 BC@LL15
  000006F4            02886 F4_000155 EQU $ ; IN [V4.0 RFID 2ND GENERATION_LIB.PBP] IF SD_SEEK_RESPONSE_IDX = 0 THEN
0006F4 503D           02887         MOVF SD_SEEK_RESPONSE_IDXH,W,0
0006F6 103C           02888         IORWF SD_SEEK_RESPONSE_IDX,W,0
0006F8 A4D8           02889         BTFSS STATUS,2,0
                      02890         GO@TO BC@LL17
  000006FE            02891 F4_000156 EQU $ ; IN [V4.0 RFID 2ND GENERATION_LIB.PBP] SD_SEEK_RESPONSE_RETURN = 1
0006FE 0E01           02892         MOVLW 1
000700 6E3F           02893         MOVWF SD_SEEK_RESPONSE_RETURN,0
                      02894         F@JUMP BC@LL18
000706                02895 BC@LL17
  00000706            02896 F4_000157 EQU $ ; IN [V4.0 RFID 2ND GENERATION_LIB.PBP] ELSE
  00000706            02897 F4_000158 EQU $ ; IN [V4.0 RFID 2ND GENERATION_LIB.PBP] SD_SEEK_RESPONSE_RETURN = 0
000706 6A3F           02898         CLRF SD_SEEK_RESPONSE_RETURN,0
  00000708            02899 F4_000159 EQU $ ; IN [V4.0 RFID 2ND GENERATION_LIB.PBP] ENDIF
000708                02900 BC@LL18
  00000708            02901 F4_000160 EQU $ ; IN [V4.0 RFID 2ND GENERATION_LIB.PBP] RETURN
000708 0012           02902         RETURN 0
00070A                02903 SD_WRITE_SECTOR
  0000070A            02904 F4_000163 EQU $ ; IN [V4.0 RFID 2ND GENERATION_LIB.PBP] SD_TIMEOUT = 0
00070A 0102           02905         MOVLB 2
  00000002            02906 RAM_BANK = 2
00070C 6BEE           02907         CLRF SD_TIMEOUT
  0000070E            02908 F4_000164 EQU $ ; IN [V4.0 RFID 2ND GENERATION_LIB.PBP] SD_RETURN = 1
00070E 0E01           02909         MOVLW 1
000710 6E40           02910         MOVWF SD_RETURN,0
000712                02911 SD_WRITE_SECTOR_START
000712 0100           02912         MOVLB 0
  00000000            02913 RAM_BANK = 0
  00000714            02914 F4_000166 EQU $ ; IN [V4.0 RFID 2ND GENERATION_LIB.PBP] SD_ADDRESS = SD_SECTOR_NUM << 9
000714 90D8           02915         BCF STATUS,0,0
000716 6A38           02916         CLRF SD_ADDRESS,0
000718 3434           02917         RLCF SD_SECTOR_NUM,W,0
00071A 6E39           02918         MOVWF SD_ADDRESSH,0
00071C 3435           02919         RLCF SD_SECTOR_NUMH,W,0
00071E 6E3A           02920         MOVWF SD_ADDRESSHH,0
000720 3436           02921         RLCF SD_SECTOR_NUMHH,W,0
000722 6E3B           02922         MOVWF SD_ADDRESSHHH,0
  00000724            02923 F4_000168 EQU $ ; IN [V4.0 RFID 2ND GENERATION_LIB.PBP] LOW SD_CS
000724 9494           02924         BCF TRISC,2,0
000726 9482           02925         BCF PORTC,2,0
  00000728            02926 F4_000169 EQU $ ; IN [V4.0 RFID 2ND GENERATION_LIB.PBP] SD_BYTE0 = $58
000728 0E58           02927         MOVLW 88
00072A 0102           02928         MOVLB 2
  00000002            02929 RAM_BANK = 2
00072C 6F41           02930         MOVWF SD_BYTE0
  0000072E            02931 F4_000170 EQU $ ; IN [V4.0 RFID 2ND GENERATION_LIB.PBP] SD_BYTE1 = SD_ADDRESS.BYTE3
00072E C03B F242      02932         MOVFF SD_ADDRESSHHH,SD_BYTE1
  00000732            02933 F4_000171 EQU $ ; IN [V4.0 RFID 2ND GENERATION_LIB.PBP] SD_BYTE2 = SD_ADDRESS.BYTE2
000732 C03A F243      02934         MOVFF SD_ADDRESSHH,SD_BYTE2
  00000736            02935 F4_000172 EQU $ ; IN [V4.0 RFID 2ND GENERATION_LIB.PBP] SD_BYTE3 = SD_ADDRESS.BYTE1
000736 C039 F244      02936         MOVFF SD_ADDRESSH,SD_BYTE3
  0000073A            02937 F4_000173 EQU $ ; IN [V4.0 RFID 2ND GENERATION_LIB.PBP] SD_BYTE4 = SD_ADDRESS.BYTE0
00073A C038 F245      02938         MOVFF SD_ADDRESS,SD_BYTE4
  0000073E            02939 F4_000174 EQU $ ; IN [V4.0 RFID 2ND GENERATION_LIB.PBP] SD_BYTE5 = $FF
00073E 6946           02940         SETF SD_BYTE5
  00000740            02941 F4_000175 EQU $ ; IN [V4.0 RFID 2ND GENERATION_LIB.PBP] SD_SEEK_RESPONSE_REQD = $00
000740 6A3E           02942         CLRF SD_SEEK_RESPONSE_REQD,0
  00000742            02943 F4_000176 EQU $ ; IN [V4.0 RFID 2ND GENERATION_LIB.PBP] SD_SEEK_RESPONSE_IDX = $FFFF
000742 683D           02944         SETF SD_SEEK_RESPONSE_IDXH,0
000744 683C           02945         SETF SD_SEEK_RESPONSE_IDX,0
  00000746            02946 F4_000177 EQU $ ; IN [V4.0 RFID 2ND GENERATION_LIB.PBP] GOSUB SD_SEND_CMD
000746 0100           02947         MOVLB 0
  00000000            02948 RAM_BANK = 0
                      02949         F@CALL SD_SEND_CMD
  0000074C            02950 F4_000178 EQU $ ; IN [V4.0 RFID 2ND GENERATION_LIB.PBP] GOSUB SD_SEEK_RESPONSE
                      02951         F@CALL SD_SEEK_RESPONSE
  0000074E            02952 F4_000179 EQU $ ; IN [V4.0 RFID 2ND GENERATION_LIB.PBP] IF SD_SEEK_RESPONSE_RETURN = 1 THEN GOTO SD_WRITE_SECTOR_ERROR
00074E 0E01           02953         MOVLW 1
000750 5C3F           02954         SUBWF SD_SEEK_RESPONSE_RETURN,W,0
000752 A4D8           02955         BTFSS STATUS,2,0
                      02956         GO@TO BC@LL20
                      02957         F@JUMP SD_WRITE_SECTOR_ERROR
00075C                02958 BC@LL20
  0000075C            02959 F4_000181 EQU $ ; IN [V4.0 RFID 2ND GENERATION_LIB.PBP] SD_BYTE5 = $FE
00075C 0EFE           02960         MOVLW 254
00075E 0102           02961         MOVLB 2
  00000002            02962 RAM_BANK = 2
000760 6F46           02963         MOVWF SD_BYTE5
  00000762            02964 F4_000182 EQU $ ; IN [V4.0 RFID 2ND GENERATION_LIB.PBP] GOSUB SD_SEND_BYTE
000762 0100           02965         MOVLB 0
  00000000            02966 RAM_BANK = 0
                      02967         F@CALL SD_SEND_BYTE
  00000768            02968 F4_000184 EQU $ ; IN [V4.0 RFID 2ND GENERATION_LIB.PBP] FOR SD_IDX = 0 TO $FF
000768 6A33           02969         CLRF SD_IDX,0
00076A                02970 FR@LB22
  0000076A            02971 F4_000185 EQU $ ; IN [V4.0 RFID 2ND GENERATION_LIB.PBP] SD_BYTE5 = SD_BUFFER0[SD_IDX]
00076A EE00 F041      02972         LFSR 0,SD_BUFFER0
00076E 5033           02973         MOVF SD_IDX,W,0
000770 26E9           02974         ADDWF FSR0L,F,0
000772 0E00           02975         MOVLW 0
000774 22EA           02976         ADDWFC FSR0H,F,0
000776 50EF           02977         MOVF INDF0,W,0
000778 0102           02978         MOVLB 2
  00000002            02979 RAM_BANK = 2
00077A 6F46           02980         MOVWF SD_BYTE5
  0000077C            02981 F4_000186 EQU $ ; IN [V4.0 RFID 2ND GENERATION_LIB.PBP] GOSUB SD_SEND_BYTE
00077C 0100           02982         MOVLB 0
  00000000            02983 RAM_BANK = 0
                      02984         F@CALL SD_SEND_BYTE
  00000782            02985 F4_000187 EQU $ ; IN [V4.0 RFID 2ND GENERATION_LIB.PBP] NEXT SD_IDX
000782 2A33           02986         INCF SD_IDX,F,0
000784 A4D8           02987         BTFSS STATUS,2,0
                      02988         GO@TO FR@LB22
000788                02989 NX@LB23
  00000788            02990 F4_000188 EQU $ ; IN [V4.0 RFID 2ND GENERATION_LIB.PBP] FOR SD_IDX = 0 TO $FF
000788 6A33           02991         CLRF SD_IDX,0
00078A                02992 FR@LB24
  0000078A            02993 F4_000189 EQU $ ; IN [V4.0 RFID 2ND GENERATION_LIB.PBP] SD_BYTE5 = SD_BUFFER1[SD_IDX]
00078A EE01 F041      02994         LFSR 0,SD_BUFFER1
00078E 5033           02995         MOVF SD_IDX,W,0
000790 26E9           02996         ADDWF FSR0L,F,0
000792 0E00           02997         MOVLW 0
000794 22EA           02998         ADDWFC FSR0H,F,0
000796 50EF           02999         MOVF INDF0,W,0
000798 0102           03000         MOVLB 2
  00000002            03001 RAM_BANK = 2
00079A 6F46           03002         MOVWF SD_BYTE5
  0000079C            03003 F4_000190 EQU $ ; IN [V4.0 RFID 2ND GENERATION_LIB.PBP] GOSUB SD_SEND_BYTE
00079C 0100           03004         MOVLB 0
  00000000            03005 RAM_BANK = 0
                      03006         F@CALL SD_SEND_BYTE
  000007A2            03007 F4_000191 EQU $ ; IN [V4.0 RFID 2ND GENERATION_LIB.PBP] NEXT SD_IDX
0007A2 2A33           03008         INCF SD_IDX,F,0
0007A4 A4D8           03009         BTFSS STATUS,2,0
                      03010         GO@TO FR@LB24
0007A8                03011 NX@LB25
  000007A8            03012 F4_000193 EQU $ ; IN [V4.0 RFID 2ND GENERATION_LIB.PBP] SD_BYTE5 = $FF
0007A8 0102           03013         MOVLB 2
  00000002            03014 RAM_BANK = 2
0007AA 6946           03015         SETF SD_BYTE5
  000007AC            03016 F4_000194 EQU $ ; IN [V4.0 RFID 2ND GENERATION_LIB.PBP] GOSUB SD_SEND_BYTE
0007AC 0100           03017         MOVLB 0
  00000000            03018 RAM_BANK = 0
                      03019         F@CALL SD_SEND_BYTE
  000007B2            03020 F4_000195 EQU $ ; IN [V4.0 RFID 2ND GENERATION_LIB.PBP] GOSUB SD_SEND_BYTE
                      03021         F@CALL SD_SEND_BYTE
  000007B6            03022 F4_000197 EQU $ ; IN [V4.0 RFID 2ND GENERATION_LIB.PBP] SD_SEEK_RESPONSE_REQD = $FF
0007B6 683E           03023         SETF SD_SEEK_RESPONSE_REQD,0
  000007B8            03024 F4_000198 EQU $ ; IN [V4.0 RFID 2ND GENERATION_LIB.PBP] SD_SEEK_RESPONSE_IDX = $FFFF
0007B8 683D           03025         SETF SD_SEEK_RESPONSE_IDXH,0
0007BA 683C           03026         SETF SD_SEEK_RESPONSE_IDX,0
  000007BC            03027 F4_000199 EQU $ ; IN [V4.0 RFID 2ND GENERATION_LIB.PBP] GOSUB SD_RECEIVE_BYTE
                      03028         F@CALL SD_RECEIVE_BYTE
  000007C0            03029 F4_000200 EQU $ ; IN [V4.0 RFID 2ND GENERATION_LIB.PBP] SD_TEMP_BYTE = SD_BYTER
0007C0 C032 F2D1      03030         MOVFF SD_BYTER,SD_TEMP_BYTE
  000007C4            03031 F4_000201 EQU $ ; IN [V4.0 RFID 2ND GENERATION_LIB.PBP] GOSUB SD_SEEK_RESPONSE
                      03032         F@CALL SD_SEEK_RESPONSE
  000007C6            03033 F4_000202 EQU $ ; IN [V4.0 RFID 2ND GENERATION_LIB.PBP] SD_TEMP_BYTE = SD_TEMP_BYTE & $0F
0007C6 0E0F           03034         MOVLW 15
0007C8 0102           03035         MOVLB 2
  00000002            03036 RAM_BANK = 2
0007CA 17D1           03037         ANDWF SD_TEMP_BYTE,F
  000007CC            03038 F4_000203 EQU $ ; IN [V4.0 RFID 2ND GENERATION_LIB.PBP] IF SD_TEMP_BYTE <> $05 THEN GOTO SD_WRITE_SECTOR_ERROR
0007CC 0E05           03039         MOVLW 5
0007CE 5DD1           03040         SUBWF SD_TEMP_BYTE,W
0007D0 0100           03041         MOVLB 0
  00000000            03042 RAM_BANK = 0
0007D2 B4D8           03043         BTFSC STATUS,2,0
                      03044         GO@TO BC@LL26
                      03045         F@JUMP SD_WRITE_SECTOR_ERROR
0007DC                03046 BC@LL26
  000007DC            03047 F4_000204 EQU $ ; IN [V4.0 RFID 2ND GENERATION_LIB.PBP] IF SD_SEEK_RESPONSE_RETURN = 1 THEN GOTO SD_WRITE_SECTOR_ERROR
0007DC 0E01           03048         MOVLW 1
0007DE 5C3F           03049         SUBWF SD_SEEK_RESPONSE_RETURN,W,0
0007E0 A4D8           03050         BTFSS STATUS,2,0
                      03051         GO@TO BC@LL28
                      03052         F@JUMP SD_WRITE_SECTOR_ERROR
0007EA                03053 BC@LL28
  000007EA            03054 F4_000205 EQU $ ; IN [V4.0 RFID 2ND GENERATION_LIB.PBP] SD_RETURN = 0
0007EA 6A40           03055         CLRF SD_RETURN,0
  000007EC            03056 F4_000206 EQU $ ; IN [V4.0 RFID 2ND GENERATION_LIB.PBP] HIGH SD_CS
0007EC 9494           03057         BCF TRISC,2,0
0007EE 8482           03058         BSF PORTC,2,0
  000007F0            03059 F4_000207 EQU $ ; IN [V4.0 RFID 2ND GENERATION_LIB.PBP] GOTO SD_WRITE_SECTOR_END
                      03060         F@JUMP SD_WRITE_SECTOR_END
0007F4                03061 SD_WRITE_SECTOR_ERROR
  000007F4            03062 F4_000209 EQU $ ; IN [V4.0 RFID 2ND GENERATION_LIB.PBP] HIGH SD_CS
0007F4 9494           03063         BCF TRISC,2,0
0007F6 8482           03064         BSF PORTC,2,0
  000007F8            03065 F4_000210 EQU $ ; IN [V4.0 RFID 2ND GENERATION_LIB.PBP] SD_TIMEOUT = SD_TIMEOUT + 1
0007F8 0102           03066         MOVLB 2
  00000002            03067 RAM_BANK = 2
0007FA 2BEE           03068         INCF SD_TIMEOUT,F
  000007FC            03069 F4_000211 EQU $ ; IN [V4.0 RFID 2ND GENERATION_LIB.PBP] IF SD_TIMEOUT < $03 THEN
0007FC 0E03           03070         MOVLW 3
0007FE 5DEE           03071         SUBWF SD_TIMEOUT,W
000800 0100           03072         MOVLB 0
  00000000            03073 RAM_BANK = 0
000802 B0D8           03074         BTFSC STATUS,0,0
                      03075         GO@TO BC@LL30
  00000808            03076 F4_000212 EQU $ ; IN [V4.0 RFID 2ND GENERATION_LIB.PBP] GOTO SD_WRITE_SECTOR_START
                      03077         F@JUMP SD_WRITE_SECTOR_START
  0000080A            03078 F4_000213 EQU $ ; IN [V4.0 RFID 2ND GENERATION_LIB.PBP] ENDIF
00080A                03079 BC@LL30
00080A                03080 SD_WRITE_SECTOR_END
  0000080A            03081 F4_000215 EQU $ ; IN [V4.0 RFID 2ND GENERATION_LIB.PBP] RETURN
00080A 0012           03082         RETURN 0
00080C                03083 SD_READ_SECTOR
  0000080C            03084 F4_000218 EQU $ ; IN [V4.0 RFID 2ND GENERATION_LIB.PBP] SD_TIMEOUT = 0
00080C 0102           03085         MOVLB 2
  00000002            03086 RAM_BANK = 2
00080E 6BEE           03087         CLRF SD_TIMEOUT
  00000810            03088 F4_000219 EQU $ ; IN [V4.0 RFID 2ND GENERATION_LIB.PBP] SD_RETURN = 1
000810 0E01           03089         MOVLW 1
000812 6E40           03090         MOVWF SD_RETURN,0
000814                03091 SD_READ_SECTOR_START
000814 0100           03092         MOVLB 0
  00000000            03093 RAM_BANK = 0
  00000816            03094 F4_000221 EQU $ ; IN [V4.0 RFID 2ND GENERATION_LIB.PBP] SD_ADDRESS = SD_SECTOR_NUM << 9
000816 90D8           03095         BCF STATUS,0,0
000818 6A38           03096         CLRF SD_ADDRESS,0
00081A 3434           03097         RLCF SD_SECTOR_NUM,W,0
00081C 6E39           03098         MOVWF SD_ADDRESSH,0
00081E 3435           03099         RLCF SD_SECTOR_NUMH,W,0
000820 6E3A           03100         MOVWF SD_ADDRESSHH,0
000822 3436           03101         RLCF SD_SECTOR_NUMHH,W,0
000824 6E3B           03102         MOVWF SD_ADDRESSHHH,0
  00000826            03103 F4_000223 EQU $ ; IN [V4.0 RFID 2ND GENERATION_LIB.PBP] LOW SD_CS
000826 9494           03104         BCF TRISC,2,0
000828 9482           03105         BCF PORTC,2,0
  0000082A            03106 F4_000224 EQU $ ; IN [V4.0 RFID 2ND GENERATION_LIB.PBP] SD_BYTE0 = $51
00082A 0E51           03107         MOVLW 81
00082C 0102           03108         MOVLB 2
  00000002            03109 RAM_BANK = 2
00082E 6F41           03110         MOVWF SD_BYTE0
  00000830            03111 F4_000225 EQU $ ; IN [V4.0 RFID 2ND GENERATION_LIB.PBP] SD_BYTE1 = SD_ADDRESS.BYTE3
000830 C03B F242      03112         MOVFF SD_ADDRESSHHH,SD_BYTE1
  00000834            03113 F4_000226 EQU $ ; IN [V4.0 RFID 2ND GENERATION_LIB.PBP] SD_BYTE2 = SD_ADDRESS.BYTE2
000834 C03A F243      03114         MOVFF SD_ADDRESSHH,SD_BYTE2
  00000838            03115 F4_000227 EQU $ ; IN [V4.0 RFID 2ND GENERATION_LIB.PBP] SD_BYTE3 = SD_ADDRESS.BYTE1
000838 C039 F244      03116         MOVFF SD_ADDRESSH,SD_BYTE3
  0000083C            03117 F4_000228 EQU $ ; IN [V4.0 RFID 2ND GENERATION_LIB.PBP] SD_BYTE4 = SD_ADDRESS.BYTE0
00083C C038 F245      03118         MOVFF SD_ADDRESS,SD_BYTE4
  00000840            03119 F4_000229 EQU $ ; IN [V4.0 RFID 2ND GENERATION_LIB.PBP] SD_BYTE5 = $FF
000840 6946           03120         SETF SD_BYTE5
  00000842            03121 F4_000230 EQU $ ; IN [V4.0 RFID 2ND GENERATION_LIB.PBP] GOSUB SD_SEND_CMD
000842 0100           03122         MOVLB 0
  00000000            03123 RAM_BANK = 0
                      03124         F@CALL SD_SEND_CMD
  00000848            03125 F4_000231 EQU $ ; IN [V4.0 RFID 2ND GENERATION_LIB.PBP] SD_SEEK_RESPONSE_REQD = $00
000848 6A3E           03126         CLRF SD_SEEK_RESPONSE_REQD,0
  0000084A            03127 F4_000232 EQU $ ; IN [V4.0 RFID 2ND GENERATION_LIB.PBP] SD_SEEK_RESPONSE_IDX = $FFFF
00084A 683D           03128         SETF SD_SEEK_RESPONSE_IDXH,0
00084C 683C           03129         SETF SD_SEEK_RESPONSE_IDX,0
  0000084E            03130 F4_000233 EQU $ ; IN [V4.0 RFID 2ND GENERATION_LIB.PBP] GOSUB SD_SEEK_RESPONSE
                      03131         F@CALL SD_SEEK_RESPONSE
  00000850            03132 F4_000234 EQU $ ; IN [V4.0 RFID 2ND GENERATION_LIB.PBP] IF SD_SEEK_RESPONSE_RETURN = 1 THEN GOTO SD_READ_SECTOR_ERROR
000850 0E01           03133         MOVLW 1
000852 5C3F           03134         SUBWF SD_SEEK_RESPONSE_RETURN,W,0
000854 A4D8           03135         BTFSS STATUS,2,0
                      03136         GO@TO BC@LL32
                      03137         F@JUMP SD_READ_SECTOR_ERROR
00085E                03138 BC@LL32
  0000085E            03139 F4_000236 EQU $ ; IN [V4.0 RFID 2ND GENERATION_LIB.PBP] SD_SEEK_RESPONSE_REQD = $FE
00085E 0EFE           03140         MOVLW 254
000860 6E3E           03141         MOVWF SD_SEEK_RESPONSE_REQD,0
  00000862            03142 F4_000237 EQU $ ; IN [V4.0 RFID 2ND GENERATION_LIB.PBP] SD_SEEK_RESPONSE_IDX = $FFFF
000862 683D           03143         SETF SD_SEEK_RESPONSE_IDXH,0
000864 683C           03144         SETF SD_SEEK_RESPONSE_IDX,0
  00000866            03145 F4_000238 EQU $ ; IN [V4.0 RFID 2ND GENERATION_LIB.PBP] GOSUB SD_SEEK_RESPONSE
                      03146         F@CALL SD_SEEK_RESPONSE
  00000868            03147 F4_000239 EQU $ ; IN [V4.0 RFID 2ND GENERATION_LIB.PBP] IF SD_SEEK_RESPONSE_RETURN = 1 THEN GOTO SD_READ_SECTOR_ERROR
000868 0E01           03148         MOVLW 1
00086A 5C3F           03149         SUBWF SD_SEEK_RESPONSE_RETURN,W,0
00086C A4D8           03150         BTFSS STATUS,2,0
                      03151         GO@TO BC@LL34
                      03152         F@JUMP SD_READ_SECTOR_ERROR
000876                03153 BC@LL34
  00000876            03154 F4_000241 EQU $ ; IN [V4.0 RFID 2ND GENERATION_LIB.PBP] FOR SD_IDX = 0 TO $FF
000876 6A33           03155         CLRF SD_IDX,0
000878                03156 FR@LB36
  00000878            03157 F4_000242 EQU $ ; IN [V4.0 RFID 2ND GENERATION_LIB.PBP] GOSUB SD_RECEIVE_BYTE
                      03158         F@CALL SD_RECEIVE_BYTE
  0000087C            03159 F4_000243 EQU $ ; IN [V4.0 RFID 2ND GENERATION_LIB.PBP] SD_BUFFER0[SD_IDX] = SD_BYTER
00087C EE00 F041      03160         LFSR 0,SD_BUFFER0
000880 5033           03161         MOVF SD_IDX,W,0
000882 26E9           03162         ADDWF FSR0L,F,0
000884 0E00           03163         MOVLW 0
000886 22EA           03164         ADDWFC FSR0H,F,0
000888 C032 FFEF      03165         MOVFF SD_BYTER,INDF0
  0000088C            03166 F4_000244 EQU $ ; IN [V4.0 RFID 2ND GENERATION_LIB.PBP] NEXT SD_IDX
00088C 2A33           03167         INCF SD_IDX,F,0
00088E A4D8           03168         BTFSS STATUS,2,0
                      03169         GO@TO FR@LB36
000892                03170 NX@LB37
  00000892            03171 F4_000245 EQU $ ; IN [V4.0 RFID 2ND GENERATION_LIB.PBP] FOR SD_IDX = 0 TO $FF
000892 6A33           03172         CLRF SD_IDX,0
000894                03173 FR@LB38
  00000894            03174 F4_000246 EQU $ ; IN [V4.0 RFID 2ND GENERATION_LIB.PBP] GOSUB SD_RECEIVE_BYTE
                      03175         F@CALL SD_RECEIVE_BYTE
  00000898            03176 F4_000247 EQU $ ; IN [V4.0 RFID 2ND GENERATION_LIB.PBP] SD_BUFFER1[SD_IDX] = SD_BYTER
000898 EE01 F041      03177         LFSR 0,SD_BUFFER1
00089C 5033           03178         MOVF SD_IDX,W,0
00089E 26E9           03179         ADDWF FSR0L,F,0
0008A0 0E00           03180         MOVLW 0
0008A2 22EA           03181         ADDWFC FSR0H,F,0
0008A4 C032 FFEF      03182         MOVFF SD_BYTER,INDF0
  000008A8            03183 F4_000248 EQU $ ; IN [V4.0 RFID 2ND GENERATION_LIB.PBP] NEXT SD_IDX
0008A8 2A33           03184         INCF SD_IDX,F,0
0008AA A4D8           03185         BTFSS STATUS,2,0
                      03186         GO@TO FR@LB38
0008AE                03187 NX@LB39
  000008AE            03188 F4_000250 EQU $ ; IN [V4.0 RFID 2ND GENERATION_LIB.PBP] GOSUB SD_RECEIVE_BYTE
                      03189         F@CALL SD_RECEIVE_BYTE
  000008B2            03190 F4_000251 EQU $ ; IN [V4.0 RFID 2ND GENERATION_LIB.PBP] GOSUB SD_RECEIVE_BYTE
                      03191         F@CALL SD_RECEIVE_BYTE
  000008B6            03192 F4_000252 EQU $ ; IN [V4.0 RFID 2ND GENERATION_LIB.PBP] HIGH SD_CS
0008B6 9494           03193         BCF TRISC,2,0
0008B8 8482           03194         BSF PORTC,2,0
  000008BA            03195 F4_000253 EQU $ ; IN [V4.0 RFID 2ND GENERATION_LIB.PBP] SD_BYTE5 = $FF
0008BA 0102           03196         MOVLB 2
  00000002            03197 RAM_BANK = 2
0008BC 6946           03198         SETF SD_BYTE5
  000008BE            03199 F4_000254 EQU $ ; IN [V4.0 RFID 2ND GENERATION_LIB.PBP] GOSUB SD_SEND_BYTE
0008BE 0100           03200         MOVLB 0
  00000000            03201 RAM_BANK = 0
                      03202         F@CALL SD_SEND_BYTE
  000008C4            03203 F4_000255 EQU $ ; IN [V4.0 RFID 2ND GENERATION_LIB.PBP] SD_RETURN = 0
0008C4 6A40           03204         CLRF SD_RETURN,0
  000008C6            03205 F4_000256 EQU $ ; IN [V4.0 RFID 2ND GENERATION_LIB.PBP] GOTO SD_READ_SECTOR_END
                      03206         F@JUMP SD_READ_SECTOR_END
0008CA                03207 SD_READ_SECTOR_ERROR
  000008CA            03208 F4_000258 EQU $ ; IN [V4.0 RFID 2ND GENERATION_LIB.PBP] HIGH SD_CS
0008CA 9494           03209         BCF TRISC,2,0
0008CC 8482           03210         BSF PORTC,2,0
  000008CE            03211 F4_000259 EQU $ ; IN [V4.0 RFID 2ND GENERATION_LIB.PBP] SD_TIMEOUT = SD_TIMEOUT + 1
0008CE 0102           03212         MOVLB 2
  00000002            03213 RAM_BANK = 2
0008D0 2BEE           03214         INCF SD_TIMEOUT,F
  000008D2            03215 F4_000260 EQU $ ; IN [V4.0 RFID 2ND GENERATION_LIB.PBP] IF SD_TIMEOUT < $03 THEN
0008D2 0E03           03216         MOVLW 3
0008D4 5DEE           03217         SUBWF SD_TIMEOUT,W
0008D6 0100           03218         MOVLB 0
  00000000            03219 RAM_BANK = 0
0008D8 B0D8           03220         BTFSC STATUS,0,0
                      03221         GO@TO BC@LL40
  000008DE            03222 F4_000261 EQU $ ; IN [V4.0 RFID 2ND GENERATION_LIB.PBP] GOTO SD_READ_SECTOR_START
                      03223         F@JUMP SD_READ_SECTOR_START
  000008E0            03224 F4_000262 EQU $ ; IN [V4.0 RFID 2ND GENERATION_LIB.PBP] ENDIF
0008E0                03225 BC@LL40
0008E0                03226 SD_READ_SECTOR_END
  000008E0            03227 F4_000264 EQU $ ; IN [V4.0 RFID 2ND GENERATION_LIB.PBP] RETURN
0008E0 0012           03228         RETURN 0
0008E2                03229 SD_READ_FAT_ENTRY
  000008E2            03230 F4_000267 EQU $ ; IN [V4.0 RFID 2ND GENERATION_LIB.PBP] IF SD_BUFFER_POS > $0FF THEN
0008E2 0E01           03231         MOVLW 1
0008E4 0102           03232         MOVLB 2
  00000002            03233 RAM_BANK = 2
0008E6 5D4F           03234         SUBWF SD_BUFFER_POSH,W
0008E8 0100           03235         MOVLB 0
  00000000            03236 RAM_BANK = 0
0008EA A0D8           03237         BTFSS STATUS,0,0
                      03238         GO@TO BC@LL42
  000008F0            03239 F4_000268 EQU $ ; IN [V4.0 RFID 2ND GENERATION_LIB.PBP] SD_FAT_ENTRY.BYTE0 = SD_BUFFER1[SD_BUFFER_POS - $100]
0008F0 0102           03240         MOVLB 2
  00000002            03241 RAM_BANK = 2
0008F2 514E           03242         MOVF SD_BUFFER_POS,W
0008F4 EE01 F041      03243         LFSR 0,SD_BUFFER1
0008F8 26E9           03244         ADDWF FSR0L,F,0
0008FA 0E00           03245         MOVLW 0
0008FC 22EA           03246         ADDWFC FSR0H,F,0
0008FE 50EF           03247         MOVF INDF0,W,0
000900 6F77           03248         MOVWF SD_FAT_ENTRY
  00000902            03249 F4_000269 EQU $ ; IN [V4.0 RFID 2ND GENERATION_LIB.PBP] SD_FAT_ENTRY.BYTE1 = SD_BUFFER1[SD_BUFFER_POS + 1 - $100]
000902 0E01           03250         MOVLW 1
000904 254E           03251         ADDWF SD_BUFFER_POS,W
000906 6E23           03252         MOVWF PP7,0
000908 0E00           03253         MOVLW 0
00090A 214F           03254         ADDWFC SD_BUFFER_POSH,W
00090C 6E24           03255         MOVWF PP7H,0
00090E 5023           03256         MOVF PP7,W,0
000910 EE01 F041      03257         LFSR 0,SD_BUFFER1
000914 26E9           03258         ADDWF FSR0L,F,0
000916 0E00           03259         MOVLW 0
000918 22EA           03260         ADDWFC FSR0H,F,0
00091A 50EF           03261         MOVF INDF0,W,0
00091C 6F78           03262         MOVWF SD_FAT_ENTRYH
00091E 0100           03263         MOVLB 0
  00000000            03264 RAM_BANK = 0
                      03265         F@JUMP BC@LL43
000924                03266 BC@LL42
  00000924            03267 F4_000270 EQU $ ; IN [V4.0 RFID 2ND GENERATION_LIB.PBP] ELSE
  00000924            03268 F4_000271 EQU $ ; IN [V4.0 RFID 2ND GENERATION_LIB.PBP] SD_FAT_ENTRY.BYTE0 = SD_BUFFER0[SD_BUFFER_POS]
000924 EE00 F041      03269         LFSR 0,SD_BUFFER0
000928 0102           03270         MOVLB 2
  00000002            03271 RAM_BANK = 2
00092A 514E           03272         MOVF SD_BUFFER_POS,W
00092C 26E9           03273         ADDWF FSR0L,F,0
00092E 0E00           03274         MOVLW 0
000930 22EA           03275         ADDWFC FSR0H,F,0
000932 50EF           03276         MOVF INDF0,W,0
000934 6F77           03277         MOVWF SD_FAT_ENTRY
  00000936            03278 F4_000272 EQU $ ; IN [V4.0 RFID 2ND GENERATION_LIB.PBP] SD_FAT_ENTRY.BYTE1 = SD_BUFFER0[SD_BUFFER_POS + 1]
000936 294E           03279         INCF SD_BUFFER_POS,W
000938 EE00 F041      03280         LFSR 0,SD_BUFFER0
00093C 26E9           03281         ADDWF FSR0L,F,0
00093E 0E00           03282         MOVLW 0
000940 22EA           03283         ADDWFC FSR0H,F,0
000942 50EF           03284         MOVF INDF0,W,0
000944 6F78           03285         MOVWF SD_FAT_ENTRYH
  00000946            03286 F4_000273 EQU $ ; IN [V4.0 RFID 2ND GENERATION_LIB.PBP] ENDIF
000946                03287 BC@LL43
000946 0100           03288         MOVLB 0
  00000000            03289 RAM_BANK = 0
  00000948            03290 F4_000274 EQU $ ; IN [V4.0 RFID 2ND GENERATION_LIB.PBP] RETURN
000948 0012           03291         RETURN 0
00094A                03292 SD_FIND_FREE_CLUSTER
  0000094A            03293 F4_000277 EQU $ ; IN [V4.0 RFID 2ND GENERATION_LIB.PBP] SD_TEMP_DWORD = SD_FAT1 + SD_SECS_PER_FAT - 1
00094A 0102           03294         MOVLB 2
  00000002            03295 RAM_BANK = 2
00094C 5158           03296         MOVF SD_SECS_PER_FAT,W
00094E 2567           03297         ADDWF SD_FAT1,W
000950 6E23           03298         MOVWF PP7,0
000952 5159           03299         MOVF SD_SECS_PER_FATH,W
000954 2168           03300         ADDWFC SD_FAT1H,W
000956 6E24           03301         MOVWF PP7H,0
000958 0E00           03302         MOVLW 0
00095A 2169           03303         ADDWFC SD_FAT1HH,W
00095C 6E25           03304         MOVWF PP7HH,0
00095E 0E00           03305         MOVLW 0
000960 216A           03306         ADDWFC SD_FAT1HHH,W
000962 6E26           03307         MOVWF PP7HHH,0
000964 0423           03308         DECF PP7,W,0
000966 6FD4           03309         MOVWF SD_TEMP_DWORD
000968 0E00           03310         MOVLW 0
00096A 5824           03311         SUBWFB PP7H,W,0
00096C 6FD5           03312         MOVWF SD_TEMP_DWORDH
00096E 0E00           03313         MOVLW 0
000970 5825           03314         SUBWFB PP7HH,W,0
000972 6FD6           03315         MOVWF SD_TEMP_DWORDHH
000974 0E00           03316         MOVLW 0
000976 5826           03317         SUBWFB PP7HHH,W,0
000978 6FD7           03318         MOVWF SD_TEMP_DWORDHHH
  0000097A            03319 F4_000278 EQU $ ; IN [V4.0 RFID 2ND GENERATION_LIB.PBP] FOR SD_SEC_NUM = (SD_FAT_SEC + SD_FAT1) TO SD_TEMP_DWORD
00097A 5167           03320         MOVF SD_FAT1,W
00097C 2579           03321         ADDWF SD_FAT_SEC,W
00097E 6F51           03322         MOVWF SD_SEC_NUM
000980 5168           03323         MOVF SD_FAT1H,W
000982 217A           03324         ADDWFC SD_FAT_SECH,W
000984 6F52           03325         MOVWF SD_SEC_NUMH
000986 5169           03326         MOVF SD_FAT1HH,W
000988 217B           03327         ADDWFC SD_FAT_SECHH,W
00098A 6F53           03328         MOVWF SD_SEC_NUMHH
00098C 516A           03329         MOVF SD_FAT1HHH,W
00098E 217C           03330         ADDWFC SD_FAT_SECHHH,W
000990 6F54           03331         MOVWF SD_SEC_NUMHHH
000992                03332 FR@LB45
000992 0100           03333         MOVLB 0
  00000000            03334 RAM_BANK = 0
000994 0102           03335         MOVLB 2
  00000002            03336 RAM_BANK = 2
000996 5151           03337         MOVF SD_SEC_NUM,W
000998 5DD4           03338         SUBWF SD_TEMP_DWORD,W
00099A 5152           03339         MOVF SD_SEC_NUMH,W
00099C 59D5           03340         SUBWFB SD_TEMP_DWORDH,W
00099E 5153           03341         MOVF SD_SEC_NUMHH,W
0009A0 59D6           03342         SUBWFB SD_TEMP_DWORDHH,W
0009A2 5154           03343         MOVF SD_SEC_NUMHHH,W
0009A4 59D7           03344         SUBWFB SD_TEMP_DWORDHHH,W
0009A6 5154           03345         MOVF SD_SEC_NUMHHH,W
0009A8 19D7           03346         XORWF SD_TEMP_DWORDHHH,W
0009AA B0D8           03347         BTFSC STATUS,0,0
0009AC 0A80           03348         XORLW 128
0009AE 0100           03349         MOVLB 0
  00000000            03350 RAM_BANK = 0
0009B0 A8D8           03351         BTFSS STATUS,4,0
                      03352         GO@TO NX@LB46
  000009B6            03353 F4_000279 EQU $ ; IN [V4.0 RFID 2ND GENERATION_LIB.PBP] SD_SECTOR_NUM = SD_SEC_NUM
0009B6 C254 F037      03354         MOVFF SD_SEC_NUMHHH,SD_SECTOR_NUMHHH
0009BA C253 F036      03355         MOVFF SD_SEC_NUMHH,SD_SECTOR_NUMHH
0009BE C252 F035      03356         MOVFF SD_SEC_NUMH,SD_SECTOR_NUMH
0009C2 C251 F034      03357         MOVFF SD_SEC_NUM,SD_SECTOR_NUM
  000009C6            03358 F4_000280 EQU $ ; IN [V4.0 RFID 2ND GENERATION_LIB.PBP] SD_RW_OPTION = 1
0009C6 0E01           03359         MOVLW 1
0009C8 0102           03360         MOVLB 2
  00000002            03361 RAM_BANK = 2
0009CA 6F4A           03362         MOVWF SD_RW_OPTION
  000009CC            03363 F4_000281 EQU $ ; IN [V4.0 RFID 2ND GENERATION_LIB.PBP] GOSUB SD_SECTOR_SUB
0009CC 0100           03364         MOVLB 0
  00000000            03365 RAM_BANK = 0
                      03366         F@CALL SD_SECTOR_SUB
  000009D0            03367 F4_000283 EQU $ ; IN [V4.0 RFID 2ND GENERATION_LIB.PBP] FOR SD_BUFFER_POS = $0000 TO $1FF STEP 2
0009D0 0102           03368         MOVLB 2
  00000002            03369 RAM_BANK = 2
0009D2 6B4F           03370         CLRF SD_BUFFER_POSH
0009D4 6B4E           03371         CLRF SD_BUFFER_POS
0009D6                03372 FR@LB47
0009D6 0100           03373         MOVLB 0
  00000000            03374 RAM_BANK = 0
0009D8 0E02           03375         MOVLW 2
0009DA 0102           03376         MOVLB 2
  00000002            03377 RAM_BANK = 2
0009DC 5D4F           03378         SUBWF SD_BUFFER_POSH,W
0009DE 0100           03379         MOVLB 0
  00000000            03380 RAM_BANK = 0
0009E0 B0D8           03381         BTFSC STATUS,0,0
                      03382         GO@TO NX@LB48
  000009E6            03383 F4_000284 EQU $ ; IN [V4.0 RFID 2ND GENERATION_LIB.PBP] IF SD_SEC_NUM > (SD_FAT_SEC + SD_FAT1) OR SD_BUFFER_POS >= (SD_FAT_BUFFER_POS + (2 * SD_CLUSTER_SEQ_NUM)) THEN
0009E6 0102           03384         MOVLB 2
  00000002            03385 RAM_BANK = 2
0009E8 5167           03386         MOVF SD_FAT1,W
0009EA 2579           03387         ADDWF SD_FAT_SEC,W
0009EC 6E08           03388         MOVWF PBP#VAR0,0
0009EE 5168           03389         MOVF SD_FAT1H,W
0009F0 217A           03390         ADDWFC SD_FAT_SECH,W
0009F2 6E09           03391         MOVWF PBP#VAR0H,0
0009F4 5169           03392         MOVF SD_FAT1HH,W
0009F6 217B           03393         ADDWFC SD_FAT_SECHH,W
0009F8 6E0A           03394         MOVWF PBP#VAR0HH,0
0009FA 516A           03395         MOVF SD_FAT1HHH,W
0009FC 217C           03396         ADDWFC SD_FAT_SECHHH,W
0009FE 6E0B           03397         MOVWF PBP#VAR0HHH,0
000A00 5151           03398         MOVF SD_SEC_NUM,W
000A02 5C08           03399         SUBWF PBP#VAR0,W,0
000A04 5152           03400         MOVF SD_SEC_NUMH,W
000A06 5809           03401         SUBWFB PBP#VAR0H,W,0
000A08 5153           03402         MOVF SD_SEC_NUMHH,W
000A0A 580A           03403         SUBWFB PBP#VAR0HH,W,0
000A0C 5154           03404         MOVF SD_SEC_NUMHHH,W
000A0E 580B           03405         SUBWFB PBP#VAR0HHH,W,0
000A10 5154           03406         MOVF SD_SEC_NUMHHH,W
000A12 180B           03407         XORWF PBP#VAR0HHH,W,0
000A14 B0D8           03408         BTFSC STATUS,0,0
000A16 0A80           03409         XORLW 128
000A18 0100           03410         MOVLB 0
  00000000            03411 RAM_BANK = 0
000A1A A8D8           03412         BTFSS STATUS,4,0
                      03413         GO@TO CP@LB9
000A20 0E00           03414         MOVLW 0
000A22 D001           03415         BRA $ + 4
000A24                03416 CP@LB9
000A24 0E01           03417         MOVLW 1
000A26 6E2D           03418         MOVWF SP#P9,0
000A28 90D8           03419         BCF STATUS,0,0
000A2A 0102           03420         MOVLB 2
  00000002            03421 RAM_BANK = 2
000A2C 35D8           03422         RLCF SD_CLUSTER_SEQ_NUM,W
000A2E 6E23           03423         MOVWF PP7,0
000A30 35D9           03424         RLCF SD_CLUSTER_SEQ_NUMH,W
000A32 6E24           03425         MOVWF PP7H,0
000A34 5023           03426         MOVF PP7,W,0
000A36 257D           03427         ADDWF SD_FAT_BUFFER_POS,W
000A38 6E08           03428         MOVWF PBP#VAR0,0
000A3A 5024           03429         MOVF PP7H,W,0
000A3C 217E           03430         ADDWFC SD_FAT_BUFFER_POSH,W
000A3E 6E09           03431         MOVWF PBP#VAR0H,0
000A40 C24F F012      03432         MOVFF SD_BUFFER_POSH,PP0H
000A44 C24E F011      03433         MOVFF SD_BUFFER_POS,PP0
000A48 C009 F016      03434         MOVFF PBP#VAR0H,PP1H
000A4C 5008           03435         MOVF PBP#VAR0,W,0
                      03436         F@CALL T@GE
000A52 122D           03437         IORWF SP#P9,F,0
000A54 0100           03438         MOVLB 0
  00000000            03439 RAM_BANK = 0
000A56 B4D8           03440         BTFSC STATUS,2,0
                      03441         GO@TO BC@LL49
  00000A5C            03442 F4_000285 EQU $ ; IN [V4.0 RFID 2ND GENERATION_LIB.PBP] GOSUB SD_READ_FAT_ENTRY
                      03443         F@CALL SD_READ_FAT_ENTRY
  00000A5E            03444 F4_000286 EQU $ ; IN [V4.0 RFID 2ND GENERATION_LIB.PBP] IF SD_FAT_ENTRY = $0000 THEN GOTO SD_STORE_FAT_POSITION
000A5E 0102           03445         MOVLB 2
  00000002            03446 RAM_BANK = 2
000A60 5178           03447         MOVF SD_FAT_ENTRYH,W
000A62 1177           03448         IORWF SD_FAT_ENTRY,W
000A64 0100           03449         MOVLB 0
  00000000            03450 RAM_BANK = 0
000A66 A4D8           03451         BTFSS STATUS,2,0
                      03452         GO@TO BC@LL51
                      03453         F@JUMP SD_STORE_FAT_POSITION
000A70                03454 BC@LL51
  00000A70            03455 F4_000287 EQU $ ; IN [V4.0 RFID 2ND GENERATION_LIB.PBP] ENDIF
000A70                03456 BC@LL49
  00000A70            03457 F4_000288 EQU $ ; IN [V4.0 RFID 2ND GENERATION_LIB.PBP] NEXT SD_BUFFER_POS
000A70 0E02           03458         MOVLW 2
000A72 0102           03459         MOVLB 2
  00000002            03460 RAM_BANK = 2
000A74 274E           03461         ADDWF SD_BUFFER_POS,F
000A76 0100           03462         MOVLB 0
  00000000            03463 RAM_BANK = 0
000A78 A0D8           03464         BTFSS STATUS,0,0
                      03465         GO@TO FR@LB47
000A7C 0102           03466         MOVLB 2
  00000002            03467 RAM_BANK = 2
000A7E 2B4F           03468         INCF SD_BUFFER_POSH,F
000A80 0100           03469         MOVLB 0
  00000000            03470 RAM_BANK = 0
000A82 A4D8           03471         BTFSS STATUS,2,0
                      03472         GO@TO FR@LB47
000A86                03473 NX@LB48
  00000A86            03474 F4_000289 EQU $ ; IN [V4.0 RFID 2ND GENERATION_LIB.PBP] NEXT SD_SEC_NUM
000A86 0102           03475         MOVLB 2
  00000002            03476 RAM_BANK = 2
000A88 2B51           03477         INCF SD_SEC_NUM,F
000A8A 0E00           03478         MOVLW 0
000A8C 2352           03479         ADDWFC SD_SEC_NUMH,F
000A8E 2353           03480         ADDWFC SD_SEC_NUMHH,F
000A90 2354           03481         ADDWFC SD_SEC_NUMHHH,F
000A92 0100           03482         MOVLB 0
  00000000            03483 RAM_BANK = 0
000A94 A0D8           03484         BTFSS STATUS,0,0
                      03485         GO@TO FR@LB45
000A98                03486 NX@LB46
  00000A98            03487 F4_000290 EQU $ ; IN [V4.0 RFID 2ND GENERATION_LIB.PBP] SD_EXTENDED_RETURN = 1
000A98 0E01           03488         MOVLW 1
000A9A 0102           03489         MOVLB 2
  00000002            03490 RAM_BANK = 2
000A9C 6F4B           03491         MOVWF SD_EXTENDED_RETURN
  00000A9E            03492 F4_000291 EQU $ ; IN [V4.0 RFID 2ND GENERATION_LIB.PBP] RETURN
000A9E 0100           03493         MOVLB 0
  00000000            03494 RAM_BANK = 0
000AA0 0012           03495         RETURN 0
000AA2                03496 SD_STORE_FAT_POSITION
  00000AA2            03497 F4_000293 EQU $ ; IN [V4.0 RFID 2ND GENERATION_LIB.PBP] SD_FAT_SEC = SD_SEC_NUM - SD_FAT1
000AA2 0102           03498         MOVLB 2
  00000002            03499 RAM_BANK = 2
000AA4 5167           03500         MOVF SD_FAT1,W
000AA6 5D51           03501         SUBWF SD_SEC_NUM,W
000AA8 6F79           03502         MOVWF SD_FAT_SEC
000AAA 5168           03503         MOVF SD_FAT1H,W
000AAC 5952           03504         SUBWFB SD_SEC_NUMH,W
000AAE 6F7A           03505         MOVWF SD_FAT_SECH
000AB0 5169           03506         MOVF SD_FAT1HH,W
000AB2 5953           03507         SUBWFB SD_SEC_NUMHH,W
000AB4 6F7B           03508         MOVWF SD_FAT_SECHH
000AB6 516A           03509         MOVF SD_FAT1HHH,W
000AB8 5954           03510         SUBWFB SD_SEC_NUMHHH,W
000ABA 6F7C           03511         MOVWF SD_FAT_SECHHH
  00000ABC            03512 F4_000294 EQU $ ; IN [V4.0 RFID 2ND GENERATION_LIB.PBP] SD_FAT_BUFFER_POS = SD_BUFFER_POS
000ABC C24F F27E      03513         MOVFF SD_BUFFER_POSH,SD_FAT_BUFFER_POSH
000AC0 C24E F27D      03514         MOVFF SD_BUFFER_POS,SD_FAT_BUFFER_POS
  00000AC4            03515 F4_000295 EQU $ ; IN [V4.0 RFID 2ND GENERATION_LIB.PBP] SD_CLUSTER_NUM = (SD_FAT_SEC * $100)
000AC4 C279 F2C6      03516         MOVFF SD_FAT_SEC,SD_CLUSTER_NUMH
000AC8 6BC5           03517         CLRF SD_CLUSTER_NUM
  00000ACA            03518 F4_000296 EQU $ ; IN [V4.0 RFID 2ND GENERATION_LIB.PBP] SD_CLUSTER_NUM = (SD_FAT_BUFFER_POS / 2) + SD_CLUSTER_NUM
000ACA 90D8           03519         BCF STATUS,0,0
000ACC 317E           03520         RRCF SD_FAT_BUFFER_POSH,W
000ACE 6E24           03521         MOVWF PP7H,0
000AD0 317D           03522         RRCF SD_FAT_BUFFER_POS,W
000AD2 6E23           03523         MOVWF PP7,0
000AD4 5023           03524         MOVF PP7,W,0
000AD6 27C5           03525         ADDWF SD_CLUSTER_NUM,F
000AD8 5024           03526         MOVF PP7H,W,0
000ADA 23C6           03527         ADDWFC SD_CLUSTER_NUMH,F
  00000ADC            03528 F4_000297 EQU $ ; IN [V4.0 RFID 2ND GENERATION_LIB.PBP] SD_CLUSTER_SEQ_NUM = 0
000ADC 6BD9           03529         CLRF SD_CLUSTER_SEQ_NUMH
000ADE 6BD8           03530         CLRF SD_CLUSTER_SEQ_NUM
  00000AE0            03531 F4_000298 EQU $ ; IN [V4.0 RFID 2ND GENERATION_LIB.PBP] FOR SD_BUFFER_POS = SD_FAT_BUFFER_POS TO $1FF STEP 2
000AE0 C27E F24F      03532         MOVFF SD_FAT_BUFFER_POSH,SD_BUFFER_POSH
000AE4 C27D F24E      03533         MOVFF SD_FAT_BUFFER_POS,SD_BUFFER_POS
000AE8                03534 FR@LB53
000AE8 0100           03535         MOVLB 0
  00000000            03536 RAM_BANK = 0
000AEA 0E02           03537         MOVLW 2
000AEC 0102           03538         MOVLB 2
  00000002            03539 RAM_BANK = 2
000AEE 5D4F           03540         SUBWF SD_BUFFER_POSH,W
000AF0 0100           03541         MOVLB 0
  00000000            03542 RAM_BANK = 0
000AF2 B0D8           03543         BTFSC STATUS,0,0
                      03544         GO@TO NX@LB54
  00000AF8            03545 F4_000299 EQU $ ; IN [V4.0 RFID 2ND GENERATION_LIB.PBP] GOSUB SD_READ_FAT_ENTRY
                      03546         F@CALL SD_READ_FAT_ENTRY
  00000AFA            03547 F4_000300 EQU $ ; IN [V4.0 RFID 2ND GENERATION_LIB.PBP] IF SD_FAT_ENTRY = $0000 THEN
000AFA 0102           03548         MOVLB 2
  00000002            03549 RAM_BANK = 2
000AFC 5178           03550         MOVF SD_FAT_ENTRYH,W
000AFE 1177           03551         IORWF SD_FAT_ENTRY,W
000B00 0100           03552         MOVLB 0
  00000000            03553 RAM_BANK = 0
000B02 A4D8           03554         BTFSS STATUS,2,0
                      03555         GO@TO BC@LL55
  00000B08            03556 F4_000301 EQU $ ; IN [V4.0 RFID 2ND GENERATION_LIB.PBP] INC SD_CLUSTER_SEQ_NUM
000B08 0102           03557         MOVLB 2
  00000002            03558 RAM_BANK = 2
000B0A 4BD8           03559         INFSNZ SD_CLUSTER_SEQ_NUM,F
000B0C 2BD9           03560         INCF SD_CLUSTER_SEQ_NUMH,F
000B0E 0100           03561         MOVLB 0
  00000000            03562 RAM_BANK = 0
                      03563         F@JUMP BC@LL56
000B14                03564 BC@LL55
  00000B14            03565 F4_000302 EQU $ ; IN [V4.0 RFID 2ND GENERATION_LIB.PBP] ELSE
  00000B14            03566 F4_000303 EQU $ ; IN [V4.0 RFID 2ND GENERATION_LIB.PBP] GOTO SD_STORE_CLUSTER_SEQ
                      03567         F@JUMP SD_STORE_CLUSTER_SEQ
  00000B18            03568 F4_000304 EQU $ ; IN [V4.0 RFID 2ND GENERATION_LIB.PBP] ENDIF
000B18                03569 BC@LL56
  00000B18            03570 F4_000305 EQU $ ; IN [V4.0 RFID 2ND GENERATION_LIB.PBP] NEXT SD_BUFFER_POS
000B18 0E02           03571         MOVLW 2
000B1A 0102           03572         MOVLB 2
  00000002            03573 RAM_BANK = 2
000B1C 274E           03574         ADDWF SD_BUFFER_POS,F
000B1E 0100           03575         MOVLB 0
  00000000            03576 RAM_BANK = 0
000B20 A0D8           03577         BTFSS STATUS,0,0
                      03578         GO@TO FR@LB53
000B24 0102           03579         MOVLB 2
  00000002            03580 RAM_BANK = 2
000B26 2B4F           03581         INCF SD_BUFFER_POSH,F
000B28 0100           03582         MOVLB 0
  00000000            03583 RAM_BANK = 0
000B2A A4D8           03584         BTFSS STATUS,2,0
                      03585         GO@TO FR@LB53
000B2E                03586 NX@LB54
000B2E                03587 SD_STORE_CLUSTER_SEQ
  00000B2E            03588 F4_000307 EQU $ ; IN [V4.0 RFID 2ND GENERATION_LIB.PBP] SD_CLUSTER_SEQ_IDX = 1
000B2E 0102           03589         MOVLB 2
  00000002            03590 RAM_BANK = 2
000B30 6BDB           03591         CLRF SD_CLUSTER_SEQ_IDXH
000B32 0E01           03592         MOVLW 1
000B34 6FDA           03593         MOVWF SD_CLUSTER_SEQ_IDX
  00000B36            03594 F4_000308 EQU $ ; IN [V4.0 RFID 2ND GENERATION_LIB.PBP] SD_EXTENDED_RETURN = 0
000B36 6B4B           03595         CLRF SD_EXTENDED_RETURN
  00000B38            03596 F4_000309 EQU $ ; IN [V4.0 RFID 2ND GENERATION_LIB.PBP] RETURN
000B38 0100           03597         MOVLB 0
  00000000            03598 RAM_BANK = 0
000B3A 0012           03599         RETURN 0
000B3C                03600 SD_MODIFY_FILE_NAME
  00000B3C            03601 F4_000312 EQU $ ; IN [V4.0 RFID 2ND GENERATION_LIB.PBP] SD_NULL_F = 0
000B3C 0102           03602         MOVLB 2
  00000002            03603 RAM_BANK = 2
000B3E 6BC4           03604         CLRF SD_NULL_F
  00000B40            03605 F4_000313 EQU $ ; IN [V4.0 RFID 2ND GENERATION_LIB.PBP] FOR SD_ROOT_DIR_FILE_POS = $00 TO $07
000B40 6B50           03606         CLRF SD_ROOT_DIR_FILE_POS
000B42                03607 FR@LB58
000B42 0100           03608         MOVLB 0
  00000000            03609 RAM_BANK = 0
000B44 0E08           03610         MOVLW 8
000B46 0102           03611         MOVLB 2
  00000002            03612 RAM_BANK = 2
000B48 5D50           03613         SUBWF SD_ROOT_DIR_FILE_POS,W
000B4A 0100           03614         MOVLB 0
  00000000            03615 RAM_BANK = 0
000B4C B0D8           03616         BTFSC STATUS,0,0
                      03617         GO@TO NX@LB59
  00000B52            03618 F4_000314 EQU $ ; IN [V4.0 RFID 2ND GENERATION_LIB.PBP] IF SD_NULL_F = 1 OR SD_FILE_NAME[SD_ROOT_DIR_FILE_POS] = 0 THEN
000B52 0E01           03619         MOVLW 1
000B54 0102           03620         MOVLB 2
  00000002            03621 RAM_BANK = 2
000B56 5DC4           03622         SUBWF SD_NULL_F,W
000B58 0E01           03623         MOVLW 1
000B5A A4D8           03624         BTFSS STATUS,2,0
000B5C 0E00           03625         MOVLW 0
000B5E 6E2D           03626         MOVWF SP#P9,0
000B60 EE02 F091      03627         LFSR 0,SD_FILE_NAME
000B64 5150           03628         MOVF SD_ROOT_DIR_FILE_POS,W
000B66 50EB           03629         MOVF PLUSW0,W,0
000B68 6E08           03630         MOVWF PBP#VAR0,0
000B6A 0E01           03631         MOVLW 1
000B6C 5208           03632         MOVF PBP#VAR0,F,0
000B6E A4D8           03633         BTFSS STATUS,2,0
000B70 0E00           03634         MOVLW 0
000B72 122D           03635         IORWF SP#P9,F,0
000B74 0100           03636         MOVLB 0
  00000000            03637 RAM_BANK = 0
000B76 B4D8           03638         BTFSC STATUS,2,0
                      03639         GO@TO BC@LL60
  00000B7C            03640 F4_000315 EQU $ ; IN [V4.0 RFID 2ND GENERATION_LIB.PBP] SD_FILE_NAME[SD_ROOT_DIR_FILE_POS] = $20
000B7C 0E20           03641         MOVLW 32
000B7E 6EF3           03642         MOVWF PRODL,0
000B80 EE02 F091      03643         LFSR 0,SD_FILE_NAME
000B84 0102           03644         MOVLB 2
  00000002            03645 RAM_BANK = 2
000B86 5150           03646         MOVF SD_ROOT_DIR_FILE_POS,W
000B88 CFF3 FFEB      03647         MOVFF PRODL,PLUSW0
  00000B8C            03648 F4_000316 EQU $ ; IN [V4.0 RFID 2ND GENERATION_LIB.PBP] SD_NULL_F = 1
000B8C 0E01           03649         MOVLW 1
000B8E 6FC4           03650         MOVWF SD_NULL_F
  00000B90            03651 F4_000317 EQU $ ; IN [V4.0 RFID 2ND GENERATION_LIB.PBP] ENDIF
000B90                03652 BC@LL60
000B90 0100           03653         MOVLB 0
  00000000            03654 RAM_BANK = 0
  00000B92            03655 F4_000318 EQU $ ; IN [V4.0 RFID 2ND GENERATION_LIB.PBP] NEXT SD_ROOT_DIR_FILE_POS
000B92 0102           03656         MOVLB 2
  00000002            03657 RAM_BANK = 2
000B94 2B50           03658         INCF SD_ROOT_DIR_FILE_POS,F
000B96 0100           03659         MOVLB 0
  00000000            03660 RAM_BANK = 0
000B98 A4D8           03661         BTFSS STATUS,2,0
                      03662         GO@TO FR@LB58
000B9C                03663 NX@LB59
  00000B9C            03664 F4_000319 EQU $ ; IN [V4.0 RFID 2ND GENERATION_LIB.PBP] SD_NULL_F = 0
000B9C 0102           03665         MOVLB 2
  00000002            03666 RAM_BANK = 2
000B9E 6BC4           03667         CLRF SD_NULL_F
  00000BA0            03668 F4_000320 EQU $ ; IN [V4.0 RFID 2ND GENERATION_LIB.PBP] FOR SD_ROOT_DIR_FILE_POS = $08 TO $0A
000BA0 0E08           03669         MOVLW 8
000BA2 6F50           03670         MOVWF SD_ROOT_DIR_FILE_POS
000BA4                03671 FR@LB62
000BA4 0100           03672         MOVLB 0
  00000000            03673 RAM_BANK = 0
000BA6 0E0B           03674         MOVLW 11
000BA8 0102           03675         MOVLB 2
  00000002            03676 RAM_BANK = 2
000BAA 5D50           03677         SUBWF SD_ROOT_DIR_FILE_POS,W
000BAC 0100           03678         MOVLB 0
  00000000            03679 RAM_BANK = 0
000BAE B0D8           03680         BTFSC STATUS,0,0
                      03681         GO@TO NX@LB63
  00000BB4            03682 F4_000321 EQU $ ; IN [V4.0 RFID 2ND GENERATION_LIB.PBP] IF SD_NULL_F = 1 OR SD_FILE_EXT[SD_ROOT_DIR_FILE_POS - $08] = 0 THEN
000BB4 0E01           03683         MOVLW 1
000BB6 0102           03684         MOVLB 2
  00000002            03685 RAM_BANK = 2
000BB8 5DC4           03686         SUBWF SD_NULL_F,W
000BBA 0E01           03687         MOVLW 1
000BBC A4D8           03688         BTFSS STATUS,2,0
000BBE 0E00           03689         MOVLW 0
000BC0 6E2D           03690         MOVWF SP#P9,0
000BC2 0E08           03691         MOVLW 8
000BC4 5D50           03692         SUBWF SD_ROOT_DIR_FILE_POS,W
000BC6 EE02 F09A      03693         LFSR 0,SD_FILE_EXT
000BCA 50EB           03694         MOVF PLUSW0,W,0
000BCC 6E08           03695         MOVWF PBP#VAR0,0
000BCE 0E01           03696         MOVLW 1
000BD0 5208           03697         MOVF PBP#VAR0,F,0
000BD2 A4D8           03698         BTFSS STATUS,2,0
000BD4 0E00           03699         MOVLW 0
000BD6 122D           03700         IORWF SP#P9,F,0
000BD8 0100           03701         MOVLB 0
  00000000            03702 RAM_BANK = 0
000BDA B4D8           03703         BTFSC STATUS,2,0
                      03704         GO@TO BC@LL64
  00000BE0            03705 F4_000322 EQU $ ; IN [V4.0 RFID 2ND GENERATION_LIB.PBP] SD_FILE_EXT[SD_ROOT_DIR_FILE_POS - $08] = $20
000BE0 0E08           03706         MOVLW 8
000BE2 0102           03707         MOVLB 2
  00000002            03708 RAM_BANK = 2
000BE4 5D50           03709         SUBWF SD_ROOT_DIR_FILE_POS,W
000BE6 0F9A           03710         ADDLW SD_FILE_EXT
000BE8 6EE9           03711         MOVWF FSR0L,0
000BEA 0E02           03712         MOVLW SD_FILE_EXT >> 8
000BEC 6AEA           03713         CLRF FSR0H,0
000BEE 22EA           03714         ADDWFC FSR0H,F,0
000BF0 0E20           03715         MOVLW 32
000BF2 6EEF           03716         MOVWF INDF0,0
  00000BF4            03717 F4_000323 EQU $ ; IN [V4.0 RFID 2ND GENERATION_LIB.PBP] SD_NULL_F = 1
000BF4 0E01           03718         MOVLW 1
000BF6 6FC4           03719         MOVWF SD_NULL_F
  00000BF8            03720 F4_000324 EQU $ ; IN [V4.0 RFID 2ND GENERATION_LIB.PBP] ENDIF
000BF8                03721 BC@LL64
000BF8 0100           03722         MOVLB 0
  00000000            03723 RAM_BANK = 0
  00000BFA            03724 F4_000325 EQU $ ; IN [V4.0 RFID 2ND GENERATION_LIB.PBP] NEXT SD_ROOT_DIR_FILE_POS
000BFA 0102           03725         MOVLB 2
  00000002            03726 RAM_BANK = 2
000BFC 2B50           03727         INCF SD_ROOT_DIR_FILE_POS,F
000BFE 0100           03728         MOVLB 0
  00000000            03729 RAM_BANK = 0
000C00 A4D8           03730         BTFSS STATUS,2,0
                      03731         GO@TO FR@LB62
000C04                03732 NX@LB63
  00000C04            03733 F4_000326 EQU $ ; IN [V4.0 RFID 2ND GENERATION_LIB.PBP] RETURN
000C04 0012           03734         RETURN 0
000C06                03735 SD_FIND_ROOT_DIR_ENTRY
  00000C06            03736 F4_000329 EQU $ ; IN [V4.0 RFID 2ND GENERATION_LIB.PBP] GOSUB SD_MODIFY_FILE_NAME
                      03737         F@CALL SD_MODIFY_FILE_NAME
  00000C08            03738 F4_000330 EQU $ ; IN [V4.0 RFID 2ND GENERATION_LIB.PBP] SD_NUM_OF_ROOT_ENTRIES = 0
000C08 0102           03739         MOVLB 2
  00000002            03740 RAM_BANK = 2
000C0A 6B62           03741         CLRF SD_NUM_OF_ROOT_ENTRIESH
000C0C 6B61           03742         CLRF SD_NUM_OF_ROOT_ENTRIES
  00000C0E            03743 F4_000331 EQU $ ; IN [V4.0 RFID 2ND GENERATION_LIB.PBP] SD_TEMP_DWORD = SD_ROOT_DIR + SD_SECS_IN_ROOT - 1
000C0E 5163           03744         MOVF SD_SECS_IN_ROOT,W
000C10 256F           03745         ADDWF SD_ROOT_DIR,W
000C12 6E23           03746         MOVWF PP7,0
000C14 5164           03747         MOVF SD_SECS_IN_ROOTH,W
000C16 2170           03748         ADDWFC SD_ROOT_DIRH,W
000C18 6E24           03749         MOVWF PP7H,0
000C1A 0E00           03750         MOVLW 0
000C1C 2171           03751         ADDWFC SD_ROOT_DIRHH,W
000C1E 6E25           03752         MOVWF PP7HH,0
000C20 0E00           03753         MOVLW 0
000C22 2172           03754         ADDWFC SD_ROOT_DIRHHH,W
000C24 6E26           03755         MOVWF PP7HHH,0
000C26 0423           03756         DECF PP7,W,0
000C28 6FD4           03757         MOVWF SD_TEMP_DWORD
000C2A 0E00           03758         MOVLW 0
000C2C 5824           03759         SUBWFB PP7H,W,0
000C2E 6FD5           03760         MOVWF SD_TEMP_DWORDH
000C30 0E00           03761         MOVLW 0
000C32 5825           03762         SUBWFB PP7HH,W,0
000C34 6FD6           03763         MOVWF SD_TEMP_DWORDHH
000C36 0E00           03764         MOVLW 0
000C38 5826           03765         SUBWFB PP7HHH,W,0
000C3A 6FD7           03766         MOVWF SD_TEMP_DWORDHHH
  00000C3C            03767 F4_000332 EQU $ ; IN [V4.0 RFID 2ND GENERATION_LIB.PBP] FOR SD_SEC_NUM = SD_ROOT_DIR TO SD_TEMP_DWORD
000C3C C272 F254      03768         MOVFF SD_ROOT_DIRHHH,SD_SEC_NUMHHH
000C40 C271 F253      03769         MOVFF SD_ROOT_DIRHH,SD_SEC_NUMHH
000C44 C270 F252      03770         MOVFF SD_ROOT_DIRH,SD_SEC_NUMH
000C48 C26F F251      03771         MOVFF SD_ROOT_DIR,SD_SEC_NUM
000C4C                03772 FR@LB66
000C4C 0100           03773         MOVLB 0
  00000000            03774 RAM_BANK = 0
000C4E 0102           03775         MOVLB 2
  00000002            03776 RAM_BANK = 2
000C50 5151           03777         MOVF SD_SEC_NUM,W
000C52 5DD4           03778         SUBWF SD_TEMP_DWORD,W
000C54 5152           03779         MOVF SD_SEC_NUMH,W
000C56 59D5           03780         SUBWFB SD_TEMP_DWORDH,W
000C58 5153           03781         MOVF SD_SEC_NUMHH,W
000C5A 59D6           03782         SUBWFB SD_TEMP_DWORDHH,W
000C5C 5154           03783         MOVF SD_SEC_NUMHHH,W
000C5E 59D7           03784         SUBWFB SD_TEMP_DWORDHHH,W
000C60 5154           03785         MOVF SD_SEC_NUMHHH,W
000C62 19D7           03786         XORWF SD_TEMP_DWORDHHH,W
000C64 B0D8           03787         BTFSC STATUS,0,0
000C66 0A80           03788         XORLW 128
000C68 0100           03789         MOVLB 0
  00000000            03790 RAM_BANK = 0
000C6A A8D8           03791         BTFSS STATUS,4,0
                      03792         GO@TO NX@LB67
  00000C70            03793 F4_000333 EQU $ ; IN [V4.0 RFID 2ND GENERATION_LIB.PBP] SD_SECTOR_NUM = SD_SEC_NUM
000C70 C254 F037      03794         MOVFF SD_SEC_NUMHHH,SD_SECTOR_NUMHHH
000C74 C253 F036      03795         MOVFF SD_SEC_NUMHH,SD_SECTOR_NUMHH
000C78 C252 F035      03796         MOVFF SD_SEC_NUMH,SD_SECTOR_NUMH
000C7C C251 F034      03797         MOVFF SD_SEC_NUM,SD_SECTOR_NUM
  00000C80            03798 F4_000334 EQU $ ; IN [V4.0 RFID 2ND GENERATION_LIB.PBP] SD_RW_OPTION = 1
000C80 0E01           03799         MOVLW 1
000C82 0102           03800         MOVLB 2
  00000002            03801 RAM_BANK = 2
000C84 6F4A           03802         MOVWF SD_RW_OPTION
  00000C86            03803 F4_000335 EQU $ ; IN [V4.0 RFID 2ND GENERATION_LIB.PBP] GOSUB SD_SECTOR_SUB
000C86 0100           03804         MOVLB 0
  00000000            03805 RAM_BANK = 0
                      03806         F@CALL SD_SECTOR_SUB
  00000C8C            03807 F4_000337 EQU $ ; IN [V4.0 RFID 2ND GENERATION_LIB.PBP] FOR SD_BUFFER_POS = $000 TO $1FF STEP 32
000C8C 0102           03808         MOVLB 2
  00000002            03809 RAM_BANK = 2
000C8E 6B4F           03810         CLRF SD_BUFFER_POSH
000C90 6B4E           03811         CLRF SD_BUFFER_POS
000C92                03812 FR@LB68
000C92 0100           03813         MOVLB 0
  00000000            03814 RAM_BANK = 0
000C94 0E02           03815         MOVLW 2
000C96 0102           03816         MOVLB 2
  00000002            03817 RAM_BANK = 2
000C98 5D4F           03818         SUBWF SD_BUFFER_POSH,W
000C9A 0100           03819         MOVLB 0
  00000000            03820 RAM_BANK = 0
000C9C B0D8           03821         BTFSC STATUS,0,0
                      03822         GO@TO NX@LB69
  00000CA2            03823 F4_000338 EQU $ ; IN [V4.0 RFID 2ND GENERATION_LIB.PBP] FOR SD_ROOT_DIR_FILE_POS = 0 TO 31
000CA2 0102           03824         MOVLB 2
  00000002            03825 RAM_BANK = 2
000CA4 6B50           03826         CLRF SD_ROOT_DIR_FILE_POS
000CA6                03827 FR@LB70
000CA6 0100           03828         MOVLB 0
  00000000            03829 RAM_BANK = 0
000CA8 0E20           03830         MOVLW 32
000CAA 0102           03831         MOVLB 2
  00000002            03832 RAM_BANK = 2
000CAC 5D50           03833         SUBWF SD_ROOT_DIR_FILE_POS,W
000CAE 0100           03834         MOVLB 0
  00000000            03835 RAM_BANK = 0
000CB0 B0D8           03836         BTFSC STATUS,0,0
                      03837         GO@TO NX@LB71
  00000CB6            03838 F4_000339 EQU $ ; IN [V4.0 RFID 2ND GENERATION_LIB.PBP] SD_TEMP = SD_BUFFER_POS + SD_ROOT_DIR_FILE_POS
000CB6 0102           03839         MOVLB 2
  00000002            03840 RAM_BANK = 2
000CB8 5150           03841         MOVF SD_ROOT_DIR_FILE_POS,W
000CBA 254E           03842         ADDWF SD_BUFFER_POS,W
000CBC 6FD2           03843         MOVWF SD_TEMP
000CBE 0E00           03844         MOVLW 0
000CC0 214F           03845         ADDWFC SD_BUFFER_POSH,W
000CC2 6FD3           03846         MOVWF SD_TEMPH
  00000CC4            03847 F4_000340 EQU $ ; IN [V4.0 RFID 2ND GENERATION_LIB.PBP] IF SD_TEMP > $0FF THEN
000CC4 0E01           03848         MOVLW 1
000CC6 5DD3           03849         SUBWF SD_TEMPH,W
000CC8 0100           03850         MOVLB 0
  00000000            03851 RAM_BANK = 0
000CCA A0D8           03852         BTFSS STATUS,0,0
                      03853         GO@TO BC@LL72
  00000CD0            03854 F4_000341 EQU $ ; IN [V4.0 RFID 2ND GENERATION_LIB.PBP] SD_ROOT_DIR_FILE[SD_ROOT_DIR_FILE_POS] = SD_BUFFER1[SD_TEMP - $100]
000CD0 0102           03855         MOVLB 2
  00000002            03856 RAM_BANK = 2
000CD2 51D2           03857         MOVF SD_TEMP,W
000CD4 EE01 F041      03858         LFSR 0,SD_BUFFER1
000CD8 26E9           03859         ADDWF FSR0L,F,0
000CDA 0E00           03860         MOVLW 0
000CDC 22EA           03861         ADDWFC FSR0H,F,0
000CDE CFEF F008      03862         MOVFF INDF0,PBP#VAR0
000CE2 EE02 F09E      03863         LFSR 0,SD_ROOT_DIR_FILE
000CE6 5150           03864         MOVF SD_ROOT_DIR_FILE_POS,W
000CE8 C008 FFEB      03865         MOVFF PBP#VAR0,PLUSW0
000CEC 0100           03866         MOVLB 0
  00000000            03867 RAM_BANK = 0
                      03868         F@JUMP BC@LL73
000CF2                03869 BC@LL72
  00000CF2            03870 F4_000342 EQU $ ; IN [V4.0 RFID 2ND GENERATION_LIB.PBP] ELSE
  00000CF2            03871 F4_000343 EQU $ ; IN [V4.0 RFID 2ND GENERATION_LIB.PBP] SD_ROOT_DIR_FILE[SD_ROOT_DIR_FILE_POS] = SD_BUFFER0[SD_TEMP]
000CF2 EE00 F041      03872         LFSR 0,SD_BUFFER0
000CF6 0102           03873         MOVLB 2
  00000002            03874 RAM_BANK = 2
000CF8 51D2           03875         MOVF SD_TEMP,W
000CFA 26E9           03876         ADDWF FSR0L,F,0
000CFC 0E00           03877         MOVLW 0
000CFE 22EA           03878         ADDWFC FSR0H,F,0
000D00 CFEF F008      03879         MOVFF INDF0,PBP#VAR0
000D04 EE02 F09E      03880         LFSR 0,SD_ROOT_DIR_FILE
000D08 5150           03881         MOVF SD_ROOT_DIR_FILE_POS,W
000D0A C008 FFEB      03882         MOVFF PBP#VAR0,PLUSW0
  00000D0E            03883 F4_000344 EQU $ ; IN [V4.0 RFID 2ND GENERATION_LIB.PBP] ENDIF
000D0E                03884 BC@LL73
000D0E 0100           03885         MOVLB 0
  00000000            03886 RAM_BANK = 0
  00000D10            03887 F4_000345 EQU $ ; IN [V4.0 RFID 2ND GENERATION_LIB.PBP] NEXT SD_ROOT_DIR_FILE_POS
000D10 0102           03888         MOVLB 2
  00000002            03889 RAM_BANK = 2
000D12 2B50           03890         INCF SD_ROOT_DIR_FILE_POS,F
000D14 0100           03891         MOVLB 0
  00000000            03892 RAM_BANK = 0
000D16 A4D8           03893         BTFSS STATUS,2,0
                      03894         GO@TO FR@LB70
000D1A                03895 NX@LB71
  00000D1A            03896 F4_000346 EQU $ ; IN [V4.0 RFID 2ND GENERATION_LIB.PBP] SELECT SD_FIND_ROOT_DIR_ENTRY_F
  00000D1A            03897 F4_000347 EQU $ ; IN [V4.0 RFID 2ND GENERATION_LIB.PBP] CASE 0
000D1A 0102           03898         MOVLB 2
  00000002            03899 RAM_BANK = 2
000D1C 53E0           03900         MOVF SD_FIND_ROOT_DIR_ENTRY_F,F
000D1E 0100           03901         MOVLB 0
  00000000            03902 RAM_BANK = 0
000D20 A4D8           03903         BTFSS STATUS,2,0
                      03904         GO@TO BC@LL75
  00000D26            03905 F4_000348 EQU $ ; IN [V4.0 RFID 2ND GENERATION_LIB.PBP] IF SD_ROOT_DIR_FILE[0] = $00 OR SD_ROOT_DIR_FILE[0] = $E5 THEN
000D26 0102           03906         MOVLB 2
  00000002            03907 RAM_BANK = 2
000D28 519E           03908         MOVF SD_ROOT_DIR_FILE#0,W
000D2A 6E08           03909         MOVWF PBP#VAR0,0
000D2C 0E01           03910         MOVLW 1
000D2E 5208           03911         MOVF PBP#VAR0,F,0
000D30 A4D8           03912         BTFSS STATUS,2,0
000D32 0E00           03913         MOVLW 0
000D34 6E2D           03914         MOVWF SP#P9,0
000D36 519E           03915         MOVF SD_ROOT_DIR_FILE#0,W
000D38 6E08           03916         MOVWF PBP#VAR0,0
000D3A 0EE5           03917         MOVLW 229
000D3C 5C08           03918         SUBWF PBP#VAR0,W,0
000D3E 0E01           03919         MOVLW 1
000D40 A4D8           03920         BTFSS STATUS,2,0
000D42 0E00           03921         MOVLW 0
000D44 122D           03922         IORWF SP#P9,F,0
000D46 0100           03923         MOVLB 0
  00000000            03924 RAM_BANK = 0
000D48 B4D8           03925         BTFSC STATUS,2,0
                      03926         GO@TO BC@LL78
  00000D4E            03927 F4_000349 EQU $ ; IN [V4.0 RFID 2ND GENERATION_LIB.PBP] GOTO SD_STORE_ROOT_DIRECT_POSITION
                      03928         F@JUMP SD_STORE_ROOT_DIRECT_POSITION
  00000D52            03929 F4_000350 EQU $ ; IN [V4.0 RFID 2ND GENERATION_LIB.PBP] ENDIF
000D52                03930 BC@LL78
                      03931         F@JUMP BC@LL74
000D56                03932 BC@LL75
  00000D56            03933 F4_000351 EQU $ ; IN [V4.0 RFID 2ND GENERATION_LIB.PBP] CASE 1
000D56 0E01           03934         MOVLW 1
000D58 0102           03935         MOVLB 2
  00000002            03936 RAM_BANK = 2
000D5A 5DE0           03937         SUBWF SD_FIND_ROOT_DIR_ENTRY_F,W
000D5C 0100           03938         MOVLB 0
  00000000            03939 RAM_BANK = 0
000D5E A4D8           03940         BTFSS STATUS,2,0
                      03941         GO@TO BC@LL80
  00000D64            03942 F4_000352 EQU $ ; IN [V4.0 RFID 2ND GENERATION_LIB.PBP] SD_NULL_F = 0
000D64 0102           03943         MOVLB 2
  00000002            03944 RAM_BANK = 2
000D66 6BC4           03945         CLRF SD_NULL_F
  00000D68            03946 F4_000353 EQU $ ; IN [V4.0 RFID 2ND GENERATION_LIB.PBP] FOR SD_ROOT_DIR_FILE_POS = $00 TO $07
000D68 6B50           03947         CLRF SD_ROOT_DIR_FILE_POS
000D6A                03948 FR@LB82
000D6A 0100           03949         MOVLB 0
  00000000            03950 RAM_BANK = 0
000D6C 0E08           03951         MOVLW 8
000D6E 0102           03952         MOVLB 2
  00000002            03953 RAM_BANK = 2
000D70 5D50           03954         SUBWF SD_ROOT_DIR_FILE_POS,W
000D72 0100           03955         MOVLB 0
  00000000            03956 RAM_BANK = 0
000D74 B0D8           03957         BTFSC STATUS,0,0
                      03958         GO@TO NX@LB83
  00000D7A            03959 F4_000354 EQU $ ; IN [V4.0 RFID 2ND GENERATION_LIB.PBP] IF SD_ROOT_DIR_FILE[SD_ROOT_DIR_FILE_POS] <> SD_FILE_NAME[SD_ROOT_DIR_FILE_POS] THEN
000D7A EE02 F09E      03960         LFSR 0,SD_ROOT_DIR_FILE
000D7E 0102           03961         MOVLB 2
  00000002            03962 RAM_BANK = 2
000D80 5150           03963         MOVF SD_ROOT_DIR_FILE_POS,W
000D82 50EB           03964         MOVF PLUSW0,W,0
000D84 6E08           03965         MOVWF PBP#VAR0,0
000D86 EE02 F091      03966         LFSR 0,SD_FILE_NAME
000D8A 5150           03967         MOVF SD_ROOT_DIR_FILE_POS,W
000D8C 50EB           03968         MOVF PLUSW0,W,0
000D8E 6E0C           03969         MOVWF PBP#VAR1,0
000D90 5008           03970         MOVF PBP#VAR0,W,0
000D92 5C0C           03971         SUBWF PBP#VAR1,W,0
000D94 0100           03972         MOVLB 0
  00000000            03973 RAM_BANK = 0
000D96 B4D8           03974         BTFSC STATUS,2,0
                      03975         GO@TO BC@LL84
  00000D9C            03976 F4_000355 EQU $ ; IN [V4.0 RFID 2ND GENERATION_LIB.PBP] SD_NULL_F = 1
000D9C 0E01           03977         MOVLW 1
000D9E 0102           03978         MOVLB 2
  00000002            03979 RAM_BANK = 2
000DA0 6FC4           03980         MOVWF SD_NULL_F
  00000DA2            03981 F4_000356 EQU $ ; IN [V4.0 RFID 2ND GENERATION_LIB.PBP] BREAK
000DA2 0100           03982         MOVLB 0
  00000000            03983 RAM_BANK = 0
                      03984         F@JUMP NX@LB83
  00000DA8            03985 F4_000357 EQU $ ; IN [V4.0 RFID 2ND GENERATION_LIB.PBP] ENDIF
000DA8                03986 BC@LL84
  00000DA8            03987 F4_000358 EQU $ ; IN [V4.0 RFID 2ND GENERATION_LIB.PBP] NEXT SD_ROOT_DIR_FILE_POS
000DA8 0102           03988         MOVLB 2
  00000002            03989 RAM_BANK = 2
000DAA 2B50           03990         INCF SD_ROOT_DIR_FILE_POS,F
000DAC 0100           03991         MOVLB 0
  00000000            03992 RAM_BANK = 0
000DAE A4D8           03993         BTFSS STATUS,2,0
                      03994         GO@TO FR@LB82
000DB2                03995 NX@LB83
  00000DB2            03996 F4_000359 EQU $ ; IN [V4.0 RFID 2ND GENERATION_LIB.PBP] FOR SD_ROOT_DIR_FILE_POS = $08 TO $0A
000DB2 0E08           03997         MOVLW 8
000DB4 0102           03998         MOVLB 2
  00000002            03999 RAM_BANK = 2
000DB6 6F50           04000         MOVWF SD_ROOT_DIR_FILE_POS
000DB8                04001 FR@LB86
000DB8 0100           04002         MOVLB 0
  00000000            04003 RAM_BANK = 0
000DBA 0E0B           04004         MOVLW 11
000DBC 0102           04005         MOVLB 2
  00000002            04006 RAM_BANK = 2
000DBE 5D50           04007         SUBWF SD_ROOT_DIR_FILE_POS,W
000DC0 0100           04008         MOVLB 0
  00000000            04009 RAM_BANK = 0
000DC2 B0D8           04010         BTFSC STATUS,0,0
                      04011         GO@TO NX@LB87
  00000DC8            04012 F4_000360 EQU $ ; IN [V4.0 RFID 2ND GENERATION_LIB.PBP] IF SD_ROOT_DIR_FILE[SD_ROOT_DIR_FILE_POS] <> SD_FILE_EXT[SD_ROOT_DIR_FILE_POS - $08] THEN
000DC8 EE02 F09E      04013         LFSR 0,SD_ROOT_DIR_FILE
000DCC 0102           04014         MOVLB 2
  00000002            04015 RAM_BANK = 2
000DCE 5150           04016         MOVF SD_ROOT_DIR_FILE_POS,W
000DD0 50EB           04017         MOVF PLUSW0,W,0
000DD2 6E08           04018         MOVWF PBP#VAR0,0
000DD4 0E08           04019         MOVLW 8
000DD6 5D50           04020         SUBWF SD_ROOT_DIR_FILE_POS,W
000DD8 EE02 F09A      04021         LFSR 0,SD_FILE_EXT
000DDC 50EB           04022         MOVF PLUSW0,W,0
000DDE 6E0C           04023         MOVWF PBP#VAR1,0
000DE0 5008           04024         MOVF PBP#VAR0,W,0
000DE2 5C0C           04025         SUBWF PBP#VAR1,W,0
000DE4 0100           04026         MOVLB 0
  00000000            04027 RAM_BANK = 0
000DE6 B4D8           04028         BTFSC STATUS,2,0
                      04029         GO@TO BC@LL88
  00000DEC            04030 F4_000361 EQU $ ; IN [V4.0 RFID 2ND GENERATION_LIB.PBP] SD_NULL_F = 1
000DEC 0E01           04031         MOVLW 1
000DEE 0102           04032         MOVLB 2
  00000002            04033 RAM_BANK = 2
000DF0 6FC4           04034         MOVWF SD_NULL_F
  00000DF2            04035 F4_000362 EQU $ ; IN [V4.0 RFID 2ND GENERATION_LIB.PBP] BREAK
000DF2 0100           04036         MOVLB 0
  00000000            04037 RAM_BANK = 0
                      04038         F@JUMP NX@LB87
  00000DF8            04039 F4_000363 EQU $ ; IN [V4.0 RFID 2ND GENERATION_LIB.PBP] ENDIF
000DF8                04040 BC@LL88
  00000DF8            04041 F4_000364 EQU $ ; IN [V4.0 RFID 2ND GENERATION_LIB.PBP] NEXT SD_ROOT_DIR_FILE_POS
000DF8 0102           04042         MOVLB 2
  00000002            04043 RAM_BANK = 2
000DFA 2B50           04044         INCF SD_ROOT_DIR_FILE_POS,F
000DFC 0100           04045         MOVLB 0
  00000000            04046 RAM_BANK = 0
000DFE A4D8           04047         BTFSS STATUS,2,0
                      04048         GO@TO FR@LB86
000E02                04049 NX@LB87
  00000E02            04050 F4_000365 EQU $ ; IN [V4.0 RFID 2ND GENERATION_LIB.PBP] IF SD_NULL_F = 0 THEN GOTO SD_STORE_ROOT_DIRECT_POSITION
000E02 0102           04051         MOVLB 2
  00000002            04052 RAM_BANK = 2
000E04 53C4           04053         MOVF SD_NULL_F,F
000E06 0100           04054         MOVLB 0
  00000000            04055 RAM_BANK = 0
000E08 A4D8           04056         BTFSS STATUS,2,0
                      04057         GO@TO BC@LL90
                      04058         F@JUMP SD_STORE_ROOT_DIRECT_POSITION
000E12                04059 BC@LL90
                      04060         F@JUMP BC@LL74
000E16                04061 BC@LL80
  00000E16            04062 F4_000366 EQU $ ; IN [V4.0 RFID 2ND GENERATION_LIB.PBP] CASE 2
000E16 0E02           04063         MOVLW 2
000E18 0102           04064         MOVLB 2
  00000002            04065 RAM_BANK = 2
000E1A 5DE0           04066         SUBWF SD_FIND_ROOT_DIR_ENTRY_F,W
000E1C 0100           04067         MOVLB 0
  00000000            04068 RAM_BANK = 0
000E1E A4D8           04069         BTFSS STATUS,2,0
                      04070         GO@TO BC@LL92
  00000E24            04071 F4_000367 EQU $ ; IN [V4.0 RFID 2ND GENERATION_LIB.PBP] IF SD_ROOT_DIR_FILE[$0B] | %11110000 <> $FF THEN
000E24 0102           04072         MOVLB 2
  00000002            04073 RAM_BANK = 2
000E26 51A9           04074         MOVF SD_ROOT_DIR_FILE#11,W
000E28 6E0C           04075         MOVWF PBP#VAR1,0
000E2A 0EF0           04076         MOVLW 240
000E2C 100C           04077         IORWF PBP#VAR1,W,0
000E2E 6E08           04078         MOVWF PBP#VAR0,0
000E30 6A09           04079         CLRF PBP#VAR0H,0
000E32 2808           04080         INCF PBP#VAR0,W,0
000E34 1009           04081         IORWF PBP#VAR0H,W,0
000E36 0100           04082         MOVLB 0
  00000000            04083 RAM_BANK = 0
000E38 B4D8           04084         BTFSC STATUS,2,0
                      04085         GO@TO BC@LL94
  00000E3E            04086 F4_000368 EQU $ ; IN [V4.0 RFID 2ND GENERATION_LIB.PBP] IF SD_ROOT_DIR_FILE[$00] <> $00 THEN
000E3E 0102           04087         MOVLB 2
  00000002            04088 RAM_BANK = 2
000E40 519E           04089         MOVF SD_ROOT_DIR_FILE#0,W
000E42 6E08           04090         MOVWF PBP#VAR0,0
000E44 5208           04091         MOVF PBP#VAR0,F,0
000E46 0100           04092         MOVLB 0
  00000000            04093 RAM_BANK = 0
000E48 B4D8           04094         BTFSC STATUS,2,0
                      04095         GO@TO BC@LL96
  00000E4E            04096 F4_000369 EQU $ ; IN [V4.0 RFID 2ND GENERATION_LIB.PBP] IF SD_ROOT_DIR_FILE[$00] <> $E5 THEN
000E4E 0102           04097         MOVLB 2
  00000002            04098 RAM_BANK = 2
000E50 519E           04099         MOVF SD_ROOT_DIR_FILE#0,W
000E52 6E08           04100         MOVWF PBP#VAR0,0
000E54 0EE5           04101         MOVLW 229
000E56 5C08           04102         SUBWF PBP#VAR0,W,0
000E58 0100           04103         MOVLB 0
  00000000            04104 RAM_BANK = 0
000E5A B4D8           04105         BTFSC STATUS,2,0
                      04106         GO@TO BC@LL98
  00000E60            04107 F4_000370 EQU $ ; IN [V4.0 RFID 2ND GENERATION_LIB.PBP] IF SD_ROOT_DIR_FILE[$0B] & %00011110 = 0 THEN
000E60 0102           04108         MOVLB 2
  00000002            04109 RAM_BANK = 2
000E62 51A9           04110         MOVF SD_ROOT_DIR_FILE#11,W
000E64 6E0C           04111         MOVWF PBP#VAR1,0
000E66 0E1E           04112         MOVLW 30
000E68 140C           04113         ANDWF PBP#VAR1,W,0
000E6A 6A09           04114         CLRF PBP#VAR0H,0
000E6C 6E08           04115         MOVWF PBP#VAR0,0
000E6E 5009           04116         MOVF PBP#VAR0H,W,0
000E70 1008           04117         IORWF PBP#VAR0,W,0
000E72 0100           04118         MOVLB 0
  00000000            04119 RAM_BANK = 0
000E74 A4D8           04120         BTFSS STATUS,2,0
                      04121         GO@TO BC@LL100
  00000E7A            04122 F4_000371 EQU $ ; IN [V4.0 RFID 2ND GENERATION_LIB.PBP] INC SD_NUM_OF_ROOT_ENTRIES
000E7A 0102           04123         MOVLB 2
  00000002            04124 RAM_BANK = 2
000E7C 4B61           04125         INFSNZ SD_NUM_OF_ROOT_ENTRIES,F
000E7E 2B62           04126         INCF SD_NUM_OF_ROOT_ENTRIESH,F
  00000E80            04127 F4_000372 EQU $ ; IN [V4.0 RFID 2ND GENERATION_LIB.PBP] IF SD_NUM_OF_ROOT_ENTRIES = SD_FILE_NUM THEN
000E80 51E7           04128         MOVF SD_FILE_NUMH,W
000E82 5D62           04129         SUBWF SD_NUM_OF_ROOT_ENTRIESH,W
000E84 0100           04130         MOVLB 0
  00000000            04131 RAM_BANK = 0
000E86 A4D8           04132         BTFSS STATUS,2,0
                      04133         GO@TO BC@LL102
000E8C 0102           04134         MOVLB 2
  00000002            04135 RAM_BANK = 2
000E8E 51E6           04136         MOVF SD_FILE_NUM,W
000E90 5D61           04137         SUBWF SD_NUM_OF_ROOT_ENTRIES,W
000E92 0100           04138         MOVLB 0
  00000000            04139 RAM_BANK = 0
000E94 A4D8           04140         BTFSS STATUS,2,0
                      04141         GO@TO BC@LL102
  00000E9A            04142 F4_000373 EQU $ ; IN [V4.0 RFID 2ND GENERATION_LIB.PBP] FOR SD_ROOT_DIR_FILE_POS = $00 TO $07
000E9A 0102           04143         MOVLB 2
  00000002            04144 RAM_BANK = 2
000E9C 6B50           04145         CLRF SD_ROOT_DIR_FILE_POS
000E9E                04146 FR@LB104
000E9E 0100           04147         MOVLB 0
  00000000            04148 RAM_BANK = 0
000EA0 0E08           04149         MOVLW 8
000EA2 0102           04150         MOVLB 2
  00000002            04151 RAM_BANK = 2
000EA4 5D50           04152         SUBWF SD_ROOT_DIR_FILE_POS,W
000EA6 0100           04153         MOVLB 0
  00000000            04154 RAM_BANK = 0
000EA8 B0D8           04155         BTFSC STATUS,0,0
                      04156         GO@TO NX@LB105
  00000EAE            04157 F4_000374 EQU $ ; IN [V4.0 RFID 2ND GENERATION_LIB.PBP] SD_FILE_NAME[SD_ROOT_DIR_FILE_POS] = SD_ROOT_DIR_FILE[SD_ROOT_DIR_FILE_POS]
000EAE EE02 F09E      04158         LFSR 0,SD_ROOT_DIR_FILE
000EB2 0102           04159         MOVLB 2
  00000002            04160 RAM_BANK = 2
000EB4 5150           04161         MOVF SD_ROOT_DIR_FILE_POS,W
000EB6 CFEB F008      04162         MOVFF PLUSW0,PBP#VAR0
000EBA EE02 F091      04163         LFSR 0,SD_FILE_NAME
000EBE 5150           04164         MOVF SD_ROOT_DIR_FILE_POS,W
000EC0 C008 FFEB      04165         MOVFF PBP#VAR0,PLUSW0
  00000EC4            04166 F4_000375 EQU $ ; IN [V4.0 RFID 2ND GENERATION_LIB.PBP] NEXT SD_ROOT_DIR_FILE_POS
000EC4 2B50           04167         INCF SD_ROOT_DIR_FILE_POS,F
000EC6 0100           04168         MOVLB 0
  00000000            04169 RAM_BANK = 0
000EC8 A4D8           04170         BTFSS STATUS,2,0
                      04171         GO@TO FR@LB104
000ECC                04172 NX@LB105
  00000ECC            04173 F4_000376 EQU $ ; IN [V4.0 RFID 2ND GENERATION_LIB.PBP] FOR SD_ROOT_DIR_FILE_POS = $08 TO $0A
000ECC 0E08           04174         MOVLW 8
000ECE 0102           04175         MOVLB 2
  00000002            04176 RAM_BANK = 2
000ED0 6F50           04177         MOVWF SD_ROOT_DIR_FILE_POS
000ED2                04178 FR@LB106
000ED2 0100           04179         MOVLB 0
  00000000            04180 RAM_BANK = 0
000ED4 0E0B           04181         MOVLW 11
000ED6 0102           04182         MOVLB 2
  00000002            04183 RAM_BANK = 2
000ED8 5D50           04184         SUBWF SD_ROOT_DIR_FILE_POS,W
000EDA 0100           04185         MOVLB 0
  00000000            04186 RAM_BANK = 0
000EDC B0D8           04187         BTFSC STATUS,0,0
                      04188         GO@TO NX@LB107
  00000EE2            04189 F4_000377 EQU $ ; IN [V4.0 RFID 2ND GENERATION_LIB.PBP] SD_FILE_EXT[SD_ROOT_DIR_FILE_POS - $08] = SD_ROOT_DIR_FILE[SD_ROOT_DIR_FILE_POS]
000EE2 0E08           04190         MOVLW 8
000EE4 0102           04191         MOVLB 2
  00000002            04192 RAM_BANK = 2
000EE6 5D50           04193         SUBWF SD_ROOT_DIR_FILE_POS,W
000EE8 6E08           04194         MOVWF PBP#VAR0,0
000EEA EE02 F09E      04195         LFSR 0,SD_ROOT_DIR_FILE
000EEE 5150           04196         MOVF SD_ROOT_DIR_FILE_POS,W
000EF0 CFEB F00C      04197         MOVFF PLUSW0,PBP#VAR1
000EF4 EE02 F09A      04198         LFSR 0,SD_FILE_EXT
000EF8 5008           04199         MOVF PBP#VAR0,W,0
000EFA C00C FFEB      04200         MOVFF PBP#VAR1,PLUSW0
  00000EFE            04201 F4_000378 EQU $ ; IN [V4.0 RFID 2ND GENERATION_LIB.PBP] NEXT SD_ROOT_DIR_FILE_POS
000EFE 2B50           04202         INCF SD_ROOT_DIR_FILE_POS,F
000F00 0100           04203         MOVLB 0
  00000000            04204 RAM_BANK = 0
000F02 A4D8           04205         BTFSS STATUS,2,0
                      04206         GO@TO FR@LB106
000F06                04207 NX@LB107
  00000F06            04208 F4_000379 EQU $ ; IN [V4.0 RFID 2ND GENERATION_LIB.PBP] GOTO SD_STORE_ROOT_DIRECT_POSITION
                      04209         F@JUMP SD_STORE_ROOT_DIRECT_POSITION
  00000F0A            04210 F4_000380 EQU $ ; IN [V4.0 RFID 2ND GENERATION_LIB.PBP] ENDIF
000F0A                04211 BC@LL102
  00000F0A            04212 F4_000381 EQU $ ; IN [V4.0 RFID 2ND GENERATION_LIB.PBP] ENDIF
000F0A                04213 BC@LL100
  00000F0A            04214 F4_000382 EQU $ ; IN [V4.0 RFID 2ND GENERATION_LIB.PBP] ENDIF
000F0A                04215 BC@LL98
  00000F0A            04216 F4_000383 EQU $ ; IN [V4.0 RFID 2ND GENERATION_LIB.PBP] ENDIF
000F0A                04217 BC@LL96
  00000F0A            04218 F4_000384 EQU $ ; IN [V4.0 RFID 2ND GENERATION_LIB.PBP] ENDIF
000F0A                04219 BC@LL94
  00000F0A            04220 F4_000385 EQU $ ; IN [V4.0 RFID 2ND GENERATION_LIB.PBP] ENDSELECT
000F0A                04221 BC@LL92
000F0A                04222 BC@LL74
  00000F0A            04223 F4_000386 EQU $ ; IN [V4.0 RFID 2ND GENERATION_LIB.PBP] NEXT SD_BUFFER_POS
000F0A 0E20           04224         MOVLW 32
000F0C 0102           04225         MOVLB 2
  00000002            04226 RAM_BANK = 2
000F0E 274E           04227         ADDWF SD_BUFFER_POS,F
000F10 0100           04228         MOVLB 0
  00000000            04229 RAM_BANK = 0
000F12 A0D8           04230         BTFSS STATUS,0,0
                      04231         GO@TO FR@LB68
000F16 0102           04232         MOVLB 2
  00000002            04233 RAM_BANK = 2
000F18 2B4F           04234         INCF SD_BUFFER_POSH,F
000F1A 0100           04235         MOVLB 0
  00000000            04236 RAM_BANK = 0
000F1C A4D8           04237         BTFSS STATUS,2,0
                      04238         GO@TO FR@LB68
000F20                04239 NX@LB69
  00000F20            04240 F4_000387 EQU $ ; IN [V4.0 RFID 2ND GENERATION_LIB.PBP] NEXT SD_SEC_NUM
000F20 0102           04241         MOVLB 2
  00000002            04242 RAM_BANK = 2
000F22 2B51           04243         INCF SD_SEC_NUM,F
000F24 0E00           04244         MOVLW 0
000F26 2352           04245         ADDWFC SD_SEC_NUMH,F
000F28 2353           04246         ADDWFC SD_SEC_NUMHH,F
000F2A 2354           04247         ADDWFC SD_SEC_NUMHHH,F
000F2C 0100           04248         MOVLB 0
  00000000            04249 RAM_BANK = 0
000F2E A0D8           04250         BTFSS STATUS,0,0
                      04251         GO@TO FR@LB66
000F32                04252 NX@LB67
  00000F32            04253 F4_000388 EQU $ ; IN [V4.0 RFID 2ND GENERATION_LIB.PBP] SD_EXTENDED_RETURN_ROOT_DIR = 1
000F32 0E01           04254         MOVLW 1
000F34 0102           04255         MOVLB 2
  00000002            04256 RAM_BANK = 2
000F36 6F4C           04257         MOVWF SD_EXTENDED_RETURN_ROOT_DIR
  00000F38            04258 F4_000389 EQU $ ; IN [V4.0 RFID 2ND GENERATION_LIB.PBP] RETURN
000F38 0100           04259         MOVLB 0
  00000000            04260 RAM_BANK = 0
000F3A 0012           04261         RETURN 0
000F3C                04262 SD_STORE_ROOT_DIRECT_POSITION
  00000F3C            04263 F4_000391 EQU $ ; IN [V4.0 RFID 2ND GENERATION_LIB.PBP] SD_ROOT_DIR_SEC = SD_SEC_NUM - SD_ROOT_DIR
000F3C 0102           04264         MOVLB 2
  00000002            04265 RAM_BANK = 2
000F3E 516F           04266         MOVF SD_ROOT_DIR,W
000F40 5D51           04267         SUBWF SD_SEC_NUM,W
000F42 6F85           04268         MOVWF SD_ROOT_DIR_SEC
000F44 5170           04269         MOVF SD_ROOT_DIRH,W
000F46 5952           04270         SUBWFB SD_SEC_NUMH,W
000F48 6F86           04271         MOVWF SD_ROOT_DIR_SECH
000F4A 5171           04272         MOVF SD_ROOT_DIRHH,W
000F4C 5953           04273         SUBWFB SD_SEC_NUMHH,W
000F4E 6F87           04274         MOVWF SD_ROOT_DIR_SECHH
000F50 5172           04275         MOVF SD_ROOT_DIRHHH,W
000F52 5954           04276         SUBWFB SD_SEC_NUMHHH,W
000F54 6F88           04277         MOVWF SD_ROOT_DIR_SECHHH
  00000F56            04278 F4_000392 EQU $ ; IN [V4.0 RFID 2ND GENERATION_LIB.PBP] SD_ROOT_DIR_POS = SD_BUFFER_POS
000F56 C24F F28A      04279         MOVFF SD_BUFFER_POSH,SD_ROOT_DIR_POSH
000F5A C24E F289      04280         MOVFF SD_BUFFER_POS,SD_ROOT_DIR_POS
  00000F5E            04281 F4_000393 EQU $ ; IN [V4.0 RFID 2ND GENERATION_LIB.PBP] SD_EXTENDED_RETURN_ROOT_DIR = 0
000F5E 6B4C           04282         CLRF SD_EXTENDED_RETURN_ROOT_DIR
  00000F60            04283 F4_000394 EQU $ ; IN [V4.0 RFID 2ND GENERATION_LIB.PBP] RETURN
000F60 0100           04284         MOVLB 0
  00000000            04285 RAM_BANK = 0
000F62 0012           04286         RETURN 0
000F64                04287 SD_INSERT_BYTE_INTO_BUFFER
  00000F64            04288 F4_000397 EQU $ ; IN [V4.0 RFID 2ND GENERATION_LIB.PBP] IF SD_WRITE_BUFFER_POS > $0FF THEN
000F64 0E01           04289         MOVLW 1
000F66 0102           04290         MOVLB 2
  00000002            04291 RAM_BANK = 2
000F68 5DC3           04292         SUBWF SD_WRITE_BUFFER_POSH,W
000F6A 0100           04293         MOVLB 0
  00000000            04294 RAM_BANK = 0
000F6C A0D8           04295         BTFSS STATUS,0,0
                      04296         GO@TO BC@LL108
  00000F72            04297 F4_000398 EQU $ ; IN [V4.0 RFID 2ND GENERATION_LIB.PBP] SD_BUFFER1[SD_WRITE_BUFFER_POS - $100] = SD_DATA_IO
000F72 0102           04298         MOVLB 2
  00000002            04299 RAM_BANK = 2
000F74 51C2           04300         MOVF SD_WRITE_BUFFER_POS,W
000F76 EE01 F041      04301         LFSR 0,SD_BUFFER1
000F7A 26E9           04302         ADDWF FSR0L,F,0
000F7C 0E00           04303         MOVLW 0
000F7E 22EA           04304         ADDWFC FSR0H,F,0
000F80 C24D FFEF      04305         MOVFF SD_DATA_IO,INDF0
000F84 0100           04306         MOVLB 0
  00000000            04307 RAM_BANK = 0
                      04308         F@JUMP BC@LL109
000F8A                04309 BC@LL108
  00000F8A            04310 F4_000399 EQU $ ; IN [V4.0 RFID 2ND GENERATION_LIB.PBP] ELSE
  00000F8A            04311 F4_000400 EQU $ ; IN [V4.0 RFID 2ND GENERATION_LIB.PBP] SD_BUFFER0[SD_WRITE_BUFFER_POS] = SD_DATA_IO
000F8A EE00 F041      04312         LFSR 0,SD_BUFFER0
000F8E 0102           04313         MOVLB 2
  00000002            04314 RAM_BANK = 2
000F90 51C2           04315         MOVF SD_WRITE_BUFFER_POS,W
000F92 26E9           04316         ADDWF FSR0L,F,0
000F94 0E00           04317         MOVLW 0
000F96 22EA           04318         ADDWFC FSR0H,F,0
000F98 C24D FFEF      04319         MOVFF SD_DATA_IO,INDF0
  00000F9C            04320 F4_000401 EQU $ ; IN [V4.0 RFID 2ND GENERATION_LIB.PBP] ENDIF
000F9C                04321 BC@LL109
000F9C 0100           04322         MOVLB 0
  00000000            04323 RAM_BANK = 0
  00000F9E            04324 F4_000402 EQU $ ; IN [V4.0 RFID 2ND GENERATION_LIB.PBP] RETURN
000F9E 0012           04325         RETURN 0
000FA0                04326 SD_ASSEMBLE_FAT_SECTOR
  00000FA0            04327 F4_000405 EQU $ ; IN [V4.0 RFID 2ND GENERATION_LIB.PBP] SD_WRITE_BUFFER_POS = SD_FAT_BUFFER_POS_PREV
000FA0 C284 F2C3      04328         MOVFF SD_FAT_BUFFER_POS_PREVH,SD_WRITE_BUFFER_POSH
000FA4 C283 F2C2      04329         MOVFF SD_FAT_BUFFER_POS_PREV,SD_WRITE_BUFFER_POS
  00000FA8            04330 F4_000406 EQU $ ; IN [V4.0 RFID 2ND GENERATION_LIB.PBP] SD_CLUSTER_NUM = (SD_FAT_SEC_PREV * $100)
000FA8 C27F F2C6      04331         MOVFF SD_FAT_SEC_PREV,SD_CLUSTER_NUMH
000FAC 0102           04332         MOVLB 2
  00000002            04333 RAM_BANK = 2
000FAE 6BC5           04334         CLRF SD_CLUSTER_NUM
  00000FB0            04335 F4_000407 EQU $ ; IN [V4.0 RFID 2ND GENERATION_LIB.PBP] SD_CLUSTER_NUM = (SD_FAT_BUFFER_POS_PREV / 2) + SD_CLUSTER_NUM
000FB0 90D8           04336         BCF STATUS,0,0
000FB2 3184           04337         RRCF SD_FAT_BUFFER_POS_PREVH,W
000FB4 6E24           04338         MOVWF PP7H,0
000FB6 3183           04339         RRCF SD_FAT_BUFFER_POS_PREV,W
000FB8 6E23           04340         MOVWF PP7,0
000FBA 5023           04341         MOVF PP7,W,0
000FBC 27C5           04342         ADDWF SD_CLUSTER_NUM,F
000FBE 5024           04343         MOVF PP7H,W,0
000FC0 23C6           04344         ADDWFC SD_CLUSTER_NUMH,F
  00000FC2            04345 F4_000408 EQU $ ; IN [V4.0 RFID 2ND GENERATION_LIB.PBP] INC SD_CLUSTER_NUM
000FC2 4BC5           04346         INFSNZ SD_CLUSTER_NUM,F
000FC4 2BC6           04347         INCF SD_CLUSTER_NUMH,F
  00000FC6            04348 F4_000409 EQU $ ; IN [V4.0 RFID 2ND GENERATION_LIB.PBP] WHILE SD_CLUSTER_SEQ_NUM_PREV > 1
000FC6                04349 BC@LL110
000FC6 0100           04350         MOVLB 0
  00000000            04351 RAM_BANK = 0
000FC8 0102           04352         MOVLB 2
  00000002            04353 RAM_BANK = 2
000FCA 53DD           04354         MOVF SD_CLUSTER_SEQ_NUM_PREVH,F
000FCC E106           04355         BNZ CP@LB18
000FCE 0E02           04356         MOVLW 2
000FD0 5DDC           04357         SUBWF SD_CLUSTER_SEQ_NUM_PREV,W
000FD2 0100           04358         MOVLB 0
  00000000            04359 RAM_BANK = 0
000FD4 A0D8           04360         BTFSS STATUS,0,0
                      04361         GO@TO BC@LL111
000FDA                04362 CP@LB18
  00000FDA            04363 F4_000410 EQU $ ; IN [V4.0 RFID 2ND GENERATION_LIB.PBP] SD_DATA_IO = SD_CLUSTER_NUM.BYTE0
000FDA C2C5 F24D      04364         MOVFF SD_CLUSTER_NUM,SD_DATA_IO
  00000FDE            04365 F4_000411 EQU $ ; IN [V4.0 RFID 2ND GENERATION_LIB.PBP] GOSUB SD_INSERT_BYTE_INTO_BUFFER
                      04366         F@CALL SD_INSERT_BYTE_INTO_BUFFER
  00000FE0            04367 F4_000412 EQU $ ; IN [V4.0 RFID 2ND GENERATION_LIB.PBP] INC SD_WRITE_BUFFER_POS
000FE0 0102           04368         MOVLB 2
  00000002            04369 RAM_BANK = 2
000FE2 4BC2           04370         INFSNZ SD_WRITE_BUFFER_POS,F
000FE4 2BC3           04371         INCF SD_WRITE_BUFFER_POSH,F
  00000FE6            04372 F4_000413 EQU $ ; IN [V4.0 RFID 2ND GENERATION_LIB.PBP] SD_DATA_IO = SD_CLUSTER_NUM.BYTE1
000FE6 C2C6 F24D      04373         MOVFF SD_CLUSTER_NUMH,SD_DATA_IO
  00000FEA            04374 F4_000414 EQU $ ; IN [V4.0 RFID 2ND GENERATION_LIB.PBP] GOSUB SD_INSERT_BYTE_INTO_BUFFER
000FEA 0100           04375         MOVLB 0
  00000000            04376 RAM_BANK = 0
                      04377         F@CALL SD_INSERT_BYTE_INTO_BUFFER
  00000FEE            04378 F4_000415 EQU $ ; IN [V4.0 RFID 2ND GENERATION_LIB.PBP] INC SD_WRITE_BUFFER_POS
000FEE 0102           04379         MOVLB 2
  00000002            04380 RAM_BANK = 2
000FF0 4BC2           04381         INFSNZ SD_WRITE_BUFFER_POS,F
000FF2 2BC3           04382         INCF SD_WRITE_BUFFER_POSH,F
  00000FF4            04383 F4_000416 EQU $ ; IN [V4.0 RFID 2ND GENERATION_LIB.PBP] INC SD_CLUSTER_NUM
000FF4 4BC5           04384         INFSNZ SD_CLUSTER_NUM,F
000FF6 2BC6           04385         INCF SD_CLUSTER_NUMH,F
  00000FF8            04386 F4_000417 EQU $ ; IN [V4.0 RFID 2ND GENERATION_LIB.PBP] DEC SD_CLUSTER_SEQ_NUM_PREV
000FF8 07DC           04387         DECF SD_CLUSTER_SEQ_NUM_PREV,F
000FFA 0E00           04388         MOVLW 0
000FFC 5BDD           04389         SUBWFB SD_CLUSTER_SEQ_NUM_PREVH,F
  00000FFE            04390 F4_000418 EQU $ ; IN [V4.0 RFID 2ND GENERATION_LIB.PBP] WEND
000FFE 0100           04391         MOVLB 0
  00000000            04392 RAM_BANK = 0
                      04393         F@JUMP BC@LL110
001002                04394 BC@LL111
  00001002            04395 F4_000419 EQU $ ; IN [V4.0 RFID 2ND GENERATION_LIB.PBP] RETURN
001002 0012           04396         RETURN 0
001004                04397 SD_ASSEMBLE_FAT_SECTOR_END_CONT
  00001004            04398 F4_000422 EQU $ ; IN [V4.0 RFID 2ND GENERATION_LIB.PBP] SD_CLUSTER_NUM = (SD_FAT_SEC * $100)
001004 C279 F2C6      04399         MOVFF SD_FAT_SEC,SD_CLUSTER_NUMH
001008 0102           04400         MOVLB 2
  00000002            04401 RAM_BANK = 2
00100A 6BC5           04402         CLRF SD_CLUSTER_NUM
  0000100C            04403 F4_000423 EQU $ ; IN [V4.0 RFID 2ND GENERATION_LIB.PBP] SD_CLUSTER_NUM = (SD_FAT_BUFFER_POS / 2) + SD_CLUSTER_NUM
00100C 90D8           04404         BCF STATUS,0,0
00100E 317E           04405         RRCF SD_FAT_BUFFER_POSH,W
001010 6E24           04406         MOVWF PP7H,0
001012 317D           04407         RRCF SD_FAT_BUFFER_POS,W
001014 6E23           04408         MOVWF PP7,0
001016 5023           04409         MOVF PP7,W,0
001018 27C5           04410         ADDWF SD_CLUSTER_NUM,F
00101A 5024           04411         MOVF PP7H,W,0
00101C 23C6           04412         ADDWFC SD_CLUSTER_NUMH,F
  0000101E            04413 F4_000424 EQU $ ; IN [V4.0 RFID 2ND GENERATION_LIB.PBP] SD_DATA_IO = SD_CLUSTER_NUM.BYTE0
00101E C2C5 F24D      04414         MOVFF SD_CLUSTER_NUM,SD_DATA_IO
  00001022            04415 F4_000425 EQU $ ; IN [V4.0 RFID 2ND GENERATION_LIB.PBP] GOSUB SD_INSERT_BYTE_INTO_BUFFER
001022 0100           04416         MOVLB 0
  00000000            04417 RAM_BANK = 0
                      04418         F@CALL SD_INSERT_BYTE_INTO_BUFFER
  00001026            04419 F4_000426 EQU $ ; IN [V4.0 RFID 2ND GENERATION_LIB.PBP] INC SD_WRITE_BUFFER_POS
001026 0102           04420         MOVLB 2
  00000002            04421 RAM_BANK = 2
001028 4BC2           04422         INFSNZ SD_WRITE_BUFFER_POS,F
00102A 2BC3           04423         INCF SD_WRITE_BUFFER_POSH,F
  0000102C            04424 F4_000427 EQU $ ; IN [V4.0 RFID 2ND GENERATION_LIB.PBP] SD_DATA_IO = SD_CLUSTER_NUM.BYTE1
00102C C2C6 F24D      04425         MOVFF SD_CLUSTER_NUMH,SD_DATA_IO
  00001030            04426 F4_000428 EQU $ ; IN [V4.0 RFID 2ND GENERATION_LIB.PBP] GOSUB SD_INSERT_BYTE_INTO_BUFFER
001030 0100           04427         MOVLB 0
  00000000            04428 RAM_BANK = 0
                      04429         F@CALL SD_INSERT_BYTE_INTO_BUFFER
  00001034            04430 F4_000429 EQU $ ; IN [V4.0 RFID 2ND GENERATION_LIB.PBP] RETURN
001034 0012           04431         RETURN 0
001036                04432 SD_ASSEMBLE_FAT_SECTOR_END_CLOSE
  00001036            04433 F4_000432 EQU $ ; IN [V4.0 RFID 2ND GENERATION_LIB.PBP] SD_DATA_IO = $FF
001036 0102           04434         MOVLB 2
  00000002            04435 RAM_BANK = 2
001038 694D           04436         SETF SD_DATA_IO
  0000103A            04437 F4_000433 EQU $ ; IN [V4.0 RFID 2ND GENERATION_LIB.PBP] GOSUB SD_INSERT_BYTE_INTO_BUFFER
00103A 0100           04438         MOVLB 0
  00000000            04439 RAM_BANK = 0
                      04440         F@CALL SD_INSERT_BYTE_INTO_BUFFER
  0000103E            04441 F4_000434 EQU $ ; IN [V4.0 RFID 2ND GENERATION_LIB.PBP] INC SD_WRITE_BUFFER_POS
00103E 0102           04442         MOVLB 2
  00000002            04443 RAM_BANK = 2
001040 4BC2           04444         INFSNZ SD_WRITE_BUFFER_POS,F
001042 2BC3           04445         INCF SD_WRITE_BUFFER_POSH,F
  00001044            04446 F4_000435 EQU $ ; IN [V4.0 RFID 2ND GENERATION_LIB.PBP] GOSUB SD_INSERT_BYTE_INTO_BUFFER
001044 0100           04447         MOVLB 0
  00000000            04448 RAM_BANK = 0
                      04449         F@CALL SD_INSERT_BYTE_INTO_BUFFER
  00001048            04450 F4_000436 EQU $ ; IN [V4.0 RFID 2ND GENERATION_LIB.PBP] RETURN
001048 0012           04451         RETURN 0
00104A                04452 SD_WRITE_BYTE_TO_FILE_SUB
  0000104A            04453 F4_000439 EQU $ ; IN [V4.0 RFID 2ND GENERATION_LIB.PBP] INC SD_RW_PTR
00104A 0102           04454         MOVLB 2
  00000002            04455 RAM_BANK = 2
00104C 2BE1           04456         INCF SD_BYTES_READ,F
00104E 0E00           04457         MOVLW 0
001050 23E2           04458         ADDWFC SD_BYTES_READH,F
001052 23E3           04459         ADDWFC SD_BYTES_READHH,F
001054 23E4           04460         ADDWFC SD_BYTES_READHHH,F
  00001056            04461 F4_000440 EQU $ ; IN [V4.0 RFID 2ND GENERATION_LIB.PBP] IF SD_RW_PTR > SD_FILE_SIZE THEN
001056 51E1           04462         MOVF SD_BYTES_READ,W
001058 5DCC           04463         SUBWF SD_FILE_SIZE,W
00105A 51E2           04464         MOVF SD_BYTES_READH,W
00105C 59CD           04465         SUBWFB SD_FILE_SIZEH,W
00105E 51E3           04466         MOVF SD_BYTES_READHH,W
001060 59CE           04467         SUBWFB SD_FILE_SIZEHH,W
001062 51E4           04468         MOVF SD_BYTES_READHHH,W
001064 59CF           04469         SUBWFB SD_FILE_SIZEHHH,W
001066 51E4           04470         MOVF SD_BYTES_READHHH,W
001068 19CF           04471         XORWF SD_FILE_SIZEHHH,W
00106A B0D8           04472         BTFSC STATUS,0,0
00106C 0A80           04473         XORLW 128
00106E 0100           04474         MOVLB 0
  00000000            04475 RAM_BANK = 0
001070 B8D8           04476         BTFSC STATUS,4,0
                      04477         GO@TO BC@LL113
  00001076            04478 F4_000441 EQU $ ; IN [V4.0 RFID 2ND GENERATION_LIB.PBP] INC SD_FILE_SIZE
001076 0102           04479         MOVLB 2
  00000002            04480 RAM_BANK = 2
001078 2BCC           04481         INCF SD_FILE_SIZE,F
00107A 0E00           04482         MOVLW 0
00107C 23CD           04483         ADDWFC SD_FILE_SIZEH,F
00107E 23CE           04484         ADDWFC SD_FILE_SIZEHH,F
001080 23CF           04485         ADDWFC SD_FILE_SIZEHHH,F
  00001082            04486 F4_000442 EQU $ ; IN [V4.0 RFID 2ND GENERATION_LIB.PBP] SD_EOF = 1
001082 81E5           04487         BSF _B#VR1,0
  00001084            04488 F4_000443 EQU $ ; IN [V4.0 RFID 2ND GENERATION_LIB.PBP] ENDIF
001084                04489 BC@LL113
001084 0100           04490         MOVLB 0
  00000000            04491 RAM_BANK = 0
  00001086            04492 F4_000444 EQU $ ; IN [V4.0 RFID 2ND GENERATION_LIB.PBP] INC SD_DATA_BUFFER_POS
001086 0102           04493         MOVLB 2
  00000002            04494 RAM_BANK = 2
001088 4B8F           04495         INFSNZ SD_DATA_BUFFER_POS,F
00108A 2B90           04496         INCF SD_DATA_BUFFER_POSH,F
  0000108C            04497 F4_000445 EQU $ ; IN [V4.0 RFID 2ND GENERATION_LIB.PBP] IF SD_DATA_BUFFER_POS > SD_BYTES_PER_SEC THEN
00108C 518F           04498         MOVF SD_DATA_BUFFER_POS,W
00108E 5D5F           04499         SUBWF SD_BYTES_PER_SEC,W
001090 5190           04500         MOVF SD_DATA_BUFFER_POSH,W
001092 5960           04501         SUBWFB SD_BYTES_PER_SECH,W
001094 0100           04502         MOVLB 0
  00000000            04503 RAM_BANK = 0
001096 B0D8           04504         BTFSC STATUS,0,0
                      04505         GO@TO BC@LL115
  0000109C            04506 F4_000446 EQU $ ; IN [V4.0 RFID 2ND GENERATION_LIB.PBP] INC SD_DATA_SEC
00109C 0102           04507         MOVLB 2
  00000002            04508 RAM_BANK = 2
00109E 2B8B           04509         INCF SD_DATA_SEC,F
0010A0 0E00           04510         MOVLW 0
0010A2 238C           04511         ADDWFC SD_DATA_SECH,F
0010A4 238D           04512         ADDWFC SD_DATA_SECHH,F
0010A6 238E           04513         ADDWFC SD_DATA_SECHHH,F
  000010A8            04514 F4_000447 EQU $ ; IN [V4.0 RFID 2ND GENERATION_LIB.PBP] INC SD_SEC_IN_CLUSTER
0010A8 2BCB           04515         INCF SD_SEC_IN_CLUSTER,F
  000010AA            04516 F4_000448 EQU $ ; IN [V4.0 RFID 2ND GENERATION_LIB.PBP] IF SD_SEC_IN_CLUSTER > SD_SECS_PER_CLUSTER THEN
0010AA 51CB           04517         MOVF SD_SEC_IN_CLUSTER,W
0010AC 5D55           04518         SUBWF SD_SECS_PER_CLUSTER,W
0010AE 0100           04519         MOVLB 0
  00000000            04520 RAM_BANK = 0
0010B0 B0D8           04521         BTFSC STATUS,0,0
                      04522         GO@TO BC@LL117
  000010B6            04523 F4_000449 EQU $ ; IN [V4.0 RFID 2ND GENERATION_LIB.PBP] IF SD_EOF = 0 THEN
0010B6 0102           04524         MOVLB 2
  00000002            04525 RAM_BANK = 2
0010B8 31E5           04526         RRCF _B#VR1,W
0010BA 0100           04527         MOVLB 0
  00000000            04528 RAM_BANK = 0
0010BC B0D8           04529         BTFSC STATUS,0,0
                      04530         GO@TO BC@LL119
  000010C2            04531 F4_000450 EQU $ ; IN [V4.0 RFID 2ND GENERATION_LIB.PBP] SD_FAT_SEC = SD_CLUSTER_NUM / $100
0010C2 6A14           04532         CLRF PP0HHH,0
0010C4 6A13           04533         CLRF PP0HH,0
0010C6 C2C6 F012      04534         MOVFF SD_CLUSTER_NUMH,PP0H
0010CA C2C5 F011      04535         MOVFF SD_CLUSTER_NUM,PP0
0010CE 6A1C           04536         CLRF PP2HHH,0
0010D0 6A1B           04537         CLRF PP2HH,0
0010D2 0E01           04538         MOVLW 1
0010D4 6E1A           04539         MOVWF PP2H,0
0010D6 6A19           04540         CLRF PP2,0
                      04541         F@CALL L@DIV
0010DC C014 F27C      04542         MOVFF PP0HHH,SD_FAT_SECHHH
0010E0 C013 F27B      04543         MOVFF PP0HH,SD_FAT_SECHH
0010E4 C012 F27A      04544         MOVFF PP0H,SD_FAT_SECH
0010E8 C011 F279      04545         MOVFF PP0,SD_FAT_SEC
  000010EC            04546 F4_000451 EQU $ ; IN [V4.0 RFID 2ND GENERATION_LIB.PBP] SD_FAT_BUFFER_POS = SD_CLUSTER_NUM // $100
0010EC C2C5 F27D      04547         MOVFF SD_CLUSTER_NUM,SD_FAT_BUFFER_POS
0010F0 0102           04548         MOVLB 2
  00000002            04549 RAM_BANK = 2
0010F2 6B7E           04550         CLRF SD_FAT_BUFFER_POSH
  000010F4            04551 F4_000452 EQU $ ; IN [V4.0 RFID 2ND GENERATION_LIB.PBP] SD_FAT_BUFFER_POS = SD_FAT_BUFFER_POS * 2
0010F4 90D8           04552         BCF STATUS,0,0
0010F6 377D           04553         RLCF SD_FAT_BUFFER_POS,F
0010F8 377E           04554         RLCF SD_FAT_BUFFER_POSH,F
  000010FA            04555 F4_000453 EQU $ ; IN [V4.0 RFID 2ND GENERATION_LIB.PBP] SD_SECTOR_NUM = SD_FAT1 + SD_FAT_SEC
0010FA 5179           04556         MOVF SD_FAT_SEC,W
0010FC 2567           04557         ADDWF SD_FAT1,W
0010FE 6E34           04558         MOVWF SD_SECTOR_NUM,0
001100 517A           04559         MOVF SD_FAT_SECH,W
001102 2168           04560         ADDWFC SD_FAT1H,W
001104 6E35           04561         MOVWF SD_SECTOR_NUMH,0
001106 517B           04562         MOVF SD_FAT_SECHH,W
001108 2169           04563         ADDWFC SD_FAT1HH,W
00110A 6E36           04564         MOVWF SD_SECTOR_NUMHH,0
00110C 517C           04565         MOVF SD_FAT_SECHHH,W
00110E 216A           04566         ADDWFC SD_FAT1HHH,W
001110 6E37           04567         MOVWF SD_SECTOR_NUMHHH,0
  00001112            04568 F4_000454 EQU $ ; IN [V4.0 RFID 2ND GENERATION_LIB.PBP] SD_RW_OPTION = 1
001112 0E01           04569         MOVLW 1
001114 6F4A           04570         MOVWF SD_RW_OPTION
  00001116            04571 F4_000455 EQU $ ; IN [V4.0 RFID 2ND GENERATION_LIB.PBP] GOSUB SD_SECTOR_SUB
001116 0100           04572         MOVLB 0
  00000000            04573 RAM_BANK = 0
                      04574         F@CALL SD_SECTOR_SUB
  0000111C            04575 F4_000456 EQU $ ; IN [V4.0 RFID 2ND GENERATION_LIB.PBP] SD_BUFFER_POS = SD_FAT_BUFFER_POS
00111C C27E F24F      04576         MOVFF SD_FAT_BUFFER_POSH,SD_BUFFER_POSH
001120 C27D F24E      04577         MOVFF SD_FAT_BUFFER_POS,SD_BUFFER_POS
  00001124            04578 F4_000457 EQU $ ; IN [V4.0 RFID 2ND GENERATION_LIB.PBP] GOSUB SD_READ_FAT_ENTRY
                      04579         F@CALL SD_READ_FAT_ENTRY
  00001128            04580 F4_000458 EQU $ ; IN [V4.0 RFID 2ND GENERATION_LIB.PBP] SD_CLUSTER_NUM = SD_FAT_ENTRY
001128 C278 F2C6      04581         MOVFF SD_FAT_ENTRYH,SD_CLUSTER_NUMH
00112C C277 F2C5      04582         MOVFF SD_FAT_ENTRY,SD_CLUSTER_NUM
  00001130            04583 F4_000459 EQU $ ; IN [V4.0 RFID 2ND GENERATION_LIB.PBP] SD_DATA_SEC = (SD_CLUSTER_NUM - 2) * SD_SECS_PER_CLUSTER
001130 0EFE           04584         MOVLW 254
001132 0102           04585         MOVLB 2
  00000002            04586 RAM_BANK = 2
001134 25C5           04587         ADDWF SD_CLUSTER_NUM,W
001136 6E23           04588         MOVWF PP7,0
001138 0EFF           04589         MOVLW 255
00113A 21C6           04590         ADDWFC SD_CLUSTER_NUMH,W
00113C 6E24           04591         MOVWF PP7H,0
00113E 0EFF           04592         MOVLW 255
001140 6A25           04593         CLRF PP7HH,0
001142 2225           04594         ADDWFC PP7HH,F,0
001144 6A26           04595         CLRF PP7HHH,0
001146 2226           04596         ADDWFC PP7HHH,F,0
001148 C026 F014      04597         MOVFF PP7HHH,PP0HHH
00114C C025 F013      04598         MOVFF PP7HH,PP0HH
001150 C024 F012      04599         MOVFF PP7H,PP0H
001154 C023 F011      04600         MOVFF PP7,PP0
001158 6A1C           04601         CLRF PP2HHH,0
00115A 6A1B           04602         CLRF PP2HH,0
00115C 6A1A           04603         CLRF PP2H,0
00115E C255 F019      04604         MOVFF SD_SECS_PER_CLUSTER,PP2
                      04605         F@CALL AL@MUL
001166 C014 F28E      04606         MOVFF PP0HHH,SD_DATA_SECHHH
00116A C013 F28D      04607         MOVFF PP0HH,SD_DATA_SECHH
00116E C012 F28C      04608         MOVFF PP0H,SD_DATA_SECH
001172 C011 F28B      04609         MOVFF PP0,SD_DATA_SEC
  00001176            04610 F4_000460 EQU $ ; IN [V4.0 RFID 2ND GENERATION_LIB.PBP] SD_DATA_SEC = SD_DATA_SEC + SD_DATA_AREA
001176 5173           04611         MOVF SD_DATA_AREA,W
001178 278B           04612         ADDWF SD_DATA_SEC,F
00117A 5174           04613         MOVF SD_DATA_AREAH,W
00117C 238C           04614         ADDWFC SD_DATA_SECH,F
00117E 5175           04615         MOVF SD_DATA_AREAHH,W
001180 238D           04616         ADDWFC SD_DATA_SECHH,F
001182 5176           04617         MOVF SD_DATA_AREAHHH,W
001184 238E           04618         ADDWFC SD_DATA_SECHHH,F
  00001186            04619 F4_000461 EQU $ ; IN [V4.0 RFID 2ND GENERATION_LIB.PBP] SD_SECTOR_NUM = SD_DATA_SEC
001186 C28E F037      04620         MOVFF SD_DATA_SECHHH,SD_SECTOR_NUMHHH
00118A C28D F036      04621         MOVFF SD_DATA_SECHH,SD_SECTOR_NUMHH
00118E C28C F035      04622         MOVFF SD_DATA_SECH,SD_SECTOR_NUMH
001192 C28B F034      04623         MOVFF SD_DATA_SEC,SD_SECTOR_NUM
  00001196            04624 F4_000462 EQU $ ; IN [V4.0 RFID 2ND GENERATION_LIB.PBP] SD_RW_OPTION = 1
001196 0E01           04625         MOVLW 1
001198 6F4A           04626         MOVWF SD_RW_OPTION
  0000119A            04627 F4_000463 EQU $ ; IN [V4.0 RFID 2ND GENERATION_LIB.PBP] GOSUB SD_SECTOR_SUB
00119A 0100           04628         MOVLB 0
  00000000            04629 RAM_BANK = 0
                      04630         F@CALL SD_SECTOR_SUB
  000011A0            04631 F4_000464 EQU $ ; IN [V4.0 RFID 2ND GENERATION_LIB.PBP] SD_SEC_IN_CLUSTER = 1
0011A0 0E01           04632         MOVLW 1
0011A2 0102           04633         MOVLB 2
  00000002            04634 RAM_BANK = 2
0011A4 6FCB           04635         MOVWF SD_SEC_IN_CLUSTER
  000011A6            04636 F4_000466 EQU $ ; IN [V4.0 RFID 2ND GENERATION_LIB.PBP] SD_FAT_SEC = SD_CLUSTER_NUM / $100
0011A6 6A14           04637         CLRF PP0HHH,0
0011A8 6A13           04638         CLRF PP0HH,0
0011AA C2C6 F012      04639         MOVFF SD_CLUSTER_NUMH,PP0H
0011AE C2C5 F011      04640         MOVFF SD_CLUSTER_NUM,PP0
0011B2 6A1C           04641         CLRF PP2HHH,0
0011B4 6A1B           04642         CLRF PP2HH,0
0011B6 6E1A           04643         MOVWF PP2H,0
0011B8 6A19           04644         CLRF PP2,0
                      04645         F@CALL L@DIV
0011BE C014 F27C      04646         MOVFF PP0HHH,SD_FAT_SECHHH
0011C2 C013 F27B      04647         MOVFF PP0HH,SD_FAT_SECHH
0011C6 C012 F27A      04648         MOVFF PP0H,SD_FAT_SECH
0011CA C011 F279      04649         MOVFF PP0,SD_FAT_SEC
  000011CE            04650 F4_000467 EQU $ ; IN [V4.0 RFID 2ND GENERATION_LIB.PBP] SD_FAT_BUFFER_POS = SD_CLUSTER_NUM // $100
0011CE C2C5 F27D      04651         MOVFF SD_CLUSTER_NUM,SD_FAT_BUFFER_POS
0011D2 6B7E           04652         CLRF SD_FAT_BUFFER_POSH
  000011D4            04653 F4_000468 EQU $ ; IN [V4.0 RFID 2ND GENERATION_LIB.PBP] SD_FAT_BUFFER_POS = SD_FAT_BUFFER_POS * 2
0011D4 90D8           04654         BCF STATUS,0,0
0011D6 377D           04655         RLCF SD_FAT_BUFFER_POS,F
0011D8 377E           04656         RLCF SD_FAT_BUFFER_POSH,F
0011DA 0100           04657         MOVLB 0
  00000000            04658 RAM_BANK = 0
                      04659         F@JUMP BC@LL120
0011E0                04660 BC@LL119
  000011E0            04661 F4_000470 EQU $ ; IN [V4.0 RFID 2ND GENERATION_LIB.PBP] ELSE
  000011E0            04662 F4_000471 EQU $ ; IN [V4.0 RFID 2ND GENERATION_LIB.PBP] INC SD_CLUSTER_SEQ_IDX
0011E0 0102           04663         MOVLB 2
  00000002            04664 RAM_BANK = 2
0011E2 4BDA           04665         INFSNZ SD_CLUSTER_SEQ_IDX,F
0011E4 2BDB           04666         INCF SD_CLUSTER_SEQ_IDXH,F
  000011E6            04667 F4_000472 EQU $ ; IN [V4.0 RFID 2ND GENERATION_LIB.PBP] IF SD_CLUSTER_SEQ_IDX > SD_CLUSTER_SEQ_NUM THEN
0011E6 51DA           04668         MOVF SD_CLUSTER_SEQ_IDX,W
0011E8 5DD8           04669         SUBWF SD_CLUSTER_SEQ_NUM,W
0011EA 51DB           04670         MOVF SD_CLUSTER_SEQ_IDXH,W
0011EC 59D9           04671         SUBWFB SD_CLUSTER_SEQ_NUMH,W
0011EE 0100           04672         MOVLB 0
  00000000            04673 RAM_BANK = 0
0011F0 B0D8           04674         BTFSC STATUS,0,0
                      04675         GO@TO BC@LL122
  000011F6            04676 F4_000473 EQU $ ; IN [V4.0 RFID 2ND GENERATION_LIB.PBP] SD_FAT_BUFFER_POS_PREV = SD_FAT_BUFFER_POS
0011F6 C27E F284      04677         MOVFF SD_FAT_BUFFER_POSH,SD_FAT_BUFFER_POS_PREVH
0011FA C27D F283      04678         MOVFF SD_FAT_BUFFER_POS,SD_FAT_BUFFER_POS_PREV
  000011FE            04679 F4_000474 EQU $ ; IN [V4.0 RFID 2ND GENERATION_LIB.PBP] SD_FAT_SEC_PREV = SD_FAT_SEC
0011FE C27C F282      04680         MOVFF SD_FAT_SECHHH,SD_FAT_SEC_PREVHHH
001202 C27B F281      04681         MOVFF SD_FAT_SECHH,SD_FAT_SEC_PREVHH
001206 C27A F280      04682         MOVFF SD_FAT_SECH,SD_FAT_SEC_PREVH
00120A C279 F27F      04683         MOVFF SD_FAT_SEC,SD_FAT_SEC_PREV
  0000120E            04684 F4_000475 EQU $ ; IN [V4.0 RFID 2ND GENERATION_LIB.PBP] SD_CLUSTER_SEQ_IDX_PREV = SD_CLUSTER_SEQ_IDX
00120E C2DB F2DF      04685         MOVFF SD_CLUSTER_SEQ_IDXH,SD_CLUSTER_SEQ_IDX_PREVH
001212 C2DA F2DE      04686         MOVFF SD_CLUSTER_SEQ_IDX,SD_CLUSTER_SEQ_IDX_PREV
  00001216            04687 F4_000476 EQU $ ; IN [V4.0 RFID 2ND GENERATION_LIB.PBP] SD_CLUSTER_SEQ_NUM_PREV = SD_CLUSTER_SEQ_NUM
001216 C2D9 F2DD      04688         MOVFF SD_CLUSTER_SEQ_NUMH,SD_CLUSTER_SEQ_NUM_PREVH
00121A C2D8 F2DC      04689         MOVFF SD_CLUSTER_SEQ_NUM,SD_CLUSTER_SEQ_NUM_PREV
  0000121E            04690 F4_000478 EQU $ ; IN [V4.0 RFID 2ND GENERATION_LIB.PBP] GOSUB SD_FIND_FREE_CLUSTER
                      04691         F@CALL SD_FIND_FREE_CLUSTER
  00001222            04692 F4_000479 EQU $ ; IN [V4.0 RFID 2ND GENERATION_LIB.PBP] IF SD_EXTENDED_RETURN = 1 THEN RETURN
001222 0E01           04693         MOVLW 1
001224 0102           04694         MOVLB 2
  00000002            04695 RAM_BANK = 2
001226 5D4B           04696         SUBWF SD_EXTENDED_RETURN,W
001228 0100           04697         MOVLB 0
  00000000            04698 RAM_BANK = 0
00122A A4D8           04699         BTFSS STATUS,2,0
                      04700         GO@TO BC@LL124
001230 0012           04701         RETURN 0
001232                04702 BC@LL124
  00001232            04703 F4_000480 EQU $ ; IN [V4.0 RFID 2ND GENERATION_LIB.PBP] SD_WRITE_SEC_NUM = SD_FAT1 + SD_FAT_SEC_PREV
001232 0102           04704         MOVLB 2
  00000002            04705 RAM_BANK = 2
001234 517F           04706         MOVF SD_FAT_SEC_PREV,W
001236 2567           04707         ADDWF SD_FAT1,W
001238 6FBE           04708         MOVWF SD_WRITE_SEC_NUM
00123A 5180           04709         MOVF SD_FAT_SEC_PREVH,W
00123C 2168           04710         ADDWFC SD_FAT1H,W
00123E 6FBF           04711         MOVWF SD_WRITE_SEC_NUMH
001240 5181           04712         MOVF SD_FAT_SEC_PREVHH,W
001242 2169           04713         ADDWFC SD_FAT1HH,W
001244 6FC0           04714         MOVWF SD_WRITE_SEC_NUMHH
001246 5182           04715         MOVF SD_FAT_SEC_PREVHHH,W
001248 216A           04716         ADDWFC SD_FAT1HHH,W
00124A 6FC1           04717         MOVWF SD_WRITE_SEC_NUMHHH
  0000124C            04718 F4_000481 EQU $ ; IN [V4.0 RFID 2ND GENERATION_LIB.PBP] SD_SECTOR_NUM = SD_WRITE_SEC_NUM
00124C C2C1 F037      04719         MOVFF SD_WRITE_SEC_NUMHHH,SD_SECTOR_NUMHHH
001250 C2C0 F036      04720         MOVFF SD_WRITE_SEC_NUMHH,SD_SECTOR_NUMHH
001254 C2BF F035      04721         MOVFF SD_WRITE_SEC_NUMH,SD_SECTOR_NUMH
001258 C2BE F034      04722         MOVFF SD_WRITE_SEC_NUM,SD_SECTOR_NUM
  0000125C            04723 F4_000482 EQU $ ; IN [V4.0 RFID 2ND GENERATION_LIB.PBP] SD_RW_OPTION = 1
00125C 0E01           04724         MOVLW 1
00125E 6F4A           04725         MOVWF SD_RW_OPTION
  00001260            04726 F4_000483 EQU $ ; IN [V4.0 RFID 2ND GENERATION_LIB.PBP] GOSUB SD_SECTOR_SUB
001260 0100           04727         MOVLB 0
  00000000            04728 RAM_BANK = 0
                      04729         F@CALL SD_SECTOR_SUB
  00001266            04730 F4_000485 EQU $ ; IN [V4.0 RFID 2ND GENERATION_LIB.PBP] GOSUB SD_ASSEMBLE_FAT_SECTOR
                      04731         F@CALL SD_ASSEMBLE_FAT_SECTOR
  00001268            04732 F4_000486 EQU $ ; IN [V4.0 RFID 2ND GENERATION_LIB.PBP] GOSUB SD_ASSEMBLE_FAT_SECTOR_END_CONT
                      04733         F@CALL SD_ASSEMBLE_FAT_SECTOR_END_CONT
  0000126A            04734 F4_000487 EQU $ ; IN [V4.0 RFID 2ND GENERATION_LIB.PBP] GOSUB SD_WRITE_SECTOR
                      04735         F@CALL SD_WRITE_SECTOR
  0000126E            04736 F4_000488 EQU $ ; IN [V4.0 RFID 2ND GENERATION_LIB.PBP] SD_SECTOR_NUM = SD_FAT2 + SD_FAT_SEC_PREV
00126E 0102           04737         MOVLB 2
  00000002            04738 RAM_BANK = 2
001270 517F           04739         MOVF SD_FAT_SEC_PREV,W
001272 256B           04740         ADDWF SD_FAT2,W
001274 6E34           04741         MOVWF SD_SECTOR_NUM,0
001276 5180           04742         MOVF SD_FAT_SEC_PREVH,W
001278 216C           04743         ADDWFC SD_FAT2H,W
00127A 6E35           04744         MOVWF SD_SECTOR_NUMH,0
00127C 5181           04745         MOVF SD_FAT_SEC_PREVHH,W
00127E 216D           04746         ADDWFC SD_FAT2HH,W
001280 6E36           04747         MOVWF SD_SECTOR_NUMHH,0
001282 5182           04748         MOVF SD_FAT_SEC_PREVHHH,W
001284 216E           04749         ADDWFC SD_FAT2HHH,W
001286 6E37           04750         MOVWF SD_SECTOR_NUMHHH,0
  00001288            04751 F4_000489 EQU $ ; IN [V4.0 RFID 2ND GENERATION_LIB.PBP] GOSUB SD_WRITE_SECTOR
001288 0100           04752         MOVLB 0
  00000000            04753 RAM_BANK = 0
                      04754         F@CALL SD_WRITE_SECTOR
  0000128E            04755 F4_000490 EQU $ ; IN [V4.0 RFID 2ND GENERATION_LIB.PBP] SD_DATA_SEC = (SD_CLUSTER_NUM - 2) * SD_SECS_PER_CLUSTER
00128E 0EFE           04756         MOVLW 254
001290 0102           04757         MOVLB 2
  00000002            04758 RAM_BANK = 2
001292 25C5           04759         ADDWF SD_CLUSTER_NUM,W
001294 6E23           04760         MOVWF PP7,0
001296 0EFF           04761         MOVLW 255
001298 21C6           04762         ADDWFC SD_CLUSTER_NUMH,W
00129A 6E24           04763         MOVWF PP7H,0
00129C 0EFF           04764         MOVLW 255
00129E 6A25           04765         CLRF PP7HH,0
0012A0 2225           04766         ADDWFC PP7HH,F,0
0012A2 6A26           04767         CLRF PP7HHH,0
0012A4 2226           04768         ADDWFC PP7HHH,F,0
0012A6 C026 F014      04769         MOVFF PP7HHH,PP0HHH
0012AA C025 F013      04770         MOVFF PP7HH,PP0HH
0012AE C024 F012      04771         MOVFF PP7H,PP0H
0012B2 C023 F011      04772         MOVFF PP7,PP0
0012B6 6A1C           04773         CLRF PP2HHH,0
0012B8 6A1B           04774         CLRF PP2HH,0
0012BA 6A1A           04775         CLRF PP2H,0
0012BC C255 F019      04776         MOVFF SD_SECS_PER_CLUSTER,PP2
                      04777         F@CALL AL@MUL
0012C4 C014 F28E      04778         MOVFF PP0HHH,SD_DATA_SECHHH
0012C8 C013 F28D      04779         MOVFF PP0HH,SD_DATA_SECHH
0012CC C012 F28C      04780         MOVFF PP0H,SD_DATA_SECH
0012D0 C011 F28B      04781         MOVFF PP0,SD_DATA_SEC
  000012D4            04782 F4_000491 EQU $ ; IN [V4.0 RFID 2ND GENERATION_LIB.PBP] SD_DATA_SEC = SD_DATA_SEC + SD_DATA_AREA
0012D4 5173           04783         MOVF SD_DATA_AREA,W
0012D6 278B           04784         ADDWF SD_DATA_SEC,F
0012D8 5174           04785         MOVF SD_DATA_AREAH,W
0012DA 238C           04786         ADDWFC SD_DATA_SECH,F
0012DC 5175           04787         MOVF SD_DATA_AREAHH,W
0012DE 238D           04788         ADDWFC SD_DATA_SECHH,F
0012E0 5176           04789         MOVF SD_DATA_AREAHHH,W
0012E2 238E           04790         ADDWFC SD_DATA_SECHHH,F
  000012E4            04791 F4_000492 EQU $ ; IN [V4.0 RFID 2ND GENERATION_LIB.PBP] SD_SECTOR_NUM = SD_DATA_SEC
0012E4 C28E F037      04792         MOVFF SD_DATA_SECHHH,SD_SECTOR_NUMHHH
0012E8 C28D F036      04793         MOVFF SD_DATA_SECHH,SD_SECTOR_NUMHH
0012EC C28C F035      04794         MOVFF SD_DATA_SECH,SD_SECTOR_NUMH
0012F0 C28B F034      04795         MOVFF SD_DATA_SEC,SD_SECTOR_NUM
  000012F4            04796 F4_000493 EQU $ ; IN [V4.0 RFID 2ND GENERATION_LIB.PBP] SD_RW_OPTION = 0
0012F4 6B4A           04797         CLRF SD_RW_OPTION
  000012F6            04798 F4_000494 EQU $ ; IN [V4.0 RFID 2ND GENERATION_LIB.PBP] GOSUB SD_SECTOR_SUB
0012F6 0100           04799         MOVLB 0
  00000000            04800 RAM_BANK = 0
                      04801         F@CALL SD_SECTOR_SUB
                      04802         F@JUMP BC@LL125
001300                04803 BC@LL122
  00001300            04804 F4_000496 EQU $ ; IN [V4.0 RFID 2ND GENERATION_LIB.PBP] ELSE
  00001300            04805 F4_000497 EQU $ ; IN [V4.0 RFID 2ND GENERATION_LIB.PBP] INC SD_CLUSTER_NUM
001300 0102           04806         MOVLB 2
  00000002            04807 RAM_BANK = 2
001302 4BC5           04808         INFSNZ SD_CLUSTER_NUM,F
001304 2BC6           04809         INCF SD_CLUSTER_NUMH,F
  00001306            04810 F4_000498 EQU $ ; IN [V4.0 RFID 2ND GENERATION_LIB.PBP] ENDIF
001306                04811 BC@LL125
001306 0100           04812         MOVLB 0
  00000000            04813 RAM_BANK = 0
  00001308            04814 F4_000499 EQU $ ; IN [V4.0 RFID 2ND GENERATION_LIB.PBP] SD_SEC_IN_CLUSTER = 1
001308 0E01           04815         MOVLW 1
00130A 0102           04816         MOVLB 2
  00000002            04817 RAM_BANK = 2
00130C 6FCB           04818         MOVWF SD_SEC_IN_CLUSTER
  0000130E            04819 F4_000500 EQU $ ; IN [V4.0 RFID 2ND GENERATION_LIB.PBP] ENDIF
00130E                04820 BC@LL120
00130E 0100           04821         MOVLB 0
  00000000            04822 RAM_BANK = 0
                      04823         F@JUMP BC@LL126
001314                04824 BC@LL117
  00001314            04825 F4_000501 EQU $ ; IN [V4.0 RFID 2ND GENERATION_LIB.PBP] ELSE
  00001314            04826 F4_000502 EQU $ ; IN [V4.0 RFID 2ND GENERATION_LIB.PBP] GOSUB SD_READ_SECTOR
                      04827         F@CALL SD_READ_SECTOR
  00001318            04828 F4_000503 EQU $ ; IN [V4.0 RFID 2ND GENERATION_LIB.PBP] ENDIF
001318                04829 BC@LL126
  00001318            04830 F4_000504 EQU $ ; IN [V4.0 RFID 2ND GENERATION_LIB.PBP] SD_DATA_BUFFER_POS = 1
001318 0102           04831         MOVLB 2
  00000002            04832 RAM_BANK = 2
00131A 6B90           04833         CLRF SD_DATA_BUFFER_POSH
00131C 0E01           04834         MOVLW 1
00131E 6F8F           04835         MOVWF SD_DATA_BUFFER_POS
  00001320            04836 F4_000505 EQU $ ; IN [V4.0 RFID 2ND GENERATION_LIB.PBP] ENDIF
001320                04837 BC@LL115
001320 0100           04838         MOVLB 0
  00000000            04839 RAM_BANK = 0
  00001322            04840 F4_000506 EQU $ ; IN [V4.0 RFID 2ND GENERATION_LIB.PBP] SD_BYTE_RW = SD_IO_BYTE
001322 C2D0 F249      04841         MOVFF SD_IO_BYTE,SD_BYTE_RW
  00001326            04842 F4_000507 EQU $ ; IN [V4.0 RFID 2ND GENERATION_LIB.PBP] GOSUB SD_WRITE_SUB
                      04843         F@CALL SD_WRITE_SUB
  0000132A            04844 F4_000508 EQU $ ; IN [V4.0 RFID 2ND GENERATION_LIB.PBP] SD_EXTENDED_RETURN = 0
00132A 0102           04845         MOVLB 2
  00000002            04846 RAM_BANK = 2
00132C 6B4B           04847         CLRF SD_EXTENDED_RETURN
  0000132E            04848 F4_000509 EQU $ ; IN [V4.0 RFID 2ND GENERATION_LIB.PBP] RETURN
00132E 0100           04849         MOVLB 0
  00000000            04850 RAM_BANK = 0
001330 0012           04851         RETURN 0
001332                04852 SD_CHECK_FOR_FILE_SUB
  00001332            04853 F4_000512 EQU $ ; IN [V4.0 RFID 2ND GENERATION_LIB.PBP] SD_FIND_ROOT_DIR_ENTRY_F = 1
001332 0E01           04854         MOVLW 1
001334 0102           04855         MOVLB 2
  00000002            04856 RAM_BANK = 2
001336 6FE0           04857         MOVWF SD_FIND_ROOT_DIR_ENTRY_F
  00001338            04858 F4_000513 EQU $ ; IN [V4.0 RFID 2ND GENERATION_LIB.PBP] GOSUB SD_FIND_ROOT_DIR_ENTRY
001338 0100           04859         MOVLB 0
  00000000            04860 RAM_BANK = 0
                      04861         F@CALL SD_FIND_ROOT_DIR_ENTRY
  0000133E            04862 F4_000514 EQU $ ; IN [V4.0 RFID 2ND GENERATION_LIB.PBP] RETURN
00133E 0012           04863         RETURN 0
001340                04864 SD_READ_SUB
  00001340            04865 F4_000517 EQU $ ; IN [V4.0 RFID 2ND GENERATION_LIB.PBP] IF SD_BUFFER_IDX > $1FF THEN
001340 0E02           04866         MOVLW 2
001342 0102           04867         MOVLB 2
  00000002            04868 RAM_BANK = 2
001344 5D48           04869         SUBWF SD_BUFFER_IDXH,W
001346 0100           04870         MOVLB 0
  00000000            04871 RAM_BANK = 0
001348 A0D8           04872         BTFSS STATUS,0,0
                      04873         GO@TO BC@LL128
  0000134E            04874 F4_000524 EQU $ ; IN [V4.0 RFID 2ND GENERATION_LIB.PBP] SD_BUFFER_IDX = 0
00134E 0102           04875         MOVLB 2
  00000002            04876 RAM_BANK = 2
001350 6B48           04877         CLRF SD_BUFFER_IDXH
001352 6B47           04878         CLRF SD_BUFFER_IDX
  00001354            04879 F4_000525 EQU $ ; IN [V4.0 RFID 2ND GENERATION_LIB.PBP] INC SD_SECTOR_NUM
001354 2A34           04880         INCF SD_SECTOR_NUM,F,0
001356 0E00           04881         MOVLW 0
001358 2235           04882         ADDWFC SD_SECTOR_NUMH,F,0
00135A 2236           04883         ADDWFC SD_SECTOR_NUMHH,F,0
00135C 2237           04884         ADDWFC SD_SECTOR_NUMHHH,F,0
  0000135E            04885 F4_000526 EQU $ ; IN [V4.0 RFID 2ND GENERATION_LIB.PBP] SD_RW_OPTION = 1
00135E 0E01           04886         MOVLW 1
001360 6F4A           04887         MOVWF SD_RW_OPTION
  00001362            04888 F4_000527 EQU $ ; IN [V4.0 RFID 2ND GENERATION_LIB.PBP] GOSUB SD_SECTOR_SUB
001362 0100           04889         MOVLB 0
  00000000            04890 RAM_BANK = 0
                      04891         F@CALL SD_SECTOR_SUB
  00001368            04892 F4_000528 EQU $ ; IN [V4.0 RFID 2ND GENERATION_LIB.PBP] ENDIF
001368                04893 BC@LL128
  00001368            04894 F4_000529 EQU $ ; IN [V4.0 RFID 2ND GENERATION_LIB.PBP] IF SD_BUFFER_IDX > $0FF THEN
001368 0E01           04895         MOVLW 1
00136A 0102           04896         MOVLB 2
  00000002            04897 RAM_BANK = 2
00136C 5D48           04898         SUBWF SD_BUFFER_IDXH,W
00136E 0100           04899         MOVLB 0
  00000000            04900 RAM_BANK = 0
001370 A0D8           04901         BTFSS STATUS,0,0
                      04902         GO@TO BC@LL130
  00001376            04903 F4_000530 EQU $ ; IN [V4.0 RFID 2ND GENERATION_LIB.PBP] SD_BYTE_RW = SD_BUFFER1[SD_BUFFER_IDX - $100]
001376 0102           04904         MOVLB 2
  00000002            04905 RAM_BANK = 2
001378 5147           04906         MOVF SD_BUFFER_IDX,W
00137A EE01 F041      04907         LFSR 0,SD_BUFFER1
00137E 26E9           04908         ADDWF FSR0L,F,0
001380 0E00           04909         MOVLW 0
001382 22EA           04910         ADDWFC FSR0H,F,0
001384 50EF           04911         MOVF INDF0,W,0
001386 6F49           04912         MOVWF SD_BYTE_RW
001388 0100           04913         MOVLB 0
  00000000            04914 RAM_BANK = 0
                      04915         F@JUMP BC@LL131
00138E                04916 BC@LL130
  0000138E            04917 F4_000531 EQU $ ; IN [V4.0 RFID 2ND GENERATION_LIB.PBP] ELSE
  0000138E            04918 F4_000532 EQU $ ; IN [V4.0 RFID 2ND GENERATION_LIB.PBP] SD_BYTE_RW = SD_BUFFER0[SD_BUFFER_IDX]
00138E EE00 F041      04919         LFSR 0,SD_BUFFER0
001392 0102           04920         MOVLB 2
  00000002            04921 RAM_BANK = 2
001394 5147           04922         MOVF SD_BUFFER_IDX,W
001396 26E9           04923         ADDWF FSR0L,F,0
001398 0E00           04924         MOVLW 0
00139A 22EA           04925         ADDWFC FSR0H,F,0
00139C 50EF           04926         MOVF INDF0,W,0
00139E 6F49           04927         MOVWF SD_BYTE_RW
  000013A0            04928 F4_000533 EQU $ ; IN [V4.0 RFID 2ND GENERATION_LIB.PBP] ENDIF
0013A0                04929 BC@LL131
0013A0 0100           04930         MOVLB 0
  00000000            04931 RAM_BANK = 0
  000013A2            04932 F4_000534 EQU $ ; IN [V4.0 RFID 2ND GENERATION_LIB.PBP] INC SD_BUFFER_IDX
0013A2 0102           04933         MOVLB 2
  00000002            04934 RAM_BANK = 2
0013A4 4B47           04935         INFSNZ SD_BUFFER_IDX,F
0013A6 2B48           04936         INCF SD_BUFFER_IDXH,F
  000013A8            04937 F4_000535 EQU $ ; IN [V4.0 RFID 2ND GENERATION_LIB.PBP] RETURN
0013A8 0100           04938         MOVLB 0
  00000000            04939 RAM_BANK = 0
0013AA 0012           04940         RETURN 0
  000013AC            04941 F4_000541 EQU $ ; IN [V4.0 RFID 2ND GENERATION_LIB.PBP] SD_INIT_MSSP MACRO P1
                      04942 SD_INIT_MSSP    MACRO P1,.,.,.,.,.,.,.,.,.
                      04943  LOCAL PRM_EMPTY=0,BIT=1,BYTE=2,WORD=3,DWORD=4,FLOAT=5,LABEL=6,CHAR=7,STRING=9
                      04944  LOCAL NUM8=8,NUM16=16,NUM32=32,SNUM8=10,SNUM16=15,SNUM32=31,FNUM=33,BYTE_ARRAY_PTR=22,WORD_ARRAY_PTR=23
                      04945  IF (PRM_COUNT > 1)
                      04946         ERROR "(IN ASM) SD_INIT_MSSP - TOO MANY PARAMETERS"
                      04947  ELSE
                      04948  IF (PRM_COUNT == 0)
                      04949         MOVLW 32
                      04950         MOVWF SSPCON1,0
                      04951  ELSE
                      04952  IF (PRM_1 != BYTE) && (PRM_1 != NUM8)
                      04953         ERROR "(IN ASM) SD_INIT_MSSP - SPEED(PARAM1) SHOULD BE A BYTE VARIABLE OR NUMBER"
                      04954  ENDIF
                      04955  IF (PRM_1 == BYTE)
                      04956         BYTE_BYTE P1, SSPCON1
                      04957         BSF SSPCON1,5,0
                      04958  ENDIF
                      04959  IF (PRM_1 == NUM8)
                      04960         NUM_DWORD P1, SSPCON1
                      04961 RAM_BANK = 0
                      04962         BSF SSPCON1,5,0
                      04963  ENDIF
                      04964  ENDIF
                      04965  ENDIF
                      04966         F@CALL SD_INIT_MSSP_SUB
                      04967  IF (SD_INIT_MSSP_RETURN != 1)
                      04968  ELSE
                      04969  IF (RETURN_TYPE != BYTE)
                      04970         ERROR "(IN ASM) SD_INIT_MSSP - RETURN VARIABLE SHOULD BE A BYTE VARIABLE"
                      04971  ENDIF
                      04972  IF (RETURN_TYPE == BYTE)
                      04973         BYTE_BYTE SD_RETURN, RETURN_VAR
                      04974  ENDIF
                      04975  ENDIF
                      04976         ENDM
0013AC                04977 SD_SEND_CMD
  000013AC            04978 F4_000580 EQU $ ; IN [V4.0 RFID 2ND GENERATION_LIB.PBP] SSPBUF = SD_BYTE0
0013AC C241 FFC9      04979         MOVFF SD_BYTE0,SSPBUF
  000013B0            04980 F4_000581 EQU $ ; IN [V4.0 RFID 2ND GENERATION_LIB.PBP] BTFSS SSPSTAT.0
0013B0 A0C7           04981         BTFSS SSPSTAT,0
  000013B2            04982 F4_000582 EQU $ ; IN [V4.0 RFID 2ND GENERATION_LIB.PBP] BRA $ - 2
0013B2 D7FE           04983         BRA $ - 2
  000013B4            04984 F4_000583 EQU $ ; IN [V4.0 RFID 2ND GENERATION_LIB.PBP] MOVFF SSPBUF,SD_BYTER
0013B4 CFC9 F032      04985         MOVFF SSPBUF,SD_BYTER
  000013B8            04986 F4_000584 EQU $ ; IN [V4.0 RFID 2ND GENERATION_LIB.PBP] SSPBUF = SD_BYTE1
0013B8 C242 FFC9      04987         MOVFF SD_BYTE1,SSPBUF
  000013BC            04988 F4_000585 EQU $ ; IN [V4.0 RFID 2ND GENERATION_LIB.PBP] BTFSS SSPSTAT.0
0013BC A0C7           04989         BTFSS SSPSTAT,0
  000013BE            04990 F4_000586 EQU $ ; IN [V4.0 RFID 2ND GENERATION_LIB.PBP] BRA $ - 2
0013BE D7FE           04991         BRA $ - 2
  000013C0            04992 F4_000587 EQU $ ; IN [V4.0 RFID 2ND GENERATION_LIB.PBP] MOVFF SSPBUF,SD_BYTER
0013C0 CFC9 F032      04993         MOVFF SSPBUF,SD_BYTER
  000013C4            04994 F4_000588 EQU $ ; IN [V4.0 RFID 2ND GENERATION_LIB.PBP] SSPBUF = SD_BYTE2
0013C4 C243 FFC9      04995         MOVFF SD_BYTE2,SSPBUF
  000013C8            04996 F4_000589 EQU $ ; IN [V4.0 RFID 2ND GENERATION_LIB.PBP] BTFSS SSPSTAT.0
0013C8 A0C7           04997         BTFSS SSPSTAT,0
  000013CA            04998 F4_000590 EQU $ ; IN [V4.0 RFID 2ND GENERATION_LIB.PBP] BRA $ - 2
0013CA D7FE           04999         BRA $ - 2
  000013CC            05000 F4_000591 EQU $ ; IN [V4.0 RFID 2ND GENERATION_LIB.PBP] MOVFF SSPBUF,SD_BYTER
0013CC CFC9 F032      05001         MOVFF SSPBUF,SD_BYTER
  000013D0            05002 F4_000592 EQU $ ; IN [V4.0 RFID 2ND GENERATION_LIB.PBP] SSPBUF = SD_BYTE3
0013D0 C244 FFC9      05003         MOVFF SD_BYTE3,SSPBUF
  000013D4            05004 F4_000593 EQU $ ; IN [V4.0 RFID 2ND GENERATION_LIB.PBP] BTFSS SSPSTAT.0
0013D4 A0C7           05005         BTFSS SSPSTAT,0
  000013D6            05006 F4_000594 EQU $ ; IN [V4.0 RFID 2ND GENERATION_LIB.PBP] BRA $ - 2
0013D6 D7FE           05007         BRA $ - 2
  000013D8            05008 F4_000595 EQU $ ; IN [V4.0 RFID 2ND GENERATION_LIB.PBP] MOVFF SSPBUF,SD_BYTER
0013D8 CFC9 F032      05009         MOVFF SSPBUF,SD_BYTER
  000013DC            05010 F4_000596 EQU $ ; IN [V4.0 RFID 2ND GENERATION_LIB.PBP] SSPBUF = SD_BYTE4
0013DC C245 FFC9      05011         MOVFF SD_BYTE4,SSPBUF
  000013E0            05012 F4_000597 EQU $ ; IN [V4.0 RFID 2ND GENERATION_LIB.PBP] BTFSS SSPSTAT.0
0013E0 A0C7           05013         BTFSS SSPSTAT,0
  000013E2            05014 F4_000598 EQU $ ; IN [V4.0 RFID 2ND GENERATION_LIB.PBP] BRA $ - 2
0013E2 D7FE           05015         BRA $ - 2
  000013E4            05016 F4_000599 EQU $ ; IN [V4.0 RFID 2ND GENERATION_LIB.PBP] MOVFF SSPBUF,SD_BYTER
0013E4 CFC9 F032      05017         MOVFF SSPBUF,SD_BYTER
0013E8                05018 SD_SEND_BYTE
  000013E8            05019 F4_000601 EQU $ ; IN [V4.0 RFID 2ND GENERATION_LIB.PBP] SSPBUF = SD_BYTE5
0013E8 C246 FFC9      05020         MOVFF SD_BYTE5,SSPBUF
  000013EC            05021 F4_000602 EQU $ ; IN [V4.0 RFID 2ND GENERATION_LIB.PBP] BTFSS SSPSTAT.0
0013EC A0C7           05022         BTFSS SSPSTAT,0
  000013EE            05023 F4_000603 EQU $ ; IN [V4.0 RFID 2ND GENERATION_LIB.PBP] BRA $ - 2
0013EE D7FE           05024         BRA $ - 2
  000013F0            05025 F4_000604 EQU $ ; IN [V4.0 RFID 2ND GENERATION_LIB.PBP] MOVFF SSPBUF,SD_BYTER
0013F0 CFC9 F032      05026         MOVFF SSPBUF,SD_BYTER
  000013F4            05027 F4_000605 EQU $ ; IN [V4.0 RFID 2ND GENERATION_LIB.PBP] RETURN
0013F4 0012           05028         RETURN 0
0013F6                05029 SD_RECEIVE_BYTE
  000013F6            05030 F4_000608 EQU $ ; IN [V4.0 RFID 2ND GENERATION_LIB.PBP] SSPBUF = $FF
0013F6 68C9           05031         SETF SSPBUF,0
  000013F8            05032 F4_000609 EQU $ ; IN [V4.0 RFID 2ND GENERATION_LIB.PBP] BTFSS SSPSTAT.0
0013F8 A0C7           05033         BTFSS SSPSTAT,0
  000013FA            05034 F4_000610 EQU $ ; IN [V4.0 RFID 2ND GENERATION_LIB.PBP] BRA $ - 2
0013FA D7FE           05035         BRA $ - 2
  000013FC            05036 F4_000611 EQU $ ; IN [V4.0 RFID 2ND GENERATION_LIB.PBP] MOVFF SSPBUF,SD_BYTER
0013FC CFC9 F032      05037         MOVFF SSPBUF,SD_BYTER
  00001400            05038 F4_000612 EQU $ ; IN [V4.0 RFID 2ND GENERATION_LIB.PBP] RETURN
001400 0012           05039         RETURN 0
001402                05040 SD_INIT_MSSP_SUB
  00001402            05041 F4_000616 EQU $ ; IN [V4.0 RFID 2ND GENERATION_LIB.PBP] SSPSTAT = %01000000
001402 0E40           05042         MOVLW 64
001404 6EC7           05043         MOVWF SSPSTAT,0
  00001406            05044 F4_000617 EQU $ ; IN [V4.0 RFID 2ND GENERATION_LIB.PBP] OUTPUT SD_CS : OUTPUT SD_DI : OUTPUT SD_CLK : INPUT SD_DO
001406 9494           05045         BCF TRISC,2,0
001408 9A94           05046         BCF TRISC,5,0
00140A 9694           05047         BCF TRISC,3,0
00140C 8894           05048         BSF TRISC,4,0
  0000140E            05049 F4_000618 EQU $ ; IN [V4.0 RFID 2ND GENERATION_LIB.PBP] HIGH SD_CS
00140E 9494           05050         BCF TRISC,2,0
001410 8482           05051         BSF PORTC,2,0
  00001412            05052 F4_000619 EQU $ ; IN [V4.0 RFID 2ND GENERATION_LIB.PBP] SD_BYTE0 = $FF
001412 0102           05053         MOVLB 2
  00000002            05054 RAM_BANK = 2
001414 6941           05055         SETF SD_BYTE0
  00001416            05056 F4_000620 EQU $ ; IN [V4.0 RFID 2ND GENERATION_LIB.PBP] SD_BYTE1 = $FF
001416 6942           05057         SETF SD_BYTE1
  00001418            05058 F4_000621 EQU $ ; IN [V4.0 RFID 2ND GENERATION_LIB.PBP] SD_BYTE2 = $FF
001418 6943           05059         SETF SD_BYTE2
  0000141A            05060 F4_000622 EQU $ ; IN [V4.0 RFID 2ND GENERATION_LIB.PBP] SD_BYTE3 = $FF
00141A 6944           05061         SETF SD_BYTE3
  0000141C            05062 F4_000623 EQU $ ; IN [V4.0 RFID 2ND GENERATION_LIB.PBP] SD_BYTE4 = $FF
00141C 6945           05063         SETF SD_BYTE4
  0000141E            05064 F4_000624 EQU $ ; IN [V4.0 RFID 2ND GENERATION_LIB.PBP] SD_BYTE5 = $FF
00141E 6946           05065         SETF SD_BYTE5
  00001420            05066 F4_000625 EQU $ ; IN [V4.0 RFID 2ND GENERATION_LIB.PBP] GOSUB SD_SEND_CMD
001420 0100           05067         MOVLB 0
  00000000            05068 RAM_BANK = 0
                      05069         F@CALL SD_SEND_CMD
  00001424            05070 F4_000626 EQU $ ; IN [V4.0 RFID 2ND GENERATION_LIB.PBP] GOSUB SD_SEND_CMD
                      05071         F@CALL SD_SEND_CMD
  00001426            05072 F4_000628 EQU $ ; IN [V4.0 RFID 2ND GENERATION_LIB.PBP] DELAYMS 100
001426 0E64           05073         MOVLW 100
                      05074         F@CALL DL@MS
  0000142C            05075 F4_000629 EQU $ ; IN [V4.0 RFID 2ND GENERATION_LIB.PBP] LOW SD_CS
00142C 9494           05076         BCF TRISC,2,0
00142E 9482           05077         BCF PORTC,2,0
  00001430            05078 F4_000630 EQU $ ; IN [V4.0 RFID 2ND GENERATION_LIB.PBP] SD_BYTE0 = $40
001430 0E40           05079         MOVLW 64
001432 0102           05080         MOVLB 2
  00000002            05081 RAM_BANK = 2
001434 6F41           05082         MOVWF SD_BYTE0
  00001436            05083 F4_000631 EQU $ ; IN [V4.0 RFID 2ND GENERATION_LIB.PBP] SD_BYTE1 = $00
001436 6B42           05084         CLRF SD_BYTE1
  00001438            05085 F4_000632 EQU $ ; IN [V4.0 RFID 2ND GENERATION_LIB.PBP] SD_BYTE2 = $00
001438 6B43           05086         CLRF SD_BYTE2
  0000143A            05087 F4_000633 EQU $ ; IN [V4.0 RFID 2ND GENERATION_LIB.PBP] SD_BYTE3 = $00
00143A 6B44           05088         CLRF SD_BYTE3
  0000143C            05089 F4_000634 EQU $ ; IN [V4.0 RFID 2ND GENERATION_LIB.PBP] SD_BYTE4 = $00
00143C 6B45           05090         CLRF SD_BYTE4
  0000143E            05091 F4_000635 EQU $ ; IN [V4.0 RFID 2ND GENERATION_LIB.PBP] SD_BYTE5 = $95
00143E 0E95           05092         MOVLW 149
001440 6F46           05093         MOVWF SD_BYTE5
  00001442            05094 F4_000636 EQU $ ; IN [V4.0 RFID 2ND GENERATION_LIB.PBP] GOSUB SD_SEND_CMD
001442 0100           05095         MOVLB 0
  00000000            05096 RAM_BANK = 0
                      05097         F@CALL SD_SEND_CMD
  00001446            05098 F4_000637 EQU $ ; IN [V4.0 RFID 2ND GENERATION_LIB.PBP] SD_SEEK_RESPONSE_REQD = $01
001446 0E01           05099         MOVLW 1
001448 6E3E           05100         MOVWF SD_SEEK_RESPONSE_REQD,0
  0000144A            05101 F4_000638 EQU $ ; IN [V4.0 RFID 2ND GENERATION_LIB.PBP] SD_SEEK_RESPONSE_IDX = $FF
00144A 6A3D           05102         CLRF SD_SEEK_RESPONSE_IDXH,0
00144C 683C           05103         SETF SD_SEEK_RESPONSE_IDX,0
  0000144E            05104 F4_000639 EQU $ ; IN [V4.0 RFID 2ND GENERATION_LIB.PBP] GOSUB SD_SEEK_RESPONSE
                      05105         F@CALL SD_SEEK_RESPONSE
  00001452            05106 F4_000640 EQU $ ; IN [V4.0 RFID 2ND GENERATION_LIB.PBP] IF SD_SEEK_RESPONSE_RETURN = 1 THEN
001452 0E01           05107         MOVLW 1
001454 5C3F           05108         SUBWF SD_SEEK_RESPONSE_RETURN,W,0
001456 A4D8           05109         BTFSS STATUS,2,0
                      05110         GO@TO BC@LL133
  0000145C            05111 F4_000641 EQU $ ; IN [V4.0 RFID 2ND GENERATION_LIB.PBP] HIGH SD_CS
00145C 9494           05112         BCF TRISC,2,0
00145E 8482           05113         BSF PORTC,2,0
  00001460            05114 F4_000642 EQU $ ; IN [V4.0 RFID 2ND GENERATION_LIB.PBP] SD_RETURN = 1
001460 0E01           05115         MOVLW 1
001462 6E40           05116         MOVWF SD_RETURN,0
  00001464            05117 F4_000643 EQU $ ; IN [V4.0 RFID 2ND GENERATION_LIB.PBP] RETURN
001464 0012           05118         RETURN 0
  00001466            05119 F4_000644 EQU $ ; IN [V4.0 RFID 2ND GENERATION_LIB.PBP] ENDIF
001466                05120 BC@LL133
  00001466            05121 F4_000646 EQU $ ; IN [V4.0 RFID 2ND GENERATION_LIB.PBP] SD_IDX = $FF
001466 6833           05122         SETF SD_IDX,0
  00001468            05123 F4_000647 EQU $ ; IN [V4.0 RFID 2ND GENERATION_LIB.PBP] REPEAT
001468                05124 BC@LL134
  00001468            05125 F4_000648 EQU $ ; IN [V4.0 RFID 2ND GENERATION_LIB.PBP] SD_BYTE0 = $41
001468 0E41           05126         MOVLW 65
00146A 0102           05127         MOVLB 2
  00000002            05128 RAM_BANK = 2
00146C 6F41           05129         MOVWF SD_BYTE0
  0000146E            05130 F4_000649 EQU $ ; IN [V4.0 RFID 2ND GENERATION_LIB.PBP] SD_BYTE1 = $00
00146E 6B42           05131         CLRF SD_BYTE1
  00001470            05132 F4_000650 EQU $ ; IN [V4.0 RFID 2ND GENERATION_LIB.PBP] SD_BYTE2 = $00
001470 6B43           05133         CLRF SD_BYTE2
  00001472            05134 F4_000651 EQU $ ; IN [V4.0 RFID 2ND GENERATION_LIB.PBP] SD_BYTE3 = $00
001472 6B44           05135         CLRF SD_BYTE3
  00001474            05136 F4_000652 EQU $ ; IN [V4.0 RFID 2ND GENERATION_LIB.PBP] SD_BYTE4 = $00
001474 6B45           05137         CLRF SD_BYTE4
  00001476            05138 F4_000653 EQU $ ; IN [V4.0 RFID 2ND GENERATION_LIB.PBP] SD_BYTE5 = $FF
001476 6946           05139         SETF SD_BYTE5
  00001478            05140 F4_000654 EQU $ ; IN [V4.0 RFID 2ND GENERATION_LIB.PBP] GOSUB SD_SEND_CMD
001478 0100           05141         MOVLB 0
  00000000            05142 RAM_BANK = 0
                      05143         F@CALL SD_SEND_CMD
  0000147C            05144 F4_000655 EQU $ ; IN [V4.0 RFID 2ND GENERATION_LIB.PBP] SD_SEEK_RESPONSE_REQD = $00
00147C 6A3E           05145         CLRF SD_SEEK_RESPONSE_REQD,0
  0000147E            05146 F4_000656 EQU $ ; IN [V4.0 RFID 2ND GENERATION_LIB.PBP] SD_SEEK_RESPONSE_IDX = $FF
00147E 6A3D           05147         CLRF SD_SEEK_RESPONSE_IDXH,0
001480 683C           05148         SETF SD_SEEK_RESPONSE_IDX,0
  00001482            05149 F4_000657 EQU $ ; IN [V4.0 RFID 2ND GENERATION_LIB.PBP] GOSUB SD_SEEK_RESPONSE
                      05150         F@CALL SD_SEEK_RESPONSE
  00001486            05151 F4_000658 EQU $ ; IN [V4.0 RFID 2ND GENERATION_LIB.PBP] DEC SD_IDX
001486 0633           05152         DECF SD_IDX,F,0
  00001488            05153 F4_000659 EQU $ ; IN [V4.0 RFID 2ND GENERATION_LIB.PBP] UNTIL SD_SEEK_RESPONSE_RETURN = 0 OR SD_IDX = 0
001488 0E01           05154         MOVLW 1
00148A 523F           05155         MOVF SD_SEEK_RESPONSE_RETURN,F,0
00148C A4D8           05156         BTFSS STATUS,2,0
00148E 0E00           05157         MOVLW 0
001490 6E2D           05158         MOVWF SP#P9,0
001492 0E01           05159         MOVLW 1
001494 5233           05160         MOVF SD_IDX,F,0
001496 A4D8           05161         BTFSS STATUS,2,0
001498 0E00           05162         MOVLW 0
00149A 122D           05163         IORWF SP#P9,F,0
00149C B4D8           05164         BTFSC STATUS,2,0
                      05165         GO@TO BC@LL134
0014A0                05166 BC@LL135
  000014A0            05167 F4_000660 EQU $ ; IN [V4.0 RFID 2ND GENERATION_LIB.PBP] IF SD_IDX = 0 THEN
0014A0 5233           05168         MOVF SD_IDX,F,0
0014A2 A4D8           05169         BTFSS STATUS,2,0
                      05170         GO@TO BC@LL137
  000014A8            05171 F4_000661 EQU $ ; IN [V4.0 RFID 2ND GENERATION_LIB.PBP] HIGH SD_CS
0014A8 9494           05172         BCF TRISC,2,0
0014AA 8482           05173         BSF PORTC,2,0
  000014AC            05174 F4_000662 EQU $ ; IN [V4.0 RFID 2ND GENERATION_LIB.PBP] SD_RETURN = 1
0014AC 0E01           05175         MOVLW 1
0014AE 6E40           05176         MOVWF SD_RETURN,0
  000014B0            05177 F4_000663 EQU $ ; IN [V4.0 RFID 2ND GENERATION_LIB.PBP] RETURN
0014B0 0012           05178         RETURN 0
  000014B2            05179 F4_000664 EQU $ ; IN [V4.0 RFID 2ND GENERATION_LIB.PBP] ENDIF
0014B2                05180 BC@LL137
  000014B2            05181 F4_000665 EQU $ ; IN [V4.0 RFID 2ND GENERATION_LIB.PBP] HIGH SD_CS
0014B2 9494           05182         BCF TRISC,2,0
0014B4 8482           05183         BSF PORTC,2,0
  000014B6            05184 F4_000666 EQU $ ; IN [V4.0 RFID 2ND GENERATION_LIB.PBP] SD_BYTE5 = $FF
0014B6 0102           05185         MOVLB 2
  00000002            05186 RAM_BANK = 2
0014B8 6946           05187         SETF SD_BYTE5
  000014BA            05188 F4_000667 EQU $ ; IN [V4.0 RFID 2ND GENERATION_LIB.PBP] GOSUB SD_SEND_BYTE
0014BA 0100           05189         MOVLB 0
  00000000            05190 RAM_BANK = 0
                      05191         F@CALL SD_SEND_BYTE
  000014BE            05192 F4_000668 EQU $ ; IN [V4.0 RFID 2ND GENERATION_LIB.PBP] SD_BUFFER_IDX = 0
0014BE 0102           05193         MOVLB 2
  00000002            05194 RAM_BANK = 2
0014C0 6B48           05195         CLRF SD_BUFFER_IDXH
0014C2 6B47           05196         CLRF SD_BUFFER_IDX
  000014C4            05197 F4_000669 EQU $ ; IN [V4.0 RFID 2ND GENERATION_LIB.PBP] SD_RETURN = 0
0014C4 6A40           05198         CLRF SD_RETURN,0
  000014C6            05199 F4_000670 EQU $ ; IN [V4.0 RFID 2ND GENERATION_LIB.PBP] RETURN
0014C6 0100           05200         MOVLB 0
  00000000            05201 RAM_BANK = 0
0014C8 0012           05202         RETURN 0
  000014CA            05203 F4_000676 EQU $ ; IN [V4.0 RFID 2ND GENERATION_LIB.PBP] SD_CLOSE_FILE MACRO
                      05204 SD_CLOSE_FILE   MACRO .,.,.,.,.,.,.,.,.,.
                      05205  LOCAL PRM_EMPTY=0,BIT=1,BYTE=2,WORD=3,DWORD=4,FLOAT=5,LABEL=6,CHAR=7,STRING=9
                      05206  LOCAL NUM8=8,NUM16=16,NUM32=32,SNUM8=10,SNUM16=15,SNUM32=31,FNUM=33,BYTE_ARRAY_PTR=22,WORD_ARRAY_PTR=23
                      05207  IF (PRM_COUNT != 0)
                      05208         ERROR "(IN ASM) NO PARAMETERS REQUIRED FOR SD_CLOSE_FILE"
                      05209         EXITM
                      05210  ENDIF
                      05211         F@CALL SD_CLOSE_FILE_SUB
                      05212         ENDM
0014CA                05213 SD_CLOSE_FILE_SUB
  000014CA            05214 F4_000698 EQU $ ; IN [V4.0 RFID 2ND GENERATION_LIB.PBP] IF SD_IS_DIRTY = 1 THEN
0014CA 0E01           05215         MOVLW 1
0014CC 0102           05216         MOVLB 2
  00000002            05217 RAM_BANK = 2
0014CE 5DF6           05218         SUBWF SD_IS_DIRTY,W
0014D0 0100           05219         MOVLB 0
  00000000            05220 RAM_BANK = 0
0014D2 A4D8           05221         BTFSS STATUS,2,0
                      05222         GO@TO BC@LL139
  000014D8            05223 F4_000699 EQU $ ; IN [V4.0 RFID 2ND GENERATION_LIB.PBP] REPEAT
0014D8                05224 BC@LL140
  000014D8            05225 F4_000700 EQU $ ; IN [V4.0 RFID 2ND GENERATION_LIB.PBP] GOSUB SD_WRITE_SECTOR
                      05226         F@CALL SD_WRITE_SECTOR
  000014DC            05227 F4_000701 EQU $ ; IN [V4.0 RFID 2ND GENERATION_LIB.PBP] UNTIL SD_RETURN = 0
0014DC 5240           05228         MOVF SD_RETURN,F,0
0014DE A4D8           05229         BTFSS STATUS,2,0
                      05230         GO@TO BC@LL140
0014E2                05231 BC@LL141
  000014E2            05232 F4_000702 EQU $ ; IN [V4.0 RFID 2ND GENERATION_LIB.PBP] ENDIF
0014E2                05233 BC@LL139
  000014E2            05234 F4_000703 EQU $ ; IN [V4.0 RFID 2ND GENERATION_LIB.PBP] SD_WRITE_SEC_NUM = SD_ROOT_DIR + SD_ROOT_DIR_SEC
0014E2 0102           05235         MOVLB 2
  00000002            05236 RAM_BANK = 2
0014E4 5185           05237         MOVF SD_ROOT_DIR_SEC,W
0014E6 256F           05238         ADDWF SD_ROOT_DIR,W
0014E8 6FBE           05239         MOVWF SD_WRITE_SEC_NUM
0014EA 5186           05240         MOVF SD_ROOT_DIR_SECH,W
0014EC 2170           05241         ADDWFC SD_ROOT_DIRH,W
0014EE 6FBF           05242         MOVWF SD_WRITE_SEC_NUMH
0014F0 5187           05243         MOVF SD_ROOT_DIR_SECHH,W
0014F2 2171           05244         ADDWFC SD_ROOT_DIRHH,W
0014F4 6FC0           05245         MOVWF SD_WRITE_SEC_NUMHH
0014F6 5188           05246         MOVF SD_ROOT_DIR_SECHHH,W
0014F8 2172           05247         ADDWFC SD_ROOT_DIRHHH,W
0014FA 6FC1           05248         MOVWF SD_WRITE_SEC_NUMHHH
  000014FC            05249 F4_000704 EQU $ ; IN [V4.0 RFID 2ND GENERATION_LIB.PBP] SD_SECTOR_NUM = SD_WRITE_SEC_NUM
0014FC C2C1 F037      05250         MOVFF SD_WRITE_SEC_NUMHHH,SD_SECTOR_NUMHHH
001500 C2C0 F036      05251         MOVFF SD_WRITE_SEC_NUMHH,SD_SECTOR_NUMHH
001504 C2BF F035      05252         MOVFF SD_WRITE_SEC_NUMH,SD_SECTOR_NUMH
001508 C2BE F034      05253         MOVFF SD_WRITE_SEC_NUM,SD_SECTOR_NUM
  0000150C            05254 F4_000705 EQU $ ; IN [V4.0 RFID 2ND GENERATION_LIB.PBP] SD_RW_OPTION = 1
00150C 0E01           05255         MOVLW 1
00150E 6F4A           05256         MOVWF SD_RW_OPTION
  00001510            05257 F4_000706 EQU $ ; IN [V4.0 RFID 2ND GENERATION_LIB.PBP] GOSUB SD_SECTOR_SUB
001510 0100           05258         MOVLB 0
  00000000            05259 RAM_BANK = 0
                      05260         F@CALL SD_SECTOR_SUB
  00001516            05261 F4_000708 EQU $ ; IN [V4.0 RFID 2ND GENERATION_LIB.PBP] SD_WRITE_BUFFER_POS = SD_ROOT_DIR_POS + $1C
001516 0E1C           05262         MOVLW 28
001518 0102           05263         MOVLB 2
  00000002            05264 RAM_BANK = 2
00151A 2589           05265         ADDWF SD_ROOT_DIR_POS,W
00151C 6FC2           05266         MOVWF SD_WRITE_BUFFER_POS
00151E 0E00           05267         MOVLW 0
001520 218A           05268         ADDWFC SD_ROOT_DIR_POSH,W
001522 6FC3           05269         MOVWF SD_WRITE_BUFFER_POSH
  00001524            05270 F4_000709 EQU $ ; IN [V4.0 RFID 2ND GENERATION_LIB.PBP] SD_DATA_IO = SD_FILE_SIZE.BYTE0
001524 C2CC F24D      05271         MOVFF SD_FILE_SIZE,SD_DATA_IO
  00001528            05272 F4_000710 EQU $ ; IN [V4.0 RFID 2ND GENERATION_LIB.PBP] GOSUB SD_INSERT_BYTE_INTO_BUFFER
001528 0100           05273         MOVLB 0
  00000000            05274 RAM_BANK = 0
                      05275         F@CALL SD_INSERT_BYTE_INTO_BUFFER
  0000152E            05276 F4_000711 EQU $ ; IN [V4.0 RFID 2ND GENERATION_LIB.PBP] INC SD_WRITE_BUFFER_POS
00152E 0102           05277         MOVLB 2
  00000002            05278 RAM_BANK = 2
001530 4BC2           05279         INFSNZ SD_WRITE_BUFFER_POS,F
001532 2BC3           05280         INCF SD_WRITE_BUFFER_POSH,F
  00001534            05281 F4_000712 EQU $ ; IN [V4.0 RFID 2ND GENERATION_LIB.PBP] SD_DATA_IO = SD_FILE_SIZE.BYTE1
001534 C2CD F24D      05282         MOVFF SD_FILE_SIZEH,SD_DATA_IO
  00001538            05283 F4_000713 EQU $ ; IN [V4.0 RFID 2ND GENERATION_LIB.PBP] GOSUB SD_INSERT_BYTE_INTO_BUFFER
001538 0100           05284         MOVLB 0
  00000000            05285 RAM_BANK = 0
                      05286         F@CALL SD_INSERT_BYTE_INTO_BUFFER
  0000153E            05287 F4_000714 EQU $ ; IN [V4.0 RFID 2ND GENERATION_LIB.PBP] INC SD_WRITE_BUFFER_POS
00153E 0102           05288         MOVLB 2
  00000002            05289 RAM_BANK = 2
001540 4BC2           05290         INFSNZ SD_WRITE_BUFFER_POS,F
001542 2BC3           05291         INCF SD_WRITE_BUFFER_POSH,F
  00001544            05292 F4_000715 EQU $ ; IN [V4.0 RFID 2ND GENERATION_LIB.PBP] SD_DATA_IO = SD_FILE_SIZE.BYTE2
001544 C2CE F24D      05293         MOVFF SD_FILE_SIZEHH,SD_DATA_IO
  00001548            05294 F4_000716 EQU $ ; IN [V4.0 RFID 2ND GENERATION_LIB.PBP] GOSUB SD_INSERT_BYTE_INTO_BUFFER
001548 0100           05295         MOVLB 0
  00000000            05296 RAM_BANK = 0
                      05297         F@CALL SD_INSERT_BYTE_INTO_BUFFER
  0000154E            05298 F4_000717 EQU $ ; IN [V4.0 RFID 2ND GENERATION_LIB.PBP] INC SD_WRITE_BUFFER_POS
00154E 0102           05299         MOVLB 2
  00000002            05300 RAM_BANK = 2
001550 4BC2           05301         INFSNZ SD_WRITE_BUFFER_POS,F
001552 2BC3           05302         INCF SD_WRITE_BUFFER_POSH,F
  00001554            05303 F4_000718 EQU $ ; IN [V4.0 RFID 2ND GENERATION_LIB.PBP] SD_DATA_IO = SD_FILE_SIZE.BYTE3
001554 C2CF F24D      05304         MOVFF SD_FILE_SIZEHHH,SD_DATA_IO
  00001558            05305 F4_000719 EQU $ ; IN [V4.0 RFID 2ND GENERATION_LIB.PBP] GOSUB SD_INSERT_BYTE_INTO_BUFFER
001558 0100           05306         MOVLB 0
  00000000            05307 RAM_BANK = 0
                      05308         F@CALL SD_INSERT_BYTE_INTO_BUFFER
  0000155E            05309 F4_000720 EQU $ ; IN [V4.0 RFID 2ND GENERATION_LIB.PBP] SD_WRITE_BUFFER_POS = SD_ROOT_DIR_POS + $16
00155E 0E16           05310         MOVLW 22
001560 0102           05311         MOVLB 2
  00000002            05312 RAM_BANK = 2
001562 2589           05313         ADDWF SD_ROOT_DIR_POS,W
001564 6FC2           05314         MOVWF SD_WRITE_BUFFER_POS
001566 0E00           05315         MOVLW 0
001568 218A           05316         ADDWFC SD_ROOT_DIR_POSH,W
00156A 6FC3           05317         MOVWF SD_WRITE_BUFFER_POSH
  0000156C            05318 F4_000721 EQU $ ; IN [V4.0 RFID 2ND GENERATION_LIB.PBP] GOSUB SD_SET_FILE_TIME_MODIFIED
00156C 0100           05319         MOVLB 0
  00000000            05320 RAM_BANK = 0
                      05321         F@CALL SD_SET_FILE_TIME_MODIFIED
  00001572            05322 F4_000722 EQU $ ; IN [V4.0 RFID 2ND GENERATION_LIB.PBP] GOSUB SD_WRITE_SECTOR
                      05323         F@CALL SD_WRITE_SECTOR
  00001576            05324 F4_000723 EQU $ ; IN [V4.0 RFID 2ND GENERATION_LIB.PBP] IF SD_EOF = 1 THEN
001576 0102           05325         MOVLB 2
  00000002            05326 RAM_BANK = 2
001578 31E5           05327         RRCF _B#VR1,W
00157A 0100           05328         MOVLB 0
  00000000            05329 RAM_BANK = 0
00157C A0D8           05330         BTFSS STATUS,0,0
                      05331         GO@TO BC@LL143
001582 96D8           05332         BCF STATUS,3,0
001584 0102           05333         MOVLB 2
  00000002            05334 RAM_BANK = 2
001586 A1E5           05335         BTFSS _B#VR1,0
001588 86D8           05336         BSF STATUS,3,0
00158A 0100           05337         MOVLB 0
  00000000            05338 RAM_BANK = 0
                      05339         G@OTO BC@LL143
  00001592            05340 F4_000724 EQU $ ; IN [V4.0 RFID 2ND GENERATION_LIB.PBP] SD_FAT_BUFFER_POS_PREV = SD_FAT_BUFFER_POS
001592 C27E F284      05341         MOVFF SD_FAT_BUFFER_POSH,SD_FAT_BUFFER_POS_PREVH
001596 C27D F283      05342         MOVFF SD_FAT_BUFFER_POS,SD_FAT_BUFFER_POS_PREV
  0000159A            05343 F4_000725 EQU $ ; IN [V4.0 RFID 2ND GENERATION_LIB.PBP] SD_FAT_SEC_PREV = SD_FAT_SEC
00159A C27C F282      05344         MOVFF SD_FAT_SECHHH,SD_FAT_SEC_PREVHHH
00159E C27B F281      05345         MOVFF SD_FAT_SECHH,SD_FAT_SEC_PREVHH
0015A2 C27A F280      05346         MOVFF SD_FAT_SECH,SD_FAT_SEC_PREVH
0015A6 C279 F27F      05347         MOVFF SD_FAT_SEC,SD_FAT_SEC_PREV
  000015AA            05348 F4_000726 EQU $ ; IN [V4.0 RFID 2ND GENERATION_LIB.PBP] SD_WRITE_SEC_NUM = SD_FAT1 + SD_FAT_SEC_PREV
0015AA 0102           05349         MOVLB 2
  00000002            05350 RAM_BANK = 2
0015AC 517F           05351         MOVF SD_FAT_SEC_PREV,W
0015AE 2567           05352         ADDWF SD_FAT1,W
0015B0 6FBE           05353         MOVWF SD_WRITE_SEC_NUM
0015B2 5180           05354         MOVF SD_FAT_SEC_PREVH,W
0015B4 2168           05355         ADDWFC SD_FAT1H,W
0015B6 6FBF           05356         MOVWF SD_WRITE_SEC_NUMH
0015B8 5181           05357         MOVF SD_FAT_SEC_PREVHH,W
0015BA 2169           05358         ADDWFC SD_FAT1HH,W
0015BC 6FC0           05359         MOVWF SD_WRITE_SEC_NUMHH
0015BE 5182           05360         MOVF SD_FAT_SEC_PREVHHH,W
0015C0 216A           05361         ADDWFC SD_FAT1HHH,W
0015C2 6FC1           05362         MOVWF SD_WRITE_SEC_NUMHHH
  000015C4            05363 F4_000727 EQU $ ; IN [V4.0 RFID 2ND GENERATION_LIB.PBP] SD_SECTOR_NUM = SD_WRITE_SEC_NUM
0015C4 C2C1 F037      05364         MOVFF SD_WRITE_SEC_NUMHHH,SD_SECTOR_NUMHHH
0015C8 C2C0 F036      05365         MOVFF SD_WRITE_SEC_NUMHH,SD_SECTOR_NUMHH
0015CC C2BF F035      05366         MOVFF SD_WRITE_SEC_NUMH,SD_SECTOR_NUMH
0015D0 C2BE F034      05367         MOVFF SD_WRITE_SEC_NUM,SD_SECTOR_NUM
  000015D4            05368 F4_000728 EQU $ ; IN [V4.0 RFID 2ND GENERATION_LIB.PBP] SD_RW_OPTION = 1
0015D4 0E01           05369         MOVLW 1
0015D6 6F4A           05370         MOVWF SD_RW_OPTION
  000015D8            05371 F4_000729 EQU $ ; IN [V4.0 RFID 2ND GENERATION_LIB.PBP] GOSUB SD_SECTOR_SUB
0015D8 0100           05372         MOVLB 0
  00000000            05373 RAM_BANK = 0
                      05374         F@CALL SD_SECTOR_SUB
  000015DE            05375 F4_000731 EQU $ ; IN [V4.0 RFID 2ND GENERATION_LIB.PBP] SD_CLUSTER_SEQ_NUM_PREV = SD_CLUSTER_SEQ_IDX
0015DE C2DB F2DD      05376         MOVFF SD_CLUSTER_SEQ_IDXH,SD_CLUSTER_SEQ_NUM_PREVH
0015E2 C2DA F2DC      05377         MOVFF SD_CLUSTER_SEQ_IDX,SD_CLUSTER_SEQ_NUM_PREV
  000015E6            05378 F4_000732 EQU $ ; IN [V4.0 RFID 2ND GENERATION_LIB.PBP] GOSUB SD_ASSEMBLE_FAT_SECTOR
                      05379         F@CALL SD_ASSEMBLE_FAT_SECTOR
  000015EA            05380 F4_000733 EQU $ ; IN [V4.0 RFID 2ND GENERATION_LIB.PBP] GOSUB SD_ASSEMBLE_FAT_SECTOR_END_CLOSE
                      05381         F@CALL SD_ASSEMBLE_FAT_SECTOR_END_CLOSE
  000015EE            05382 F4_000734 EQU $ ; IN [V4.0 RFID 2ND GENERATION_LIB.PBP] GOSUB SD_WRITE_SECTOR
                      05383         F@CALL SD_WRITE_SECTOR
  000015F2            05384 F4_000735 EQU $ ; IN [V4.0 RFID 2ND GENERATION_LIB.PBP] SD_SECTOR_NUM = SD_FAT2 + SD_FAT_SEC_PREV
0015F2 0102           05385         MOVLB 2
  00000002            05386 RAM_BANK = 2
0015F4 517F           05387         MOVF SD_FAT_SEC_PREV,W
0015F6 256B           05388         ADDWF SD_FAT2,W
0015F8 6E34           05389         MOVWF SD_SECTOR_NUM,0
0015FA 5180           05390         MOVF SD_FAT_SEC_PREVH,W
0015FC 216C           05391         ADDWFC SD_FAT2H,W
0015FE 6E35           05392         MOVWF SD_SECTOR_NUMH,0
001600 5181           05393         MOVF SD_FAT_SEC_PREVHH,W
001602 216D           05394         ADDWFC SD_FAT2HH,W
001604 6E36           05395         MOVWF SD_SECTOR_NUMHH,0
001606 5182           05396         MOVF SD_FAT_SEC_PREVHHH,W
001608 216E           05397         ADDWFC SD_FAT2HHH,W
00160A 6E37           05398         MOVWF SD_SECTOR_NUMHHH,0
  0000160C            05399 F4_000736 EQU $ ; IN [V4.0 RFID 2ND GENERATION_LIB.PBP] GOSUB SD_WRITE_SECTOR
00160C 0100           05400         MOVLB 0
  00000000            05401 RAM_BANK = 0
                      05402         F@CALL SD_WRITE_SECTOR
  00001612            05403 F4_000737 EQU $ ; IN [V4.0 RFID 2ND GENERATION_LIB.PBP] ENDIF
001612                05404 BC@LL143
  00001612            05405 F4_000738 EQU $ ; IN [V4.0 RFID 2ND GENERATION_LIB.PBP] RETURN
001612 0012           05406         RETURN 0
001614                05407 SD_SET_FILE_TIME_CREATE
  00001614            05408 F4_000742 EQU $ ; IN [V4.0 RFID 2ND GENERATION_LIB.PBP] SD_DATA_IO = SD_MSECONDS + ((SD_SECONDS // 2) * 100)
001614 6A24           05409         CLRF PP7H,0
001616 C2F2 F023      05410         MOVFF SD_MSECONDS,PP7
00161A 6A28           05411         CLRF PP8H,0
00161C C2F3 F027      05412         MOVFF SD_SECONDS,PP8
001620 0E01           05413         MOVLW 1
001622 1627           05414         ANDWF PP8,F,0
001624 6A28           05415         CLRF PP8H,0
001626 5028           05416         MOVF PP8H,W,0
001628 0D64           05417         MULLW 100
00162A CFF3 F028      05418         MOVFF PRODL,PP8H
00162E 5027           05419         MOVF PP8,W,0
001630 0D64           05420         MULLW 100
001632 CFF3 F027      05421         MOVFF PRODL,PP8
001636 50F4           05422         MOVF PRODH,W,0
001638 2628           05423         ADDWF PP8H,F,0
00163A 5023           05424         MOVF PP7,W,0
00163C 2427           05425         ADDWF PP8,W,0
00163E 0102           05426         MOVLB 2
  00000002            05427 RAM_BANK = 2
001640 6F4D           05428         MOVWF SD_DATA_IO
  00001642            05429 F4_000743 EQU $ ; IN [V4.0 RFID 2ND GENERATION_LIB.PBP] GOSUB SD_INSERT_BYTE_INTO_BUFFER
001642 0100           05430         MOVLB 0
  00000000            05431 RAM_BANK = 0
                      05432         F@CALL SD_INSERT_BYTE_INTO_BUFFER
  00001648            05433 F4_000744 EQU $ ; IN [V4.0 RFID 2ND GENERATION_LIB.PBP] INC SD_WRITE_BUFFER_POS
001648 0102           05434         MOVLB 2
  00000002            05435 RAM_BANK = 2
00164A 4BC2           05436         INFSNZ SD_WRITE_BUFFER_POS,F
00164C 2BC3           05437         INCF SD_WRITE_BUFFER_POSH,F
00164E                05438 SD_SET_FILE_TIME_MODIFIED
00164E 0100           05439         MOVLB 0
  00000000            05440 RAM_BANK = 0
  00001650            05441 F4_000746 EQU $ ; IN [V4.0 RFID 2ND GENERATION_LIB.PBP] SD_DATA_IO = (SD_SECONDS / 2) | (SD_MINUTES << 5)
001650 6A24           05442         CLRF PP7H,0
001652 C2F3 F023      05443         MOVFF SD_SECONDS,PP7
001656 90D8           05444         BCF STATUS,0,0
001658 3224           05445         RRCF PP7H,F,0
00165A 3223           05446         RRCF PP7,F,0
00165C 6A28           05447         CLRF PP8H,0
00165E C2F4 F027      05448         MOVFF SD_MINUTES,PP8
001662 0E05           05449         MOVLW 5
001664                05450 SL@LB32
001664 90D8           05451         BCF STATUS,0,0
001666 3627           05452         RLCF PP8,F,0
001668 3628           05453         RLCF PP8H,F,0
00166A 2EE8           05454         DECFSZ WREG,F,0
00166C D7FB           05455         BRA SL@LB32
00166E 5023           05456         MOVF PP7,W,0
001670 1027           05457         IORWF PP8,W,0
001672 0102           05458         MOVLB 2
  00000002            05459 RAM_BANK = 2
001674 6F4D           05460         MOVWF SD_DATA_IO
  00001676            05461 F4_000747 EQU $ ; IN [V4.0 RFID 2ND GENERATION_LIB.PBP] GOSUB SD_INSERT_BYTE_INTO_BUFFER
001676 0100           05462         MOVLB 0
  00000000            05463 RAM_BANK = 0
                      05464         F@CALL SD_INSERT_BYTE_INTO_BUFFER
  0000167C            05465 F4_000748 EQU $ ; IN [V4.0 RFID 2ND GENERATION_LIB.PBP] INC SD_WRITE_BUFFER_POS
00167C 0102           05466         MOVLB 2
  00000002            05467 RAM_BANK = 2
00167E 4BC2           05468         INFSNZ SD_WRITE_BUFFER_POS,F
001680 2BC3           05469         INCF SD_WRITE_BUFFER_POSH,F
  00001682            05470 F4_000749 EQU $ ; IN [V4.0 RFID 2ND GENERATION_LIB.PBP] SD_DATA_IO = (SD_MINUTES >> 3) | (SD_HOURS << 3)
001682 6A24           05471         CLRF PP7H,0
001684 C2F4 F023      05472         MOVFF SD_MINUTES,PP7
001688 3224           05473         RRCF PP7H,F,0
00168A 3223           05474         RRCF PP7,F,0
00168C 3224           05475         RRCF PP7H,F,0
00168E 3223           05476         RRCF PP7,F,0
001690 3224           05477         RRCF PP7H,F,0
001692 3223           05478         RRCF PP7,F,0
001694 0E1F           05479         MOVLW 31
001696 1624           05480         ANDWF PP7H,F,0
001698 6A28           05481         CLRF PP8H,0
00169A C2F5 F027      05482         MOVFF SD_HOURS,PP8
00169E 0E03           05483         MOVLW 3
0016A0                05484 SL@LB33
0016A0 90D8           05485         BCF STATUS,0,0
0016A2 3627           05486         RLCF PP8,F,0
0016A4 3628           05487         RLCF PP8H,F,0
0016A6 2EE8           05488         DECFSZ WREG,F,0
0016A8 D7FB           05489         BRA SL@LB33
0016AA 5023           05490         MOVF PP7,W,0
0016AC 1027           05491         IORWF PP8,W,0
0016AE 6F4D           05492         MOVWF SD_DATA_IO
  000016B0            05493 F4_000750 EQU $ ; IN [V4.0 RFID 2ND GENERATION_LIB.PBP] GOSUB SD_INSERT_BYTE_INTO_BUFFER
0016B0 0100           05494         MOVLB 0
  00000000            05495 RAM_BANK = 0
                      05496         F@CALL SD_INSERT_BYTE_INTO_BUFFER
  000016B6            05497 F4_000751 EQU $ ; IN [V4.0 RFID 2ND GENERATION_LIB.PBP] INC SD_WRITE_BUFFER_POS
0016B6 0102           05498         MOVLB 2
  00000002            05499 RAM_BANK = 2
0016B8 4BC2           05500         INFSNZ SD_WRITE_BUFFER_POS,F
0016BA 2BC3           05501         INCF SD_WRITE_BUFFER_POSH,F
  000016BC            05502 F4_000752 EQU $ ; IN [V4.0 RFID 2ND GENERATION_LIB.PBP] SD_DATA_IO = SD_DAY | (SD_MONTH << 5)
0016BC C2F0 F024      05503         MOVFF SD_MONTH,PP7H
0016C0 6A23           05504         CLRF PP7,0
0016C2 90D8           05505         BCF STATUS,0,0
0016C4 3224           05506         RRCF PP7H,F,0
0016C6 3223           05507         RRCF PP7,F,0
0016C8 3224           05508         RRCF PP7H,F,0
0016CA 3223           05509         RRCF PP7,F,0
0016CC 3224           05510         RRCF PP7H,F,0
0016CE 3223           05511         RRCF PP7,F,0
0016D0 51EF           05512         MOVF SD_DAY,W
0016D2 1023           05513         IORWF PP7,W,0
0016D4 6F4D           05514         MOVWF SD_DATA_IO
  000016D6            05515 F4_000753 EQU $ ; IN [V4.0 RFID 2ND GENERATION_LIB.PBP] GOSUB SD_INSERT_BYTE_INTO_BUFFER
0016D6 0100           05516         MOVLB 0
  00000000            05517 RAM_BANK = 0
                      05518         F@CALL SD_INSERT_BYTE_INTO_BUFFER
  000016DC            05519 F4_000754 EQU $ ; IN [V4.0 RFID 2ND GENERATION_LIB.PBP] INC SD_WRITE_BUFFER_POS
0016DC 0102           05520         MOVLB 2
  00000002            05521 RAM_BANK = 2
0016DE 4BC2           05522         INFSNZ SD_WRITE_BUFFER_POS,F
0016E0 2BC3           05523         INCF SD_WRITE_BUFFER_POSH,F
  000016E2            05524 F4_000755 EQU $ ; IN [V4.0 RFID 2ND GENERATION_LIB.PBP] SD_DATA_IO = (SD_MONTH >> 3) | ((SD_YEAR + 20) << 1)
0016E2 6A24           05525         CLRF PP7H,0
0016E4 C2F0 F023      05526         MOVFF SD_MONTH,PP7
0016E8 3224           05527         RRCF PP7H,F,0
0016EA 3223           05528         RRCF PP7,F,0
0016EC 3224           05529         RRCF PP7H,F,0
0016EE 3223           05530         RRCF PP7,F,0
0016F0 3224           05531         RRCF PP7H,F,0
0016F2 3223           05532         RRCF PP7,F,0
0016F4 0E1F           05533         MOVLW 31
0016F6 1624           05534         ANDWF PP7H,F,0
0016F8 6A28           05535         CLRF PP8H,0
0016FA C2F1 F027      05536         MOVFF SD_YEAR,PP8
0016FE 0E14           05537         MOVLW 20
001700 2627           05538         ADDWF PP8,F,0
001702 0E00           05539         MOVLW 0
001704 2228           05540         ADDWFC PP8H,F,0
001706 90D8           05541         BCF STATUS,0,0
001708 3627           05542         RLCF PP8,F,0
00170A 3628           05543         RLCF PP8H,F,0
00170C 5023           05544         MOVF PP7,W,0
00170E 1027           05545         IORWF PP8,W,0
001710 6F4D           05546         MOVWF SD_DATA_IO
  00001712            05547 F4_000756 EQU $ ; IN [V4.0 RFID 2ND GENERATION_LIB.PBP] GOSUB SD_INSERT_BYTE_INTO_BUFFER
001712 0100           05548         MOVLB 0
  00000000            05549 RAM_BANK = 0
                      05550         F@CALL SD_INSERT_BYTE_INTO_BUFFER
  00001718            05551 F4_000757 EQU $ ; IN [V4.0 RFID 2ND GENERATION_LIB.PBP] RETURN
001718 0012           05552         RETURN 0
  0000171A            05553 F4_000763 EQU $ ; IN [V4.0 RFID 2ND GENERATION_LIB.PBP] SD_OPEN_FILE MACRO
                      05554 SD_OPEN_FILE    MACRO .,.,.,.,.,.,.,.,.,.
                      05555  LOCAL PRM_EMPTY=0,BIT=1,BYTE=2,WORD=3,DWORD=4,FLOAT=5,LABEL=6,CHAR=7,STRING=9
                      05556  LOCAL NUM8=8,NUM16=16,NUM32=32,SNUM8=10,SNUM16=15,SNUM32=31,FNUM=33,BYTE_ARRAY_PTR=22,WORD_ARRAY_PTR=23
                      05557         F@CALL SD_OPEN_FILE_SUB
                      05558  IF (RETURN_TYPE !=BYTE) && (RETURN_TYPE !=WORD) && (RETURN_TYPE !=DWORD)
                      05559         ERROR "(IN ASM) SD_OPEN_FILE - RETURN VARIABLE SHOULD BE A BYTE, WORD, OR DWORD VARIABLE"
                      05560  ELSE
                      05561  IF (RETURN_TYPE == BYTE)
                      05562         BYTE_BYTE SD_EXTENDED_RETURN, RETURN_VAR
                      05563  ENDIF
                      05564  IF (RETURN_TYPE == WORD)
                      05565         BYTE_WORD SD_EXTENDED_RETURN, RETURN_VAR
                      05566 RAM_BANK = 0
                      05567  ENDIF
                      05568  IF (RETURN_TYPE == DWORD)
                      05569         BYTE_DWORD SD_EXTENDED_RETURN, RETURN_VAR
                      05570 RAM_BANK = 0
                      05571  ENDIF
                      05572  ENDIF
                      05573         ENDM
00171A                05574 SD_OPEN_FILE_SUB
  0000171A            05575 F4_000787 EQU $ ; IN [V4.0 RFID 2ND GENERATION_LIB.PBP] GOSUB SD_CHECK_FOR_FILE_SUB
                      05576         F@CALL SD_CHECK_FOR_FILE_SUB
  0000171C            05577 F4_000788 EQU $ ; IN [V4.0 RFID 2ND GENERATION_LIB.PBP] IF SD_EXTENDED_RETURN_ROOT_DIR <> 0 THEN
00171C 0102           05578         MOVLB 2
  00000002            05579 RAM_BANK = 2
00171E 534C           05580         MOVF SD_EXTENDED_RETURN_ROOT_DIR,F
001720 0100           05581         MOVLB 0
  00000000            05582 RAM_BANK = 0
001722 B4D8           05583         BTFSC STATUS,2,0
                      05584         GO@TO BC@LL145
  00001728            05585 F4_000789 EQU $ ; IN [V4.0 RFID 2ND GENERATION_LIB.PBP] SD_EXTENDED_RETURN = 1
001728 0E01           05586         MOVLW 1
00172A 0102           05587         MOVLB 2
  00000002            05588 RAM_BANK = 2
00172C 6F4B           05589         MOVWF SD_EXTENDED_RETURN
  0000172E            05590 F4_000790 EQU $ ; IN [V4.0 RFID 2ND GENERATION_LIB.PBP] RETURN
00172E 0100           05591         MOVLB 0
  00000000            05592 RAM_BANK = 0
001730 0012           05593         RETURN 0
  00001732            05594 F4_000791 EQU $ ; IN [V4.0 RFID 2ND GENERATION_LIB.PBP] ENDIF
001732                05595 BC@LL145
  00001732            05596 F4_000792 EQU $ ; IN [V4.0 RFID 2ND GENERATION_LIB.PBP] SD_CLUSTER_NUM.BYTE0 = SD_ROOT_DIR_FILE[$1A]
001732 0102           05597         MOVLB 2
  00000002            05598 RAM_BANK = 2
001734 51B8           05599         MOVF SD_ROOT_DIR_FILE#26,W
001736 6FC5           05600         MOVWF SD_CLUSTER_NUM
  00001738            05601 F4_000793 EQU $ ; IN [V4.0 RFID 2ND GENERATION_LIB.PBP] SD_CLUSTER_NUM.BYTE1 = SD_ROOT_DIR_FILE[$1B]
001738 51B9           05602         MOVF SD_ROOT_DIR_FILE#27,W
00173A 6FC6           05603         MOVWF SD_CLUSTER_NUMH
  0000173C            05604 F4_000794 EQU $ ; IN [V4.0 RFID 2ND GENERATION_LIB.PBP] SD_FILE_SIZE.BYTE0 = SD_ROOT_DIR_FILE[$1C]
00173C 51BA           05605         MOVF SD_ROOT_DIR_FILE#28,W
00173E 6FCC           05606         MOVWF SD_FILE_SIZE
  00001740            05607 F4_000795 EQU $ ; IN [V4.0 RFID 2ND GENERATION_LIB.PBP] SD_FILE_SIZE.BYTE1 = SD_ROOT_DIR_FILE[$1D]
001740 51BB           05608         MOVF SD_ROOT_DIR_FILE#29,W
001742 6FCD           05609         MOVWF SD_FILE_SIZEH
  00001744            05610 F4_000796 EQU $ ; IN [V4.0 RFID 2ND GENERATION_LIB.PBP] SD_FILE_SIZE.BYTE2 = SD_ROOT_DIR_FILE[$1E]
001744 51BC           05611         MOVF SD_ROOT_DIR_FILE#30,W
001746 6FCE           05612         MOVWF SD_FILE_SIZEHH
  00001748            05613 F4_000797 EQU $ ; IN [V4.0 RFID 2ND GENERATION_LIB.PBP] SD_FILE_SIZE.BYTE3 = SD_ROOT_DIR_FILE[$1F]
001748 51BD           05614         MOVF SD_ROOT_DIR_FILE#31,W
00174A 6FCF           05615         MOVWF SD_FILE_SIZEHHH
  0000174C            05616 F4_000798 EQU $ ; IN [V4.0 RFID 2ND GENERATION_LIB.PBP] SD_DATA_SEC = (SD_CLUSTER_NUM - 2) * SD_SECS_PER_CLUSTER
00174C 0EFE           05617         MOVLW 254
00174E 25C5           05618         ADDWF SD_CLUSTER_NUM,W
001750 6E23           05619         MOVWF PP7,0
001752 0EFF           05620         MOVLW 255
001754 21C6           05621         ADDWFC SD_CLUSTER_NUMH,W
001756 6E24           05622         MOVWF PP7H,0
001758 0EFF           05623         MOVLW 255
00175A 6A25           05624         CLRF PP7HH,0
00175C 2225           05625         ADDWFC PP7HH,F,0
00175E 6A26           05626         CLRF PP7HHH,0
001760 2226           05627         ADDWFC PP7HHH,F,0
001762 C026 F014      05628         MOVFF PP7HHH,PP0HHH
001766 C025 F013      05629         MOVFF PP7HH,PP0HH
00176A C024 F012      05630         MOVFF PP7H,PP0H
00176E C023 F011      05631         MOVFF PP7,PP0
001772 6A1C           05632         CLRF PP2HHH,0
001774 6A1B           05633         CLRF PP2HH,0
001776 6A1A           05634         CLRF PP2H,0
001778 C255 F019      05635         MOVFF SD_SECS_PER_CLUSTER,PP2
                      05636         F@CALL AL@MUL
001780 C014 F28E      05637         MOVFF PP0HHH,SD_DATA_SECHHH
001784 C013 F28D      05638         MOVFF PP0HH,SD_DATA_SECHH
001788 C012 F28C      05639         MOVFF PP0H,SD_DATA_SECH
00178C C011 F28B      05640         MOVFF PP0,SD_DATA_SEC
  00001790            05641 F4_000799 EQU $ ; IN [V4.0 RFID 2ND GENERATION_LIB.PBP] SD_DATA_SEC = SD_DATA_SEC + SD_DATA_AREA
001790 5173           05642         MOVF SD_DATA_AREA,W
001792 278B           05643         ADDWF SD_DATA_SEC,F
001794 5174           05644         MOVF SD_DATA_AREAH,W
001796 238C           05645         ADDWFC SD_DATA_SECH,F
001798 5175           05646         MOVF SD_DATA_AREAHH,W
00179A 238D           05647         ADDWFC SD_DATA_SECHH,F
00179C 5176           05648         MOVF SD_DATA_AREAHHH,W
00179E 238E           05649         ADDWFC SD_DATA_SECHHH,F
  000017A0            05650 F4_000800 EQU $ ; IN [V4.0 RFID 2ND GENERATION_LIB.PBP] SD_SEC_IN_CLUSTER = 1
0017A0 0E01           05651         MOVLW 1
0017A2 6FCB           05652         MOVWF SD_SEC_IN_CLUSTER
  000017A4            05653 F4_000801 EQU $ ; IN [V4.0 RFID 2ND GENERATION_LIB.PBP] SD_SECTOR_NUM = SD_DATA_SEC
0017A4 C28E F037      05654         MOVFF SD_DATA_SECHHH,SD_SECTOR_NUMHHH
0017A8 C28D F036      05655         MOVFF SD_DATA_SECHH,SD_SECTOR_NUMHH
0017AC C28C F035      05656         MOVFF SD_DATA_SECH,SD_SECTOR_NUMH
0017B0 C28B F034      05657         MOVFF SD_DATA_SEC,SD_SECTOR_NUM
  000017B4            05658 F4_000802 EQU $ ; IN [V4.0 RFID 2ND GENERATION_LIB.PBP] SD_RW_OPTION = 1
0017B4 6F4A           05659         MOVWF SD_RW_OPTION
  000017B6            05660 F4_000803 EQU $ ; IN [V4.0 RFID 2ND GENERATION_LIB.PBP] GOSUB SD_SECTOR_SUB
0017B6 0100           05661         MOVLB 0
  00000000            05662 RAM_BANK = 0
                      05663         F@CALL SD_SECTOR_SUB
  000017BC            05664 F4_000805 EQU $ ; IN [V4.0 RFID 2ND GENERATION_LIB.PBP] IF SD_RETURN = 1 THEN
0017BC 0E01           05665         MOVLW 1
0017BE 5C40           05666         SUBWF SD_RETURN,W,0
0017C0 A4D8           05667         BTFSS STATUS,2,0
                      05668         GO@TO BC@LL147
  000017C6            05669 F4_000806 EQU $ ; IN [V4.0 RFID 2ND GENERATION_LIB.PBP] SD_EXTENDED_RETURN = 1
0017C6 0E01           05670         MOVLW 1
0017C8 0102           05671         MOVLB 2
  00000002            05672 RAM_BANK = 2
0017CA 6F4B           05673         MOVWF SD_EXTENDED_RETURN
  000017CC            05674 F4_000807 EQU $ ; IN [V4.0 RFID 2ND GENERATION_LIB.PBP] RETURN
0017CC 0100           05675         MOVLB 0
  00000000            05676 RAM_BANK = 0
0017CE 0012           05677         RETURN 0
  000017D0            05678 F4_000808 EQU $ ; IN [V4.0 RFID 2ND GENERATION_LIB.PBP] ENDIF
0017D0                05679 BC@LL147
  000017D0            05680 F4_000809 EQU $ ; IN [V4.0 RFID 2ND GENERATION_LIB.PBP] SD_DATA_BUFFER_POS = 0
0017D0 0102           05681         MOVLB 2
  00000002            05682 RAM_BANK = 2
0017D2 6B90           05683         CLRF SD_DATA_BUFFER_POSH
0017D4 6B8F           05684         CLRF SD_DATA_BUFFER_POS
  000017D6            05685 F4_000810 EQU $ ; IN [V4.0 RFID 2ND GENERATION_LIB.PBP] SD_BYTES_READ = 0
0017D6 6BE4           05686         CLRF SD_BYTES_READHHH
0017D8 6BE3           05687         CLRF SD_BYTES_READHH
0017DA 6BE2           05688         CLRF SD_BYTES_READH
0017DC 6BE1           05689         CLRF SD_BYTES_READ
  000017DE            05690 F4_000811 EQU $ ; IN [V4.0 RFID 2ND GENERATION_LIB.PBP] IF SD_FILE_SIZE > 0 THEN
0017DE 96D8           05691         BCF STATUS,3,0
0017E0 BFCF           05692         BTFSC SD_FILE_SIZEHHH,7
0017E2 86D8           05693         BSF STATUS,3,0
0017E4 0100           05694         MOVLB 0
  00000000            05695 RAM_BANK = 0
                      05696         G@OTO BC@LL149
0017EC 0102           05697         MOVLB 2
  00000002            05698 RAM_BANK = 2
0017EE 51CC           05699         MOVF SD_FILE_SIZE,W
0017F0 11CD           05700         IORWF SD_FILE_SIZEH,W
0017F2 11CE           05701         IORWF SD_FILE_SIZEHH,W
0017F4 11CF           05702         IORWF SD_FILE_SIZEHHH,W
0017F6 0100           05703         MOVLB 0
  00000000            05704 RAM_BANK = 0
0017F8 B4D8           05705         BTFSC STATUS,2,0
                      05706         GO@TO BC@LL149
  000017FE            05707 F4_000812 EQU $ ; IN [V4.0 RFID 2ND GENERATION_LIB.PBP] SD_EOF = 0
0017FE 0102           05708         MOVLB 2
  00000002            05709 RAM_BANK = 2
001800 91E5           05710         BCF _B#VR1,0
001802 0100           05711         MOVLB 0
  00000000            05712 RAM_BANK = 0
                      05713         F@JUMP BC@LL150
001808                05714 BC@LL149
  00001808            05715 F4_000813 EQU $ ; IN [V4.0 RFID 2ND GENERATION_LIB.PBP] ELSE
  00001808            05716 F4_000814 EQU $ ; IN [V4.0 RFID 2ND GENERATION_LIB.PBP] SD_EOF = 1
001808 0102           05717         MOVLB 2
  00000002            05718 RAM_BANK = 2
00180A 81E5           05719         BSF _B#VR1,0
  0000180C            05720 F4_000815 EQU $ ; IN [V4.0 RFID 2ND GENERATION_LIB.PBP] ENDIF
00180C                05721 BC@LL150
00180C 0100           05722         MOVLB 0
  00000000            05723 RAM_BANK = 0
  0000180E            05724 F4_000816 EQU $ ; IN [V4.0 RFID 2ND GENERATION_LIB.PBP] SD_IS_DIRTY = 0
00180E 0102           05725         MOVLB 2
  00000002            05726 RAM_BANK = 2
001810 6BF6           05727         CLRF SD_IS_DIRTY
  00001812            05728 F4_000817 EQU $ ; IN [V4.0 RFID 2ND GENERATION_LIB.PBP] SD_CLUSTER_SEQ_NUM = 1
001812 6BD9           05729         CLRF SD_CLUSTER_SEQ_NUMH
001814 0E01           05730         MOVLW 1
001816 6FD8           05731         MOVWF SD_CLUSTER_SEQ_NUM
  00001818            05732 F4_000818 EQU $ ; IN [V4.0 RFID 2ND GENERATION_LIB.PBP] SD_EXTENDED_RETURN = 0
001818 6B4B           05733         CLRF SD_EXTENDED_RETURN
  0000181A            05734 F4_000819 EQU $ ; IN [V4.0 RFID 2ND GENERATION_LIB.PBP] RETURN
00181A 0100           05735         MOVLB 0
  00000000            05736 RAM_BANK = 0
00181C 0012           05737         RETURN 0
  0000181E            05738 F4_000825 EQU $ ; IN [V4.0 RFID 2ND GENERATION_LIB.PBP] SD_READ_BYTE_FROM_FILE MACRO
                      05739 SD_READ_BYTE_FROM_FILE  MACRO .,.,.,.,.,.,.,.,.,.
                      05740  LOCAL PRM_EMPTY=0,BIT=1,BYTE=2,WORD=3,DWORD=4,FLOAT=5,LABEL=6,CHAR=7,STRING=9
                      05741  LOCAL NUM8=8,NUM16=16,NUM32=32,SNUM8=10,SNUM16=15,SNUM32=31,FNUM=33,BYTE_ARRAY_PTR=22,WORD_ARRAY_PTR=23
                      05742         F@CALL SD_READ_BYTE_FROM_FILE_SUB
                      05743  IF (SD_READ_BYTE_FROM_FILE_RETURN != 1)
                      05744         ERROR "(IN ASM) SD_READ_BYTE_FROM_FILE -  MANDATORY RETURN PARAMETER MISSING"
                      05745  ELSE
                      05746  IF (RETURN_TYPE !=BYTE) && (RETURN_TYPE !=WORD) && (RETURN_TYPE !=DWORD)
                      05747         ERROR "(IN ASM) SD_READ_BYTE_FROM_FILE - RETURN VARIABLE SHOULD BE A BYTE, WORD OR DWORD VARIABLE"
                      05748  ELSE
                      05749  IF (RETURN_TYPE == BYTE)
                      05750         BYTE_BYTE SD_BYTE_RW, RETURN_VAR
                      05751  ENDIF
                      05752  IF (RETURN_TYPE == WORD)
                      05753         BYTE_WORD SD_BYTE_RW, RETURN_VAR
                      05754 RAM_BANK = 0
                      05755  ENDIF
                      05756  IF (RETURN_TYPE == DWORD)
                      05757         BYTE_DWORD SD_BYTE_RW, RETURN_VAR
                      05758 RAM_BANK = 0
                      05759  ENDIF
                      05760  ENDIF
                      05761  ENDIF
                      05762         ENDM
00181E                05763 SD_READ_BYTE_FROM_FILE_SUB
  0000181E            05764 F4_000853 EQU $ ; IN [V4.0 RFID 2ND GENERATION_LIB.PBP] IF SD_EOF = 0 THEN
00181E 0102           05765         MOVLB 2
  00000002            05766 RAM_BANK = 2
001820 31E5           05767         RRCF _B#VR1,W
001822 0100           05768         MOVLB 0
  00000000            05769 RAM_BANK = 0
001824 B0D8           05770         BTFSC STATUS,0,0
                      05771         GO@TO BC@LL152
  0000182A            05772 F4_000854 EQU $ ; IN [V4.0 RFID 2ND GENERATION_LIB.PBP] INC SD_DATA_BUFFER_POS
00182A 0102           05773         MOVLB 2
  00000002            05774 RAM_BANK = 2
00182C 4B8F           05775         INFSNZ SD_DATA_BUFFER_POS,F
00182E 2B90           05776         INCF SD_DATA_BUFFER_POSH,F
  00001830            05777 F4_000855 EQU $ ; IN [V4.0 RFID 2ND GENERATION_LIB.PBP] IF SD_DATA_BUFFER_POS > SD_BYTES_PER_SEC THEN
001830 518F           05778         MOVF SD_DATA_BUFFER_POS,W
001832 5D5F           05779         SUBWF SD_BYTES_PER_SEC,W
001834 5190           05780         MOVF SD_DATA_BUFFER_POSH,W
001836 5960           05781         SUBWFB SD_BYTES_PER_SECH,W
001838 0100           05782         MOVLB 0
  00000000            05783 RAM_BANK = 0
00183A B0D8           05784         BTFSC STATUS,0,0
                      05785         GO@TO BC@LL154
  00001840            05786 F4_000856 EQU $ ; IN [V4.0 RFID 2ND GENERATION_LIB.PBP] IF SD_IS_DIRTY = 1 THEN
001840 0E01           05787         MOVLW 1
001842 0102           05788         MOVLB 2
  00000002            05789 RAM_BANK = 2
001844 5DF6           05790         SUBWF SD_IS_DIRTY,W
001846 0100           05791         MOVLB 0
  00000000            05792 RAM_BANK = 0
001848 A4D8           05793         BTFSS STATUS,2,0
                      05794         GO@TO BC@LL156
  0000184E            05795 F4_000857 EQU $ ; IN [V4.0 RFID 2ND GENERATION_LIB.PBP] REPEAT
00184E                05796 BC@LL157
  0000184E            05797 F4_000858 EQU $ ; IN [V4.0 RFID 2ND GENERATION_LIB.PBP] GOSUB SD_WRITE_SECTOR
                      05798         F@CALL SD_WRITE_SECTOR
  00001852            05799 F4_000859 EQU $ ; IN [V4.0 RFID 2ND GENERATION_LIB.PBP] UNTIL SD_RETURN = 0
001852 5240           05800         MOVF SD_RETURN,F,0
001854 A4D8           05801         BTFSS STATUS,2,0
                      05802         GO@TO BC@LL157
001858                05803 BC@LL158
  00001858            05804 F4_000860 EQU $ ; IN [V4.0 RFID 2ND GENERATION_LIB.PBP] SD_IS_DIRTY = 0
001858 0102           05805         MOVLB 2
  00000002            05806 RAM_BANK = 2
00185A 6BF6           05807         CLRF SD_IS_DIRTY
  0000185C            05808 F4_000861 EQU $ ; IN [V4.0 RFID 2ND GENERATION_LIB.PBP] ENDIF
00185C                05809 BC@LL156
00185C 0100           05810         MOVLB 0
  00000000            05811 RAM_BANK = 0
  0000185E            05812 F4_000862 EQU $ ; IN [V4.0 RFID 2ND GENERATION_LIB.PBP] INC SD_DATA_SEC
00185E 0102           05813         MOVLB 2
  00000002            05814 RAM_BANK = 2
001860 2B8B           05815         INCF SD_DATA_SEC,F
001862 0E00           05816         MOVLW 0
001864 238C           05817         ADDWFC SD_DATA_SECH,F
001866 238D           05818         ADDWFC SD_DATA_SECHH,F
001868 238E           05819         ADDWFC SD_DATA_SECHHH,F
  0000186A            05820 F4_000863 EQU $ ; IN [V4.0 RFID 2ND GENERATION_LIB.PBP] INC SD_SEC_IN_CLUSTER
00186A 2BCB           05821         INCF SD_SEC_IN_CLUSTER,F
  0000186C            05822 F4_000864 EQU $ ; IN [V4.0 RFID 2ND GENERATION_LIB.PBP] IF SD_SEC_IN_CLUSTER > SD_SECS_PER_CLUSTER THEN
00186C 51CB           05823         MOVF SD_SEC_IN_CLUSTER,W
00186E 5D55           05824         SUBWF SD_SECS_PER_CLUSTER,W
001870 0100           05825         MOVLB 0
  00000000            05826 RAM_BANK = 0
001872 B0D8           05827         BTFSC STATUS,0,0
                      05828         GO@TO BC@LL160
  00001878            05829 F4_000865 EQU $ ; IN [V4.0 RFID 2ND GENERATION_LIB.PBP] SD_FAT_SEC = SD_CLUSTER_NUM / $100
001878 6A14           05830         CLRF PP0HHH,0
00187A 6A13           05831         CLRF PP0HH,0
00187C C2C6 F012      05832         MOVFF SD_CLUSTER_NUMH,PP0H
001880 C2C5 F011      05833         MOVFF SD_CLUSTER_NUM,PP0
001884 6A1C           05834         CLRF PP2HHH,0
001886 6A1B           05835         CLRF PP2HH,0
001888 0E01           05836         MOVLW 1
00188A 6E1A           05837         MOVWF PP2H,0
00188C 6A19           05838         CLRF PP2,0
                      05839         F@CALL L@DIV
001892 C014 F27C      05840         MOVFF PP0HHH,SD_FAT_SECHHH
001896 C013 F27B      05841         MOVFF PP0HH,SD_FAT_SECHH
00189A C012 F27A      05842         MOVFF PP0H,SD_FAT_SECH
00189E C011 F279      05843         MOVFF PP0,SD_FAT_SEC
  000018A2            05844 F4_000866 EQU $ ; IN [V4.0 RFID 2ND GENERATION_LIB.PBP] SD_FAT_BUFFER_POS = SD_CLUSTER_NUM // $100
0018A2 C2C5 F27D      05845         MOVFF SD_CLUSTER_NUM,SD_FAT_BUFFER_POS
0018A6 0102           05846         MOVLB 2
  00000002            05847 RAM_BANK = 2
0018A8 6B7E           05848         CLRF SD_FAT_BUFFER_POSH
  000018AA            05849 F4_000867 EQU $ ; IN [V4.0 RFID 2ND GENERATION_LIB.PBP] SD_FAT_BUFFER_POS = SD_FAT_BUFFER_POS * 2
0018AA 90D8           05850         BCF STATUS,0,0
0018AC 377D           05851         RLCF SD_FAT_BUFFER_POS,F
0018AE 377E           05852         RLCF SD_FAT_BUFFER_POSH,F
  000018B0            05853 F4_000868 EQU $ ; IN [V4.0 RFID 2ND GENERATION_LIB.PBP] SD_SECTOR_NUM = SD_FAT1 + SD_FAT_SEC
0018B0 5179           05854         MOVF SD_FAT_SEC,W
0018B2 2567           05855         ADDWF SD_FAT1,W
0018B4 6E34           05856         MOVWF SD_SECTOR_NUM,0
0018B6 517A           05857         MOVF SD_FAT_SECH,W
0018B8 2168           05858         ADDWFC SD_FAT1H,W
0018BA 6E35           05859         MOVWF SD_SECTOR_NUMH,0
0018BC 517B           05860         MOVF SD_FAT_SECHH,W
0018BE 2169           05861         ADDWFC SD_FAT1HH,W
0018C0 6E36           05862         MOVWF SD_SECTOR_NUMHH,0
0018C2 517C           05863         MOVF SD_FAT_SECHHH,W
0018C4 216A           05864         ADDWFC SD_FAT1HHH,W
0018C6 6E37           05865         MOVWF SD_SECTOR_NUMHHH,0
  000018C8            05866 F4_000869 EQU $ ; IN [V4.0 RFID 2ND GENERATION_LIB.PBP] SD_RW_OPTION = 1
0018C8 0E01           05867         MOVLW 1
0018CA 6F4A           05868         MOVWF SD_RW_OPTION
  000018CC            05869 F4_000870 EQU $ ; IN [V4.0 RFID 2ND GENERATION_LIB.PBP] GOSUB SD_SECTOR_SUB
0018CC 0100           05870         MOVLB 0
  00000000            05871 RAM_BANK = 0
                      05872         F@CALL SD_SECTOR_SUB
  000018D2            05873 F4_000872 EQU $ ; IN [V4.0 RFID 2ND GENERATION_LIB.PBP] SD_BUFFER_POS = SD_FAT_BUFFER_POS
0018D2 C27E F24F      05874         MOVFF SD_FAT_BUFFER_POSH,SD_BUFFER_POSH
0018D6 C27D F24E      05875         MOVFF SD_FAT_BUFFER_POS,SD_BUFFER_POS
  000018DA            05876 F4_000873 EQU $ ; IN [V4.0 RFID 2ND GENERATION_LIB.PBP] GOSUB SD_READ_FAT_ENTRY
                      05877         F@CALL SD_READ_FAT_ENTRY
  000018DE            05878 F4_000874 EQU $ ; IN [V4.0 RFID 2ND GENERATION_LIB.PBP] SD_CLUSTER_NUM = SD_FAT_ENTRY
0018DE C278 F2C6      05879         MOVFF SD_FAT_ENTRYH,SD_CLUSTER_NUMH
0018E2 C277 F2C5      05880         MOVFF SD_FAT_ENTRY,SD_CLUSTER_NUM
  000018E6            05881 F4_000875 EQU $ ; IN [V4.0 RFID 2ND GENERATION_LIB.PBP] SD_DATA_SEC = (SD_CLUSTER_NUM - 2) * SD_SECS_PER_CLUSTER
0018E6 0EFE           05882         MOVLW 254
0018E8 0102           05883         MOVLB 2
  00000002            05884 RAM_BANK = 2
0018EA 25C5           05885         ADDWF SD_CLUSTER_NUM,W
0018EC 6E23           05886         MOVWF PP7,0
0018EE 0EFF           05887         MOVLW 255
0018F0 21C6           05888         ADDWFC SD_CLUSTER_NUMH,W
0018F2 6E24           05889         MOVWF PP7H,0
0018F4 0EFF           05890         MOVLW 255
0018F6 6A25           05891         CLRF PP7HH,0
0018F8 2225           05892         ADDWFC PP7HH,F,0
0018FA 6A26           05893         CLRF PP7HHH,0
0018FC 2226           05894         ADDWFC PP7HHH,F,0
0018FE C026 F014      05895         MOVFF PP7HHH,PP0HHH
001902 C025 F013      05896         MOVFF PP7HH,PP0HH
001906 C024 F012      05897         MOVFF PP7H,PP0H
00190A C023 F011      05898         MOVFF PP7,PP0
00190E 6A1C           05899         CLRF PP2HHH,0
001910 6A1B           05900         CLRF PP2HH,0
001912 6A1A           05901         CLRF PP2H,0
001914 C255 F019      05902         MOVFF SD_SECS_PER_CLUSTER,PP2
                      05903         F@CALL AL@MUL
00191C C014 F28E      05904         MOVFF PP0HHH,SD_DATA_SECHHH
001920 C013 F28D      05905         MOVFF PP0HH,SD_DATA_SECHH
001924 C012 F28C      05906         MOVFF PP0H,SD_DATA_SECH
001928 C011 F28B      05907         MOVFF PP0,SD_DATA_SEC
  0000192C            05908 F4_000876 EQU $ ; IN [V4.0 RFID 2ND GENERATION_LIB.PBP] SD_DATA_SEC = SD_DATA_SEC + SD_DATA_AREA
00192C 5173           05909         MOVF SD_DATA_AREA,W
00192E 278B           05910         ADDWF SD_DATA_SEC,F
001930 5174           05911         MOVF SD_DATA_AREAH,W
001932 238C           05912         ADDWFC SD_DATA_SECH,F
001934 5175           05913         MOVF SD_DATA_AREAHH,W
001936 238D           05914         ADDWFC SD_DATA_SECHH,F
001938 5176           05915         MOVF SD_DATA_AREAHHH,W
00193A 238E           05916         ADDWFC SD_DATA_SECHHH,F
  0000193C            05917 F4_000877 EQU $ ; IN [V4.0 RFID 2ND GENERATION_LIB.PBP] SD_SECTOR_NUM = SD_DATA_SEC
00193C C28E F037      05918         MOVFF SD_DATA_SECHHH,SD_SECTOR_NUMHHH
001940 C28D F036      05919         MOVFF SD_DATA_SECHH,SD_SECTOR_NUMHH
001944 C28C F035      05920         MOVFF SD_DATA_SECH,SD_SECTOR_NUMH
001948 C28B F034      05921         MOVFF SD_DATA_SEC,SD_SECTOR_NUM
  0000194C            05922 F4_000878 EQU $ ; IN [V4.0 RFID 2ND GENERATION_LIB.PBP] SD_RW_OPTION = 1
00194C 0E01           05923         MOVLW 1
00194E 6F4A           05924         MOVWF SD_RW_OPTION
  00001950            05925 F4_000879 EQU $ ; IN [V4.0 RFID 2ND GENERATION_LIB.PBP] GOSUB SD_SECTOR_SUB
001950 0100           05926         MOVLB 0
  00000000            05927 RAM_BANK = 0
                      05928         F@CALL SD_SECTOR_SUB
  00001956            05929 F4_000881 EQU $ ; IN [V4.0 RFID 2ND GENERATION_LIB.PBP] SD_SEC_IN_CLUSTER = 1
001956 0E01           05930         MOVLW 1
001958 0102           05931         MOVLB 2
  00000002            05932 RAM_BANK = 2
00195A 6FCB           05933         MOVWF SD_SEC_IN_CLUSTER
  0000195C            05934 F4_000882 EQU $ ; IN [V4.0 RFID 2ND GENERATION_LIB.PBP] ENDIF
00195C                05935 BC@LL160
00195C 0100           05936         MOVLB 0
  00000000            05937 RAM_BANK = 0
  0000195E            05938 F4_000883 EQU $ ; IN [V4.0 RFID 2ND GENERATION_LIB.PBP] SD_DATA_BUFFER_POS = 1
00195E 0102           05939         MOVLB 2
  00000002            05940 RAM_BANK = 2
001960 6B90           05941         CLRF SD_DATA_BUFFER_POSH
001962 0E01           05942         MOVLW 1
001964 6F8F           05943         MOVWF SD_DATA_BUFFER_POS
  00001966            05944 F4_000884 EQU $ ; IN [V4.0 RFID 2ND GENERATION_LIB.PBP] ENDIF
001966                05945 BC@LL154
001966 0100           05946         MOVLB 0
  00000000            05947 RAM_BANK = 0
  00001968            05948 F4_000885 EQU $ ; IN [V4.0 RFID 2ND GENERATION_LIB.PBP] GOSUB SD_READ_SUB
                      05949         F@CALL SD_READ_SUB
  0000196C            05950 F4_000886 EQU $ ; IN [V4.0 RFID 2ND GENERATION_LIB.PBP] INC SD_BYTES_READ
00196C 0102           05951         MOVLB 2
  00000002            05952 RAM_BANK = 2
00196E 2BE1           05953         INCF SD_BYTES_READ,F
001970 0E00           05954         MOVLW 0
001972 23E2           05955         ADDWFC SD_BYTES_READH,F
001974 23E3           05956         ADDWFC SD_BYTES_READHH,F
001976 23E4           05957         ADDWFC SD_BYTES_READHHH,F
  00001978            05958 F4_000887 EQU $ ; IN [V4.0 RFID 2ND GENERATION_LIB.PBP] IF SD_BYTES_READ >= SD_FILE_SIZE THEN SD_EOF = 1
001978 51CC           05959         MOVF SD_FILE_SIZE,W
00197A 5DE1           05960         SUBWF SD_BYTES_READ,W
00197C 51CD           05961         MOVF SD_FILE_SIZEH,W
00197E 59E2           05962         SUBWFB SD_BYTES_READH,W
001980 51CE           05963         MOVF SD_FILE_SIZEHH,W
001982 59E3           05964         SUBWFB SD_BYTES_READHH,W
001984 51CF           05965         MOVF SD_FILE_SIZEHHH,W
001986 59E4           05966         SUBWFB SD_BYTES_READHHH,W
001988 51E4           05967         MOVF SD_BYTES_READHHH,W
00198A 19CF           05968         XORWF SD_FILE_SIZEHHH,W
00198C B0D8           05969         BTFSC STATUS,0,0
00198E 0A80           05970         XORLW 128
001990 0100           05971         MOVLB 0
  00000000            05972 RAM_BANK = 0
001992 A8D8           05973         BTFSS STATUS,4,0
                      05974         GO@TO BC@LL162
001998 0102           05975         MOVLB 2
  00000002            05976 RAM_BANK = 2
00199A 81E5           05977         BSF _B#VR1,0
00199C                05978 BC@LL162
00199C 0100           05979         MOVLB 0
  00000000            05980 RAM_BANK = 0
  0000199E            05981 F4_000888 EQU $ ; IN [V4.0 RFID 2ND GENERATION_LIB.PBP] ENDIF
00199E                05982 BC@LL152
  0000199E            05983 F4_000889 EQU $ ; IN [V4.0 RFID 2ND GENERATION_LIB.PBP] RETURN
00199E 0012           05984         RETURN 0
  000019A0            05985 F4_000895 EQU $ ; IN [V4.0 RFID 2ND GENERATION_LIB.PBP] SD_CHECK_FOR_FILE MACRO
                      05986 SD_CHECK_FOR_FILE       MACRO .,.,.,.,.,.,.,.,.,.
                      05987  LOCAL PRM_EMPTY=0,BIT=1,BYTE=2,WORD=3,DWORD=4,FLOAT=5,LABEL=6,CHAR=7,STRING=9
                      05988  LOCAL NUM8=8,NUM16=16,NUM32=32,SNUM8=10,SNUM16=15,SNUM32=31,FNUM=33,BYTE_ARRAY_PTR=22,WORD_ARRAY_PTR=23
                      05989         F@CALL SD_CHECK_FOR_FILE_SUB
                      05990  IF (SD_CHECK_FOR_FILE_RETURN != 1)
                      05991         ERROR "(IN ASM) SD_CHECK_FOR_FILE -  MANDATORY RETURN PARAMETER MISSING"
                      05992  ELSE
                      05993  IF (RETURN_TYPE != BYTE) && (RETURN_TYPE != WORD) && (RETURN_TYPE != DWORD)
                      05994         ERROR "(IN ASM) SD_CHECK_FOR_FILE - RETURN VARIABLE SHOULD BE A BYTE, WORD OR DWORD VARIABLE"
                      05995  ENDIF
                      05996  IF (RETURN_TYPE == BYTE)
                      05997         BYTE_BYTE SD_EXTENDED_RETURN_ROOT_DIR, RETURN_VAR
                      05998  ENDIF
                      05999  IF (RETURN_TYPE == WORD)
                      06000         BYTE_WORD SD_EXTENDED_RETURN_ROOT_DIR, RETURN_VAR
                      06001 RAM_BANK = 0
                      06002  ENDIF
                      06003  IF (RETURN_TYPE == DWORD)
                      06004         BYTE_DWORD SD_EXTENDED_RETURN_ROOT_DIR, RETURN_VAR
                      06005 RAM_BANK = 0
                      06006  ENDIF
                      06007  ENDIF
                      06008         ENDM
  000019A0            06009 F4_000924 EQU $ ; IN [V4.0 RFID 2ND GENERATION_LIB.PBP] SD_NEW_FILE MACRO
                      06010 SD_NEW_FILE     MACRO .,.,.,.,.,.,.,.,.,.
                      06011  LOCAL PRM_EMPTY=0,BIT=1,BYTE=2,WORD=3,DWORD=4,FLOAT=5,LABEL=6,CHAR=7,STRING=9
                      06012  LOCAL NUM8=8,NUM16=16,NUM32=32,SNUM8=10,SNUM16=15,SNUM32=31,FNUM=33,BYTE_ARRAY_PTR=22,WORD_ARRAY_PTR=23
                      06013  IF (PRM_COUNT != 0)
                      06014         ERROR "(IN ASM) NO PARAMETERS REQUIRED FOR SD_NEW_FILE"
                      06015         EXITM
                      06016  ENDIF
                      06017         F@CALL SD_NEW_FILE_SUB
                      06018  IF (SD_NEW_FILE_RETURN != 1)
                      06019  ELSE
                      06020  IF (RETURN_TYPE != BYTE)
                      06021         ERROR "(IN ASM) SD_NEW_FILE - RETURN VARIABLE SHOULD BE A BYTE VARIABLE"
                      06022  ENDIF
                      06023  IF (RETURN_TYPE == BYTE)
                      06024         BYTE_BYTE SD_EXTENDED_RETURN, RETURN_VAR
                      06025  ENDIF
                      06026  ENDIF
                      06027         ENDM
0019A0                06028 SD_NEW_FILE_SUB
  000019A0            06029 F4_000949 EQU $ ; IN [V4.0 RFID 2ND GENERATION_LIB.PBP] SD_RETURN_F = 0
0019A0 0102           06030         MOVLB 2
  00000002            06031 RAM_BANK = 2
0019A2 6BF8           06032         CLRF SD_RETURN_F
  000019A4            06033 F4_000950 EQU $ ; IN [V4.0 RFID 2ND GENERATION_LIB.PBP] SD_FAT_SEC = 0
0019A4 6B7C           06034         CLRF SD_FAT_SECHHH
0019A6 6B7B           06035         CLRF SD_FAT_SECHH
0019A8 6B7A           06036         CLRF SD_FAT_SECH
0019AA 6B79           06037         CLRF SD_FAT_SEC
  000019AC            06038 F4_000951 EQU $ ; IN [V4.0 RFID 2ND GENERATION_LIB.PBP] SD_FAT_BUFFER_POS = 0
0019AC 6B7E           06039         CLRF SD_FAT_BUFFER_POSH
0019AE 6B7D           06040         CLRF SD_FAT_BUFFER_POS
  000019B0            06041 F4_000952 EQU $ ; IN [V4.0 RFID 2ND GENERATION_LIB.PBP] SD_CLUSTER_SEQ_NUM = 0
0019B0 6BD9           06042         CLRF SD_CLUSTER_SEQ_NUMH
0019B2 6BD8           06043         CLRF SD_CLUSTER_SEQ_NUM
  000019B4            06044 F4_000953 EQU $ ; IN [V4.0 RFID 2ND GENERATION_LIB.PBP] GOSUB SD_FIND_FREE_CLUSTER
0019B4 0100           06045         MOVLB 0
  00000000            06046 RAM_BANK = 0
                      06047         F@CALL SD_FIND_FREE_CLUSTER
  000019BA            06048 F4_000954 EQU $ ; IN [V4.0 RFID 2ND GENERATION_LIB.PBP] IF SD_EXTENDED_RETURN = 1 THEN RETURN
0019BA 0E01           06049         MOVLW 1
0019BC 0102           06050         MOVLB 2
  00000002            06051 RAM_BANK = 2
0019BE 5D4B           06052         SUBWF SD_EXTENDED_RETURN,W
0019C0 0100           06053         MOVLB 0
  00000000            06054 RAM_BANK = 0
0019C2 A4D8           06055         BTFSS STATUS,2,0
                      06056         GO@TO BC@LL164
0019C8 0012           06057         RETURN 0
0019CA                06058 BC@LL164
  000019CA            06059 F4_000955 EQU $ ; IN [V4.0 RFID 2ND GENERATION_LIB.PBP] SD_FIND_ROOT_DIR_ENTRY_F = 0
0019CA 0102           06060         MOVLB 2
  00000002            06061 RAM_BANK = 2
0019CC 6BE0           06062         CLRF SD_FIND_ROOT_DIR_ENTRY_F
  000019CE            06063 F4_000956 EQU $ ; IN [V4.0 RFID 2ND GENERATION_LIB.PBP] GOSUB SD_FIND_ROOT_DIR_ENTRY
0019CE 0100           06064         MOVLB 0
  00000000            06065 RAM_BANK = 0
                      06066         F@CALL SD_FIND_ROOT_DIR_ENTRY
  000019D4            06067 F4_000957 EQU $ ; IN [V4.0 RFID 2ND GENERATION_LIB.PBP] IF SD_EXTENDED_RETURN_ROOT_DIR = 1 THEN
0019D4 0E01           06068         MOVLW 1
0019D6 0102           06069         MOVLB 2
  00000002            06070 RAM_BANK = 2
0019D8 5D4C           06071         SUBWF SD_EXTENDED_RETURN_ROOT_DIR,W
0019DA 0100           06072         MOVLB 0
  00000000            06073 RAM_BANK = 0
0019DC A4D8           06074         BTFSS STATUS,2,0
                      06075         GO@TO BC@LL166
  000019E2            06076 F4_000958 EQU $ ; IN [V4.0 RFID 2ND GENERATION_LIB.PBP] SD_EXTENDED_RETURN = 1
0019E2 0E01           06077         MOVLW 1
0019E4 0102           06078         MOVLB 2
  00000002            06079 RAM_BANK = 2
0019E6 6F4B           06080         MOVWF SD_EXTENDED_RETURN
  000019E8            06081 F4_000959 EQU $ ; IN [V4.0 RFID 2ND GENERATION_LIB.PBP] RETURN
0019E8 0100           06082         MOVLB 0
  00000000            06083 RAM_BANK = 0
0019EA 0012           06084         RETURN 0
  000019EC            06085 F4_000960 EQU $ ; IN [V4.0 RFID 2ND GENERATION_LIB.PBP] ENDIF
0019EC                06086 BC@LL166
  000019EC            06087 F4_000961 EQU $ ; IN [V4.0 RFID 2ND GENERATION_LIB.PBP] SD_WRITE_SEC_NUM = SD_ROOT_DIR + SD_ROOT_DIR_SEC
0019EC 0102           06088         MOVLB 2
  00000002            06089 RAM_BANK = 2
0019EE 5185           06090         MOVF SD_ROOT_DIR_SEC,W
0019F0 256F           06091         ADDWF SD_ROOT_DIR,W
0019F2 6FBE           06092         MOVWF SD_WRITE_SEC_NUM
0019F4 5186           06093         MOVF SD_ROOT_DIR_SECH,W
0019F6 2170           06094         ADDWFC SD_ROOT_DIRH,W
0019F8 6FBF           06095         MOVWF SD_WRITE_SEC_NUMH
0019FA 5187           06096         MOVF SD_ROOT_DIR_SECHH,W
0019FC 2171           06097         ADDWFC SD_ROOT_DIRHH,W
0019FE 6FC0           06098         MOVWF SD_WRITE_SEC_NUMHH
001A00 5188           06099         MOVF SD_ROOT_DIR_SECHHH,W
001A02 2172           06100         ADDWFC SD_ROOT_DIRHHH,W
001A04 6FC1           06101         MOVWF SD_WRITE_SEC_NUMHHH
  00001A06            06102 F4_000962 EQU $ ; IN [V4.0 RFID 2ND GENERATION_LIB.PBP] SD_SECTOR_NUM = SD_WRITE_SEC_NUM
001A06 C2C1 F037      06103         MOVFF SD_WRITE_SEC_NUMHHH,SD_SECTOR_NUMHHH
001A0A C2C0 F036      06104         MOVFF SD_WRITE_SEC_NUMHH,SD_SECTOR_NUMHH
001A0E C2BF F035      06105         MOVFF SD_WRITE_SEC_NUMH,SD_SECTOR_NUMH
001A12 C2BE F034      06106         MOVFF SD_WRITE_SEC_NUM,SD_SECTOR_NUM
  00001A16            06107 F4_000963 EQU $ ; IN [V4.0 RFID 2ND GENERATION_LIB.PBP] SD_RW_OPTION = 1
001A16 0E01           06108         MOVLW 1
001A18 6F4A           06109         MOVWF SD_RW_OPTION
  00001A1A            06110 F4_000964 EQU $ ; IN [V4.0 RFID 2ND GENERATION_LIB.PBP] GOSUB SD_SECTOR_SUB
001A1A 0100           06111         MOVLB 0
  00000000            06112 RAM_BANK = 0
                      06113         F@CALL SD_SECTOR_SUB
  00001A20            06114 F4_000966 EQU $ ; IN [V4.0 RFID 2ND GENERATION_LIB.PBP] FOR SD_ROOT_DIR_FILE_POS = $00 TO $1F
001A20 0102           06115         MOVLB 2
  00000002            06116 RAM_BANK = 2
001A22 6B50           06117         CLRF SD_ROOT_DIR_FILE_POS
001A24                06118 FR@LB168
001A24 0100           06119         MOVLB 0
  00000000            06120 RAM_BANK = 0
001A26 0E20           06121         MOVLW 32
001A28 0102           06122         MOVLB 2
  00000002            06123 RAM_BANK = 2
001A2A 5D50           06124         SUBWF SD_ROOT_DIR_FILE_POS,W
001A2C 0100           06125         MOVLB 0
  00000000            06126 RAM_BANK = 0
001A2E B0D8           06127         BTFSC STATUS,0,0
                      06128         GO@TO NX@LB169
  00001A34            06129 F4_000967 EQU $ ; IN [V4.0 RFID 2ND GENERATION_LIB.PBP] SD_WRITE_BUFFER_POS = SD_ROOT_DIR_POS + SD_ROOT_DIR_FILE_POS
001A34 0102           06130         MOVLB 2
  00000002            06131 RAM_BANK = 2
001A36 5150           06132         MOVF SD_ROOT_DIR_FILE_POS,W
001A38 2589           06133         ADDWF SD_ROOT_DIR_POS,W
001A3A 6FC2           06134         MOVWF SD_WRITE_BUFFER_POS
001A3C 0E00           06135         MOVLW 0
001A3E 218A           06136         ADDWFC SD_ROOT_DIR_POSH,W
001A40 6FC3           06137         MOVWF SD_WRITE_BUFFER_POSH
  00001A42            06138 F4_000968 EQU $ ; IN [V4.0 RFID 2ND GENERATION_LIB.PBP] SD_DATA_IO = 0
001A42 6B4D           06139         CLRF SD_DATA_IO
  00001A44            06140 F4_000969 EQU $ ; IN [V4.0 RFID 2ND GENERATION_LIB.PBP] GOSUB SD_INSERT_BYTE_INTO_BUFFER
001A44 0100           06141         MOVLB 0
  00000000            06142 RAM_BANK = 0
                      06143         F@CALL SD_INSERT_BYTE_INTO_BUFFER
  00001A4A            06144 F4_000970 EQU $ ; IN [V4.0 RFID 2ND GENERATION_LIB.PBP] NEXT SD_ROOT_DIR_FILE_POS
001A4A 0102           06145         MOVLB 2
  00000002            06146 RAM_BANK = 2
001A4C 2B50           06147         INCF SD_ROOT_DIR_FILE_POS,F
001A4E 0100           06148         MOVLB 0
  00000000            06149 RAM_BANK = 0
001A50 A4D8           06150         BTFSS STATUS,2,0
                      06151         GO@TO FR@LB168
001A54                06152 NX@LB169
  00001A54            06153 F4_000971 EQU $ ; IN [V4.0 RFID 2ND GENERATION_LIB.PBP] GOSUB SD_MODIFY_FILE_NAME
                      06154         F@CALL SD_MODIFY_FILE_NAME
  00001A58            06155 F4_000972 EQU $ ; IN [V4.0 RFID 2ND GENERATION_LIB.PBP] FOR SD_ROOT_DIR_FILE_POS = $00 TO $07
001A58 0102           06156         MOVLB 2
  00000002            06157 RAM_BANK = 2
001A5A 6B50           06158         CLRF SD_ROOT_DIR_FILE_POS
001A5C                06159 FR@LB170
001A5C 0100           06160         MOVLB 0
  00000000            06161 RAM_BANK = 0
001A5E 0E08           06162         MOVLW 8
001A60 0102           06163         MOVLB 2
  00000002            06164 RAM_BANK = 2
001A62 5D50           06165         SUBWF SD_ROOT_DIR_FILE_POS,W
001A64 0100           06166         MOVLB 0
  00000000            06167 RAM_BANK = 0
001A66 B0D8           06168         BTFSC STATUS,0,0
                      06169         GO@TO NX@LB171
  00001A6C            06170 F4_000973 EQU $ ; IN [V4.0 RFID 2ND GENERATION_LIB.PBP] SD_WRITE_BUFFER_POS = SD_ROOT_DIR_POS + SD_ROOT_DIR_FILE_POS
001A6C 0102           06171         MOVLB 2
  00000002            06172 RAM_BANK = 2
001A6E 5150           06173         MOVF SD_ROOT_DIR_FILE_POS,W
001A70 2589           06174         ADDWF SD_ROOT_DIR_POS,W
001A72 6FC2           06175         MOVWF SD_WRITE_BUFFER_POS
001A74 0E00           06176         MOVLW 0
001A76 218A           06177         ADDWFC SD_ROOT_DIR_POSH,W
001A78 6FC3           06178         MOVWF SD_WRITE_BUFFER_POSH
  00001A7A            06179 F4_000974 EQU $ ; IN [V4.0 RFID 2ND GENERATION_LIB.PBP] SD_DATA_IO = SD_FILE_NAME[SD_ROOT_DIR_FILE_POS]
001A7A EE02 F091      06180         LFSR 0,SD_FILE_NAME
001A7E 5150           06181         MOVF SD_ROOT_DIR_FILE_POS,W
001A80 50EB           06182         MOVF PLUSW0,W,0
001A82 6F4D           06183         MOVWF SD_DATA_IO
  00001A84            06184 F4_000975 EQU $ ; IN [V4.0 RFID 2ND GENERATION_LIB.PBP] GOSUB SD_INSERT_BYTE_INTO_BUFFER
001A84 0100           06185         MOVLB 0
  00000000            06186 RAM_BANK = 0
                      06187         F@CALL SD_INSERT_BYTE_INTO_BUFFER
  00001A8A            06188 F4_000976 EQU $ ; IN [V4.0 RFID 2ND GENERATION_LIB.PBP] NEXT SD_ROOT_DIR_FILE_POS
001A8A 0102           06189         MOVLB 2
  00000002            06190 RAM_BANK = 2
001A8C 2B50           06191         INCF SD_ROOT_DIR_FILE_POS,F
001A8E 0100           06192         MOVLB 0
  00000000            06193 RAM_BANK = 0
001A90 A4D8           06194         BTFSS STATUS,2,0
                      06195         GO@TO FR@LB170
001A94                06196 NX@LB171
  00001A94            06197 F4_000977 EQU $ ; IN [V4.0 RFID 2ND GENERATION_LIB.PBP] FOR SD_ROOT_DIR_FILE_POS = $08 TO $0A
001A94 0E08           06198         MOVLW 8
001A96 0102           06199         MOVLB 2
  00000002            06200 RAM_BANK = 2
001A98 6F50           06201         MOVWF SD_ROOT_DIR_FILE_POS
001A9A                06202 FR@LB172
001A9A 0100           06203         MOVLB 0
  00000000            06204 RAM_BANK = 0
001A9C 0E0B           06205         MOVLW 11
001A9E 0102           06206         MOVLB 2
  00000002            06207 RAM_BANK = 2
001AA0 5D50           06208         SUBWF SD_ROOT_DIR_FILE_POS,W
001AA2 0100           06209         MOVLB 0
  00000000            06210 RAM_BANK = 0
001AA4 B0D8           06211         BTFSC STATUS,0,0
                      06212         GO@TO NX@LB173
  00001AAA            06213 F4_000978 EQU $ ; IN [V4.0 RFID 2ND GENERATION_LIB.PBP] SD_WRITE_BUFFER_POS = SD_ROOT_DIR_POS + SD_ROOT_DIR_FILE_POS
001AAA 0102           06214         MOVLB 2
  00000002            06215 RAM_BANK = 2
001AAC 5150           06216         MOVF SD_ROOT_DIR_FILE_POS,W
001AAE 2589           06217         ADDWF SD_ROOT_DIR_POS,W
001AB0 6FC2           06218         MOVWF SD_WRITE_BUFFER_POS
001AB2 0E00           06219         MOVLW 0
001AB4 218A           06220         ADDWFC SD_ROOT_DIR_POSH,W
001AB6 6FC3           06221         MOVWF SD_WRITE_BUFFER_POSH
  00001AB8            06222 F4_000979 EQU $ ; IN [V4.0 RFID 2ND GENERATION_LIB.PBP] SD_DATA_IO = SD_FILE_EXT[SD_ROOT_DIR_FILE_POS - $08]
001AB8 0E08           06223         MOVLW 8
001ABA 5D50           06224         SUBWF SD_ROOT_DIR_FILE_POS,W
001ABC EE02 F09A      06225         LFSR 0,SD_FILE_EXT
001AC0 50EB           06226         MOVF PLUSW0,W,0
001AC2 6F4D           06227         MOVWF SD_DATA_IO
  00001AC4            06228 F4_000980 EQU $ ; IN [V4.0 RFID 2ND GENERATION_LIB.PBP] GOSUB SD_INSERT_BYTE_INTO_BUFFER
001AC4 0100           06229         MOVLB 0
  00000000            06230 RAM_BANK = 0
                      06231         F@CALL SD_INSERT_BYTE_INTO_BUFFER
  00001ACA            06232 F4_000981 EQU $ ; IN [V4.0 RFID 2ND GENERATION_LIB.PBP] NEXT SD_ROOT_DIR_FILE_POS
001ACA 0102           06233         MOVLB 2
  00000002            06234 RAM_BANK = 2
001ACC 2B50           06235         INCF SD_ROOT_DIR_FILE_POS,F
001ACE 0100           06236         MOVLB 0
  00000000            06237 RAM_BANK = 0
001AD0 A4D8           06238         BTFSS STATUS,2,0
                      06239         GO@TO FR@LB172
001AD4                06240 NX@LB173
  00001AD4            06241 F4_000982 EQU $ ; IN [V4.0 RFID 2ND GENERATION_LIB.PBP] SD_WRITE_BUFFER_POS = SD_ROOT_DIR_POS + $0B
001AD4 0E0B           06242         MOVLW 11
001AD6 0102           06243         MOVLB 2
  00000002            06244 RAM_BANK = 2
001AD8 2589           06245         ADDWF SD_ROOT_DIR_POS,W
001ADA 6FC2           06246         MOVWF SD_WRITE_BUFFER_POS
001ADC 0E00           06247         MOVLW 0
001ADE 218A           06248         ADDWFC SD_ROOT_DIR_POSH,W
001AE0 6FC3           06249         MOVWF SD_WRITE_BUFFER_POSH
  00001AE2            06250 F4_000983 EQU $ ; IN [V4.0 RFID 2ND GENERATION_LIB.PBP] SD_DATA_IO = %00100000
001AE2 0E20           06251         MOVLW 32
001AE4 6F4D           06252         MOVWF SD_DATA_IO
  00001AE6            06253 F4_000984 EQU $ ; IN [V4.0 RFID 2ND GENERATION_LIB.PBP] GOSUB SD_INSERT_BYTE_INTO_BUFFER
001AE6 0100           06254         MOVLB 0
  00000000            06255 RAM_BANK = 0
                      06256         F@CALL SD_INSERT_BYTE_INTO_BUFFER
  00001AEC            06257 F4_000985 EQU $ ; IN [V4.0 RFID 2ND GENERATION_LIB.PBP] SD_WRITE_BUFFER_POS = SD_ROOT_DIR_POS + $0D
001AEC 0E0D           06258         MOVLW 13
001AEE 0102           06259         MOVLB 2
  00000002            06260 RAM_BANK = 2
001AF0 2589           06261         ADDWF SD_ROOT_DIR_POS,W
001AF2 6FC2           06262         MOVWF SD_WRITE_BUFFER_POS
001AF4 0E00           06263         MOVLW 0
001AF6 218A           06264         ADDWFC SD_ROOT_DIR_POSH,W
001AF8 6FC3           06265         MOVWF SD_WRITE_BUFFER_POSH
  00001AFA            06266 F4_000986 EQU $ ; IN [V4.0 RFID 2ND GENERATION_LIB.PBP] GOSUB SD_SET_FILE_TIME_CREATE
001AFA 0100           06267         MOVLB 0
  00000000            06268 RAM_BANK = 0
                      06269         F@CALL SD_SET_FILE_TIME_CREATE
  00001B00            06270 F4_000987 EQU $ ; IN [V4.0 RFID 2ND GENERATION_LIB.PBP] SD_WRITE_BUFFER_POS = SD_ROOT_DIR_POS + $1A
001B00 0E1A           06271         MOVLW 26
001B02 0102           06272         MOVLB 2
  00000002            06273 RAM_BANK = 2
001B04 2589           06274         ADDWF SD_ROOT_DIR_POS,W
001B06 6FC2           06275         MOVWF SD_WRITE_BUFFER_POS
001B08 0E00           06276         MOVLW 0
001B0A 218A           06277         ADDWFC SD_ROOT_DIR_POSH,W
001B0C 6FC3           06278         MOVWF SD_WRITE_BUFFER_POSH
  00001B0E            06279 F4_000988 EQU $ ; IN [V4.0 RFID 2ND GENERATION_LIB.PBP] SD_DATA_IO = SD_CLUSTER_NUM.BYTE0
001B0E C2C5 F24D      06280         MOVFF SD_CLUSTER_NUM,SD_DATA_IO
  00001B12            06281 F4_000989 EQU $ ; IN [V4.0 RFID 2ND GENERATION_LIB.PBP] GOSUB SD_INSERT_BYTE_INTO_BUFFER
001B12 0100           06282         MOVLB 0
  00000000            06283 RAM_BANK = 0
                      06284         F@CALL SD_INSERT_BYTE_INTO_BUFFER
  00001B18            06285 F4_000990 EQU $ ; IN [V4.0 RFID 2ND GENERATION_LIB.PBP] INC SD_WRITE_BUFFER_POS
001B18 0102           06286         MOVLB 2
  00000002            06287 RAM_BANK = 2
001B1A 4BC2           06288         INFSNZ SD_WRITE_BUFFER_POS,F
001B1C 2BC3           06289         INCF SD_WRITE_BUFFER_POSH,F
  00001B1E            06290 F4_000991 EQU $ ; IN [V4.0 RFID 2ND GENERATION_LIB.PBP] SD_DATA_IO = SD_CLUSTER_NUM.BYTE1
001B1E C2C6 F24D      06291         MOVFF SD_CLUSTER_NUMH,SD_DATA_IO
  00001B22            06292 F4_000992 EQU $ ; IN [V4.0 RFID 2ND GENERATION_LIB.PBP] GOSUB SD_INSERT_BYTE_INTO_BUFFER
001B22 0100           06293         MOVLB 0
  00000000            06294 RAM_BANK = 0
                      06295         F@CALL SD_INSERT_BYTE_INTO_BUFFER
  00001B28            06296 F4_000993 EQU $ ; IN [V4.0 RFID 2ND GENERATION_LIB.PBP] GOSUB SD_WRITE_SECTOR
                      06297         F@CALL SD_WRITE_SECTOR
  00001B2C            06298 F4_000994 EQU $ ; IN [V4.0 RFID 2ND GENERATION_LIB.PBP] SD_DATA_SEC = (SD_CLUSTER_NUM - 2) * SD_SECS_PER_CLUSTER
001B2C 0EFE           06299         MOVLW 254
001B2E 0102           06300         MOVLB 2
  00000002            06301 RAM_BANK = 2
001B30 25C5           06302         ADDWF SD_CLUSTER_NUM,W
001B32 6E23           06303         MOVWF PP7,0
001B34 0EFF           06304         MOVLW 255
001B36 21C6           06305         ADDWFC SD_CLUSTER_NUMH,W
001B38 6E24           06306         MOVWF PP7H,0
001B3A 0EFF           06307         MOVLW 255
001B3C 6A25           06308         CLRF PP7HH,0
001B3E 2225           06309         ADDWFC PP7HH,F,0
001B40 6A26           06310         CLRF PP7HHH,0
001B42 2226           06311         ADDWFC PP7HHH,F,0
001B44 C026 F014      06312         MOVFF PP7HHH,PP0HHH
001B48 C025 F013      06313         MOVFF PP7HH,PP0HH
001B4C C024 F012      06314         MOVFF PP7H,PP0H
001B50 C023 F011      06315         MOVFF PP7,PP0
001B54 6A1C           06316         CLRF PP2HHH,0
001B56 6A1B           06317         CLRF PP2HH,0
001B58 6A1A           06318         CLRF PP2H,0
001B5A C255 F019      06319         MOVFF SD_SECS_PER_CLUSTER,PP2
                      06320         F@CALL AL@MUL
001B62 C014 F28E      06321         MOVFF PP0HHH,SD_DATA_SECHHH
001B66 C013 F28D      06322         MOVFF PP0HH,SD_DATA_SECHH
001B6A C012 F28C      06323         MOVFF PP0H,SD_DATA_SECH
001B6E C011 F28B      06324         MOVFF PP0,SD_DATA_SEC
  00001B72            06325 F4_000995 EQU $ ; IN [V4.0 RFID 2ND GENERATION_LIB.PBP] SD_DATA_SEC = SD_DATA_SEC + SD_DATA_AREA
001B72 5173           06326         MOVF SD_DATA_AREA,W
001B74 278B           06327         ADDWF SD_DATA_SEC,F
001B76 5174           06328         MOVF SD_DATA_AREAH,W
001B78 238C           06329         ADDWFC SD_DATA_SECH,F
001B7A 5175           06330         MOVF SD_DATA_AREAHH,W
001B7C 238D           06331         ADDWFC SD_DATA_SECHH,F
001B7E 5176           06332         MOVF SD_DATA_AREAHHH,W
001B80 238E           06333         ADDWFC SD_DATA_SECHHH,F
  00001B82            06334 F4_000996 EQU $ ; IN [V4.0 RFID 2ND GENERATION_LIB.PBP] SD_SEC_IN_CLUSTER = 1
001B82 0E01           06335         MOVLW 1
001B84 6FCB           06336         MOVWF SD_SEC_IN_CLUSTER
  00001B86            06337 F4_000997 EQU $ ; IN [V4.0 RFID 2ND GENERATION_LIB.PBP] SD_SECTOR_NUM = SD_DATA_SEC
001B86 C28E F037      06338         MOVFF SD_DATA_SECHHH,SD_SECTOR_NUMHHH
001B8A C28D F036      06339         MOVFF SD_DATA_SECHH,SD_SECTOR_NUMHH
001B8E C28C F035      06340         MOVFF SD_DATA_SECH,SD_SECTOR_NUMH
001B92 C28B F034      06341         MOVFF SD_DATA_SEC,SD_SECTOR_NUM
  00001B96            06342 F4_000998 EQU $ ; IN [V4.0 RFID 2ND GENERATION_LIB.PBP] SD_RW_OPTION = 0
001B96 6B4A           06343         CLRF SD_RW_OPTION
  00001B98            06344 F4_000999 EQU $ ; IN [V4.0 RFID 2ND GENERATION_LIB.PBP] GOSUB SD_SECTOR_SUB
001B98 0100           06345         MOVLB 0
  00000000            06346 RAM_BANK = 0
                      06347         F@CALL SD_SECTOR_SUB
  00001B9E            06348 F4_001001 EQU $ ; IN [V4.0 RFID 2ND GENERATION_LIB.PBP] SD_DATA_BUFFER_POS = 0
001B9E 0102           06349         MOVLB 2
  00000002            06350 RAM_BANK = 2
001BA0 6B90           06351         CLRF SD_DATA_BUFFER_POSH
001BA2 6B8F           06352         CLRF SD_DATA_BUFFER_POS
  00001BA4            06353 F4_001002 EQU $ ; IN [V4.0 RFID 2ND GENERATION_LIB.PBP] SD_FILE_SIZE = 0
001BA4 6BCF           06354         CLRF SD_FILE_SIZEHHH
001BA6 6BCE           06355         CLRF SD_FILE_SIZEHH
001BA8 6BCD           06356         CLRF SD_FILE_SIZEH
001BAA 6BCC           06357         CLRF SD_FILE_SIZE
  00001BAC            06358 F4_001003 EQU $ ; IN [V4.0 RFID 2ND GENERATION_LIB.PBP] SD_RW_PTR = 0
001BAC 6BE4           06359         CLRF SD_BYTES_READHHH
001BAE 6BE3           06360         CLRF SD_BYTES_READHH
001BB0 6BE2           06361         CLRF SD_BYTES_READH
001BB2 6BE1           06362         CLRF SD_BYTES_READ
  00001BB4            06363 F4_001004 EQU $ ; IN [V4.0 RFID 2ND GENERATION_LIB.PBP] SD_EOF = 1
001BB4 81E5           06364         BSF _B#VR1,0
  00001BB6            06365 F4_001005 EQU $ ; IN [V4.0 RFID 2ND GENERATION_LIB.PBP] SD_RETURN_F = 1
001BB6 0E01           06366         MOVLW 1
001BB8 6FF8           06367         MOVWF SD_RETURN_F
  00001BBA            06368 F4_001006 EQU $ ; IN [V4.0 RFID 2ND GENERATION_LIB.PBP] RETURN
001BBA 0100           06369         MOVLB 0
  00000000            06370 RAM_BANK = 0
001BBC 0012           06371         RETURN 0
  00001BBE            06372 F4_001012 EQU $ ; IN [V4.0 RFID 2ND GENERATION_LIB.PBP] SD_APPEND_FILE MACRO
                      06373 SD_APPEND_FILE  MACRO .,.,.,.,.,.,.,.,.,.
                      06374  LOCAL PRM_EMPTY=0,BIT=1,BYTE=2,WORD=3,DWORD=4,FLOAT=5,LABEL=6,CHAR=7,STRING=9
                      06375  LOCAL NUM8=8,NUM16=16,NUM32=32,SNUM8=10,SNUM16=15,SNUM32=31,FNUM=33,BYTE_ARRAY_PTR=22,WORD_ARRAY_PTR=23
                      06376         F@CALL SD_APPEND_FILE_SUB
                      06377  IF (RETURN_TYPE !=BYTE)
                      06378         ERROR "(IN ASM) SD_APPEND_FILE - RETURN VARIABLE SHOULD BE A BYTE VARIABLE"
                      06379  ELSE
                      06380  IF (RETURN_TYPE == BYTE)
                      06381         BYTE_BYTE SD_EXTENDED_RETURN, RETURN_VAR
                      06382  ENDIF
                      06383  ENDIF
                      06384         ENDM
001BBE                06385 SD_APPEND_FILE_SUB
  00001BBE            06386 F4_001030 EQU $ ; IN [V4.0 RFID 2ND GENERATION_LIB.PBP] GOSUB SD_CHECK_FOR_FILE_SUB
                      06387         F@CALL SD_CHECK_FOR_FILE_SUB
  00001BC2            06388 F4_001031 EQU $ ; IN [V4.0 RFID 2ND GENERATION_LIB.PBP] IF SD_EXTENDED_RETURN_ROOT_DIR <> 0 THEN
001BC2 0102           06389         MOVLB 2
  00000002            06390 RAM_BANK = 2
001BC4 534C           06391         MOVF SD_EXTENDED_RETURN_ROOT_DIR,F
001BC6 0100           06392         MOVLB 0
  00000000            06393 RAM_BANK = 0
001BC8 B4D8           06394         BTFSC STATUS,2,0
                      06395         GO@TO BC@LL174
  00001BCE            06396 F4_001032 EQU $ ; IN [V4.0 RFID 2ND GENERATION_LIB.PBP] SD_EXTENDED_RETURN = 1
001BCE 0E01           06397         MOVLW 1
001BD0 0102           06398         MOVLB 2
  00000002            06399 RAM_BANK = 2
001BD2 6F4B           06400         MOVWF SD_EXTENDED_RETURN
  00001BD4            06401 F4_001033 EQU $ ; IN [V4.0 RFID 2ND GENERATION_LIB.PBP] RETURN
001BD4 0100           06402         MOVLB 0
  00000000            06403 RAM_BANK = 0
001BD6 0012           06404         RETURN 0
  00001BD8            06405 F4_001034 EQU $ ; IN [V4.0 RFID 2ND GENERATION_LIB.PBP] ENDIF
001BD8                06406 BC@LL174
  00001BD8            06407 F4_001035 EQU $ ; IN [V4.0 RFID 2ND GENERATION_LIB.PBP] SD_CLUSTER_NUM.BYTE0 = SD_ROOT_DIR_FILE[$1A]
001BD8 0102           06408         MOVLB 2
  00000002            06409 RAM_BANK = 2
001BDA 51B8           06410         MOVF SD_ROOT_DIR_FILE#26,W
001BDC 6FC5           06411         MOVWF SD_CLUSTER_NUM
  00001BDE            06412 F4_001036 EQU $ ; IN [V4.0 RFID 2ND GENERATION_LIB.PBP] SD_CLUSTER_NUM.BYTE1 = SD_ROOT_DIR_FILE[$1B]
001BDE 51B9           06413         MOVF SD_ROOT_DIR_FILE#27,W
001BE0 6FC6           06414         MOVWF SD_CLUSTER_NUMH
  00001BE2            06415 F4_001037 EQU $ ; IN [V4.0 RFID 2ND GENERATION_LIB.PBP] SD_FILE_SIZE.BYTE0 = SD_ROOT_DIR_FILE[$1C]
001BE2 51BA           06416         MOVF SD_ROOT_DIR_FILE#28,W
001BE4 6FCC           06417         MOVWF SD_FILE_SIZE
  00001BE6            06418 F4_001038 EQU $ ; IN [V4.0 RFID 2ND GENERATION_LIB.PBP] SD_FILE_SIZE.BYTE1 = SD_ROOT_DIR_FILE[$1D]
001BE6 51BB           06419         MOVF SD_ROOT_DIR_FILE#29,W
001BE8 6FCD           06420         MOVWF SD_FILE_SIZEH
  00001BEA            06421 F4_001039 EQU $ ; IN [V4.0 RFID 2ND GENERATION_LIB.PBP] SD_FILE_SIZE.BYTE2 = SD_ROOT_DIR_FILE[$1E]
001BEA 51BC           06422         MOVF SD_ROOT_DIR_FILE#30,W
001BEC 6FCE           06423         MOVWF SD_FILE_SIZEHH
  00001BEE            06424 F4_001040 EQU $ ; IN [V4.0 RFID 2ND GENERATION_LIB.PBP] SD_FILE_SIZE.BYTE3 = SD_ROOT_DIR_FILE[$1F]
001BEE 51BD           06425         MOVF SD_ROOT_DIR_FILE#31,W
001BF0 6FCF           06426         MOVWF SD_FILE_SIZEHHH
  00001BF2            06427 F4_001041 EQU $ ; IN [V4.0 RFID 2ND GENERATION_LIB.PBP] SD_FILE_SIZE_LEFT = SD_FILE_SIZE
001BF2 C2CF F2ED      06428         MOVFF SD_FILE_SIZEHHH,SD_FILE_SIZE_LEFTHHH
001BF6 C2CE F2EC      06429         MOVFF SD_FILE_SIZEHH,SD_FILE_SIZE_LEFTHH
001BFA C2CD F2EB      06430         MOVFF SD_FILE_SIZEH,SD_FILE_SIZE_LEFTH
001BFE C2CC F2EA      06431         MOVFF SD_FILE_SIZE,SD_FILE_SIZE_LEFT
  00001C02            06432 F4_001042 EQU $ ; IN [V4.0 RFID 2ND GENERATION_LIB.PBP] SD_SECTOR_NUM = 0
001C02 6A37           06433         CLRF SD_SECTOR_NUMHHH,0
001C04 6A36           06434         CLRF SD_SECTOR_NUMHH,0
001C06 6A35           06435         CLRF SD_SECTOR_NUMH,0
001C08 6A34           06436         CLRF SD_SECTOR_NUM,0
  00001C0A            06437 F4_001043 EQU $ ; IN [V4.0 RFID 2ND GENERATION_LIB.PBP] WHILE SD_FILE_SIZE_LEFT > (SD_BYTES_PER_SEC * SD_SECS_PER_CLUSTER)
001C0A                06438 BC@LL175
001C0A 0100           06439         MOVLB 0
  00000000            06440 RAM_BANK = 0
001C0C 6A14           06441         CLRF PP0HHH,0
001C0E 6A13           06442         CLRF PP0HH,0
001C10 C260 F012      06443         MOVFF SD_BYTES_PER_SECH,PP0H
001C14 C25F F011      06444         MOVFF SD_BYTES_PER_SEC,PP0
001C18 6A1C           06445         CLRF PP2HHH,0
001C1A 6A1B           06446         CLRF PP2HH,0
001C1C 6A1A           06447         CLRF PP2H,0
001C1E C255 F019      06448         MOVFF SD_SECS_PER_CLUSTER,PP2
                      06449         F@CALL AL@MUL
001C26 C014 F00B      06450         MOVFF PP0HHH,PBP#VAR0HHH
001C2A C013 F00A      06451         MOVFF PP0HH,PBP#VAR0HH
001C2E C012 F009      06452         MOVFF PP0H,PBP#VAR0H
001C32 C011 F008      06453         MOVFF PP0,PBP#VAR0
001C36 0102           06454         MOVLB 2
  00000002            06455 RAM_BANK = 2
001C38 51EA           06456         MOVF SD_FILE_SIZE_LEFT,W
001C3A 5C08           06457         SUBWF PBP#VAR0,W,0
001C3C 51EB           06458         MOVF SD_FILE_SIZE_LEFTH,W
001C3E 5809           06459         SUBWFB PBP#VAR0H,W,0
001C40 51EC           06460         MOVF SD_FILE_SIZE_LEFTHH,W
001C42 580A           06461         SUBWFB PBP#VAR0HH,W,0
001C44 51ED           06462         MOVF SD_FILE_SIZE_LEFTHHH,W
001C46 580B           06463         SUBWFB PBP#VAR0HHH,W,0
001C48 51ED           06464         MOVF SD_FILE_SIZE_LEFTHHH,W
001C4A 180B           06465         XORWF PBP#VAR0HHH,W,0
001C4C B0D8           06466         BTFSC STATUS,0,0
001C4E 0A80           06467         XORLW 128
001C50 0100           06468         MOVLB 0
  00000000            06469 RAM_BANK = 0
001C52 B8D8           06470         BTFSC STATUS,4,0
                      06471         GO@TO BC@LL176
  00001C58            06472 F4_001044 EQU $ ; IN [V4.0 RFID 2ND GENERATION_LIB.PBP] SD_FAT_SEC = SD_CLUSTER_NUM / $100
001C58 6A14           06473         CLRF PP0HHH,0
001C5A 6A13           06474         CLRF PP0HH,0
001C5C C2C6 F012      06475         MOVFF SD_CLUSTER_NUMH,PP0H
001C60 C2C5 F011      06476         MOVFF SD_CLUSTER_NUM,PP0
001C64 6A1C           06477         CLRF PP2HHH,0
001C66 6A1B           06478         CLRF PP2HH,0
001C68 0E01           06479         MOVLW 1
001C6A 6E1A           06480         MOVWF PP2H,0
001C6C 6A19           06481         CLRF PP2,0
                      06482         F@CALL L@DIV
001C72 C014 F27C      06483         MOVFF PP0HHH,SD_FAT_SECHHH
001C76 C013 F27B      06484         MOVFF PP0HH,SD_FAT_SECHH
001C7A C012 F27A      06485         MOVFF PP0H,SD_FAT_SECH
001C7E C011 F279      06486         MOVFF PP0,SD_FAT_SEC
  00001C82            06487 F4_001045 EQU $ ; IN [V4.0 RFID 2ND GENERATION_LIB.PBP] SD_FAT_BUFFER_POS = SD_CLUSTER_NUM // $100
001C82 C2C5 F27D      06488         MOVFF SD_CLUSTER_NUM,SD_FAT_BUFFER_POS
001C86 0102           06489         MOVLB 2
  00000002            06490 RAM_BANK = 2
001C88 6B7E           06491         CLRF SD_FAT_BUFFER_POSH
  00001C8A            06492 F4_001046 EQU $ ; IN [V4.0 RFID 2ND GENERATION_LIB.PBP] SD_FAT_BUFFER_POS = SD_FAT_BUFFER_POS * 2
001C8A 90D8           06493         BCF STATUS,0,0
001C8C 377D           06494         RLCF SD_FAT_BUFFER_POS,F
001C8E 377E           06495         RLCF SD_FAT_BUFFER_POSH,F
  00001C90            06496 F4_001047 EQU $ ; IN [V4.0 RFID 2ND GENERATION_LIB.PBP] IF SD_SECTOR_NUM <> (SD_FAT1 + SD_FAT_SEC) THEN
001C90 5179           06497         MOVF SD_FAT_SEC,W
001C92 2567           06498         ADDWF SD_FAT1,W
001C94 6E08           06499         MOVWF PBP#VAR0,0
001C96 517A           06500         MOVF SD_FAT_SECH,W
001C98 2168           06501         ADDWFC SD_FAT1H,W
001C9A 6E09           06502         MOVWF PBP#VAR0H,0
001C9C 517B           06503         MOVF SD_FAT_SECHH,W
001C9E 2169           06504         ADDWFC SD_FAT1HH,W
001CA0 6E0A           06505         MOVWF PBP#VAR0HH,0
001CA2 517C           06506         MOVF SD_FAT_SECHHH,W
001CA4 216A           06507         ADDWFC SD_FAT1HHH,W
001CA6 6E0B           06508         MOVWF PBP#VAR0HHH,0
001CA8 5008           06509         MOVF PBP#VAR0,W,0
001CAA 5C34           06510         SUBWF SD_SECTOR_NUM,W,0
001CAC E10C           06511         BNZ CP@LB24
001CAE 5009           06512         MOVF PBP#VAR0H,W,0
001CB0 5C35           06513         SUBWF SD_SECTOR_NUMH,W,0
001CB2 E109           06514         BNZ CP@LB24
001CB4 500A           06515         MOVF PBP#VAR0HH,W,0
001CB6 5C36           06516         SUBWF SD_SECTOR_NUMHH,W,0
001CB8 E106           06517         BNZ CP@LB24
001CBA 500B           06518         MOVF PBP#VAR0HHH,W,0
001CBC 5C37           06519         SUBWF SD_SECTOR_NUMHHH,W,0
001CBE 0100           06520         MOVLB 0
  00000000            06521 RAM_BANK = 0
001CC0 B4D8           06522         BTFSC STATUS,2,0
                      06523         GO@TO BC@LL178
001CC6                06524 CP@LB24
  00001CC6            06525 F4_001048 EQU $ ; IN [V4.0 RFID 2ND GENERATION_LIB.PBP] SD_SECTOR_NUM = SD_FAT1 + SD_FAT_SEC
001CC6 0102           06526         MOVLB 2
  00000002            06527 RAM_BANK = 2
001CC8 5179           06528         MOVF SD_FAT_SEC,W
001CCA 2567           06529         ADDWF SD_FAT1,W
001CCC 6E34           06530         MOVWF SD_SECTOR_NUM,0
001CCE 517A           06531         MOVF SD_FAT_SECH,W
001CD0 2168           06532         ADDWFC SD_FAT1H,W
001CD2 6E35           06533         MOVWF SD_SECTOR_NUMH,0
001CD4 517B           06534         MOVF SD_FAT_SECHH,W
001CD6 2169           06535         ADDWFC SD_FAT1HH,W
001CD8 6E36           06536         MOVWF SD_SECTOR_NUMHH,0
001CDA 517C           06537         MOVF SD_FAT_SECHHH,W
001CDC 216A           06538         ADDWFC SD_FAT1HHH,W
001CDE 6E37           06539         MOVWF SD_SECTOR_NUMHHH,0
  00001CE0            06540 F4_001049 EQU $ ; IN [V4.0 RFID 2ND GENERATION_LIB.PBP] SD_RW_OPTION = 1
001CE0 0E01           06541         MOVLW 1
001CE2 6F4A           06542         MOVWF SD_RW_OPTION
  00001CE4            06543 F4_001050 EQU $ ; IN [V4.0 RFID 2ND GENERATION_LIB.PBP] GOSUB SD_SECTOR_SUB
001CE4 0100           06544         MOVLB 0
  00000000            06545 RAM_BANK = 0
                      06546         F@CALL SD_SECTOR_SUB
  00001CEA            06547 F4_001052 EQU $ ; IN [V4.0 RFID 2ND GENERATION_LIB.PBP] ENDIF
001CEA                06548 BC@LL178
  00001CEA            06549 F4_001053 EQU $ ; IN [V4.0 RFID 2ND GENERATION_LIB.PBP] SD_BUFFER_POS = SD_FAT_BUFFER_POS
001CEA C27E F24F      06550         MOVFF SD_FAT_BUFFER_POSH,SD_BUFFER_POSH
001CEE C27D F24E      06551         MOVFF SD_FAT_BUFFER_POS,SD_BUFFER_POS
  00001CF2            06552 F4_001054 EQU $ ; IN [V4.0 RFID 2ND GENERATION_LIB.PBP] GOSUB SD_READ_FAT_ENTRY
                      06553         F@CALL SD_READ_FAT_ENTRY
  00001CF6            06554 F4_001055 EQU $ ; IN [V4.0 RFID 2ND GENERATION_LIB.PBP] SD_CLUSTER_NUM = SD_FAT_ENTRY
001CF6 C278 F2C6      06555         MOVFF SD_FAT_ENTRYH,SD_CLUSTER_NUMH
001CFA C277 F2C5      06556         MOVFF SD_FAT_ENTRY,SD_CLUSTER_NUM
  00001CFE            06557 F4_001056 EQU $ ; IN [V4.0 RFID 2ND GENERATION_LIB.PBP] SD_FILE_SIZE_LEFT = SD_FILE_SIZE_LEFT - (SD_BYTES_PER_SEC * SD_SECS_PER_CLUSTER)
001CFE 6A14           06558         CLRF PP0HHH,0
001D00 6A13           06559         CLRF PP0HH,0
001D02 C260 F012      06560         MOVFF SD_BYTES_PER_SECH,PP0H
001D06 C25F F011      06561         MOVFF SD_BYTES_PER_SEC,PP0
001D0A 6A1C           06562         CLRF PP2HHH,0
001D0C 6A1B           06563         CLRF PP2HH,0
001D0E 6A1A           06564         CLRF PP2H,0
001D10 C255 F019      06565         MOVFF SD_SECS_PER_CLUSTER,PP2
                      06566         F@CALL AL@MUL
001D18 C014 F026      06567         MOVFF PP0HHH,PP7HHH
001D1C C013 F025      06568         MOVFF PP0HH,PP7HH
001D20 C012 F024      06569         MOVFF PP0H,PP7H
001D24 C011 F023      06570         MOVFF PP0,PP7
001D28 5023           06571         MOVF PP7,W,0
001D2A 0102           06572         MOVLB 2
  00000002            06573 RAM_BANK = 2
001D2C 5FEA           06574         SUBWF SD_FILE_SIZE_LEFT,F
001D2E 5024           06575         MOVF PP7H,W,0
001D30 5BEB           06576         SUBWFB SD_FILE_SIZE_LEFTH,F
001D32 5025           06577         MOVF PP7HH,W,0
001D34 5BEC           06578         SUBWFB SD_FILE_SIZE_LEFTHH,F
001D36 5026           06579         MOVF PP7HHH,W,0
001D38 5BED           06580         SUBWFB SD_FILE_SIZE_LEFTHHH,F
  00001D3A            06581 F4_001057 EQU $ ; IN [V4.0 RFID 2ND GENERATION_LIB.PBP] WEND
001D3A 0100           06582         MOVLB 0
  00000000            06583 RAM_BANK = 0
                      06584         F@JUMP BC@LL175
001D3E                06585 BC@LL176
  00001D3E            06586 F4_001058 EQU $ ; IN [V4.0 RFID 2ND GENERATION_LIB.PBP] SD_FAT_SEC = SD_CLUSTER_NUM / $100
001D3E 6A14           06587         CLRF PP0HHH,0
001D40 6A13           06588         CLRF PP0HH,0
001D42 C2C6 F012      06589         MOVFF SD_CLUSTER_NUMH,PP0H
001D46 C2C5 F011      06590         MOVFF SD_CLUSTER_NUM,PP0
001D4A 6A1C           06591         CLRF PP2HHH,0
001D4C 6A1B           06592         CLRF PP2HH,0
001D4E 0E01           06593         MOVLW 1
001D50 6E1A           06594         MOVWF PP2H,0
001D52 6A19           06595         CLRF PP2,0
                      06596         F@CALL L@DIV
001D58 C014 F27C      06597         MOVFF PP0HHH,SD_FAT_SECHHH
001D5C C013 F27B      06598         MOVFF PP0HH,SD_FAT_SECHH
001D60 C012 F27A      06599         MOVFF PP0H,SD_FAT_SECH
001D64 C011 F279      06600         MOVFF PP0,SD_FAT_SEC
  00001D68            06601 F4_001059 EQU $ ; IN [V4.0 RFID 2ND GENERATION_LIB.PBP] SD_FAT_BUFFER_POS = SD_CLUSTER_NUM // $100
001D68 C2C5 F27D      06602         MOVFF SD_CLUSTER_NUM,SD_FAT_BUFFER_POS
001D6C 0102           06603         MOVLB 2
  00000002            06604 RAM_BANK = 2
001D6E 6B7E           06605         CLRF SD_FAT_BUFFER_POSH
  00001D70            06606 F4_001060 EQU $ ; IN [V4.0 RFID 2ND GENERATION_LIB.PBP] SD_FAT_BUFFER_POS = SD_FAT_BUFFER_POS * 2
001D70 90D8           06607         BCF STATUS,0,0
001D72 377D           06608         RLCF SD_FAT_BUFFER_POS,F
001D74 377E           06609         RLCF SD_FAT_BUFFER_POSH,F
  00001D76            06610 F4_001061 EQU $ ; IN [V4.0 RFID 2ND GENERATION_LIB.PBP] IF SD_FILE_SIZE_LEFT = 0 THEN
001D76 51ED           06611         MOVF SD_FILE_SIZE_LEFTHHH,W
001D78 11EC           06612         IORWF SD_FILE_SIZE_LEFTHH,W
001D7A 11EB           06613         IORWF SD_FILE_SIZE_LEFTH,W
001D7C 11EA           06614         IORWF SD_FILE_SIZE_LEFT,W
001D7E 0100           06615         MOVLB 0
  00000000            06616 RAM_BANK = 0
001D80 A4D8           06617         BTFSS STATUS,2,0
                      06618         GO@TO BC@LL180
  00001D86            06619 F4_001062 EQU $ ; IN [V4.0 RFID 2ND GENERATION_LIB.PBP] SD_SEC_IN_CLUSTER = 0
001D86 0102           06620         MOVLB 2
  00000002            06621 RAM_BANK = 2
001D88 6BCB           06622         CLRF SD_SEC_IN_CLUSTER
001D8A 0100           06623         MOVLB 0
  00000000            06624 RAM_BANK = 0
                      06625         F@JUMP BC@LL181
001D90                06626 BC@LL180
  00001D90            06627 F4_001063 EQU $ ; IN [V4.0 RFID 2ND GENERATION_LIB.PBP] ELSE
  00001D90            06628 F4_001064 EQU $ ; IN [V4.0 RFID 2ND GENERATION_LIB.PBP] SD_SEC_IN_CLUSTER = (SD_FILE_SIZE_LEFT - 1) / SD_BYTES_PER_SEC
001D90 0102           06629         MOVLB 2
  00000002            06630 RAM_BANK = 2
001D92 05EA           06631         DECF SD_FILE_SIZE_LEFT,W
001D94 6E23           06632         MOVWF PP7,0
001D96 0E00           06633         MOVLW 0
001D98 59EB           06634         SUBWFB SD_FILE_SIZE_LEFTH,W
001D9A 6E24           06635         MOVWF PP7H,0
001D9C 0E00           06636         MOVLW 0
001D9E 59EC           06637         SUBWFB SD_FILE_SIZE_LEFTHH,W
001DA0 6E25           06638         MOVWF PP7HH,0
001DA2 0E00           06639         MOVLW 0
001DA4 59ED           06640         SUBWFB SD_FILE_SIZE_LEFTHHH,W
001DA6 6E26           06641         MOVWF PP7HHH,0
001DA8 C026 F014      06642         MOVFF PP7HHH,PP0HHH
001DAC C025 F013      06643         MOVFF PP7HH,PP0HH
001DB0 C024 F012      06644         MOVFF PP7H,PP0H
001DB4 C023 F011      06645         MOVFF PP7,PP0
001DB8 6A1C           06646         CLRF PP2HHH,0
001DBA 6A1B           06647         CLRF PP2HH,0
001DBC C260 F01A      06648         MOVFF SD_BYTES_PER_SECH,PP2H
001DC0 C25F F019      06649         MOVFF SD_BYTES_PER_SEC,PP2
                      06650         F@CALL L@DIV
001DC8 C011 F2CB      06651         MOVFF PP0,SD_SEC_IN_CLUSTER
  00001DCC            06652 F4_001065 EQU $ ; IN [V4.0 RFID 2ND GENERATION_LIB.PBP] ENDIF
001DCC                06653 BC@LL181
001DCC 0100           06654         MOVLB 0
  00000000            06655 RAM_BANK = 0
  00001DCE            06656 F4_001066 EQU $ ; IN [V4.0 RFID 2ND GENERATION_LIB.PBP] SD_DATA_SEC = (SD_CLUSTER_NUM - 2) * SD_SECS_PER_CLUSTER
001DCE 0EFE           06657         MOVLW 254
001DD0 0102           06658         MOVLB 2
  00000002            06659 RAM_BANK = 2
001DD2 25C5           06660         ADDWF SD_CLUSTER_NUM,W
001DD4 6E23           06661         MOVWF PP7,0
001DD6 0EFF           06662         MOVLW 255
001DD8 21C6           06663         ADDWFC SD_CLUSTER_NUMH,W
001DDA 6E24           06664         MOVWF PP7H,0
001DDC 0EFF           06665         MOVLW 255
001DDE 6A25           06666         CLRF PP7HH,0
001DE0 2225           06667         ADDWFC PP7HH,F,0
001DE2 6A26           06668         CLRF PP7HHH,0
001DE4 2226           06669         ADDWFC PP7HHH,F,0
001DE6 C026 F014      06670         MOVFF PP7HHH,PP0HHH
001DEA C025 F013      06671         MOVFF PP7HH,PP0HH
001DEE C024 F012      06672         MOVFF PP7H,PP0H
001DF2 C023 F011      06673         MOVFF PP7,PP0
001DF6 6A1C           06674         CLRF PP2HHH,0
001DF8 6A1B           06675         CLRF PP2HH,0
001DFA 6A1A           06676         CLRF PP2H,0
001DFC C255 F019      06677         MOVFF SD_SECS_PER_CLUSTER,PP2
                      06678         F@CALL AL@MUL
001E04 C014 F28E      06679         MOVFF PP0HHH,SD_DATA_SECHHH
001E08 C013 F28D      06680         MOVFF PP0HH,SD_DATA_SECHH
001E0C C012 F28C      06681         MOVFF PP0H,SD_DATA_SECH
001E10 C011 F28B      06682         MOVFF PP0,SD_DATA_SEC
  00001E14            06683 F4_001067 EQU $ ; IN [V4.0 RFID 2ND GENERATION_LIB.PBP] SD_DATA_SEC = SD_DATA_SEC + SD_SEC_IN_CLUSTER
001E14 51CB           06684         MOVF SD_SEC_IN_CLUSTER,W
001E16 258B           06685         ADDWF SD_DATA_SEC,W
001E18 6F8B           06686         MOVWF SD_DATA_SEC
001E1A 0E00           06687         MOVLW 0
001E1C 218C           06688         ADDWFC SD_DATA_SECH,W
001E1E 6F8C           06689         MOVWF SD_DATA_SECH
001E20 0E00           06690         MOVLW 0
001E22 218D           06691         ADDWFC SD_DATA_SECHH,W
001E24 6F8D           06692         MOVWF SD_DATA_SECHH
001E26 0E00           06693         MOVLW 0
001E28 218E           06694         ADDWFC SD_DATA_SECHHH,W
001E2A 6F8E           06695         MOVWF SD_DATA_SECHHH
  00001E2C            06696 F4_001068 EQU $ ; IN [V4.0 RFID 2ND GENERATION_LIB.PBP] SD_DATA_SEC = SD_DATA_SEC + SD_DATA_AREA
001E2C 5173           06697         MOVF SD_DATA_AREA,W
001E2E 278B           06698         ADDWF SD_DATA_SEC,F
001E30 5174           06699         MOVF SD_DATA_AREAH,W
001E32 238C           06700         ADDWFC SD_DATA_SECH,F
001E34 5175           06701         MOVF SD_DATA_AREAHH,W
001E36 238D           06702         ADDWFC SD_DATA_SECHH,F
001E38 5176           06703         MOVF SD_DATA_AREAHHH,W
001E3A 238E           06704         ADDWFC SD_DATA_SECHHH,F
  00001E3C            06705 F4_001069 EQU $ ; IN [V4.0 RFID 2ND GENERATION_LIB.PBP] SD_SEC_IN_CLUSTER = SD_SEC_IN_CLUSTER + 1
001E3C 2BCB           06706         INCF SD_SEC_IN_CLUSTER,F
  00001E3E            06707 F4_001070 EQU $ ; IN [V4.0 RFID 2ND GENERATION_LIB.PBP] SD_SECTOR_NUM = SD_DATA_SEC
001E3E C28E F037      06708         MOVFF SD_DATA_SECHHH,SD_SECTOR_NUMHHH
001E42 C28D F036      06709         MOVFF SD_DATA_SECHH,SD_SECTOR_NUMHH
001E46 C28C F035      06710         MOVFF SD_DATA_SECH,SD_SECTOR_NUMH
001E4A C28B F034      06711         MOVFF SD_DATA_SEC,SD_SECTOR_NUM
  00001E4E            06712 F4_001071 EQU $ ; IN [V4.0 RFID 2ND GENERATION_LIB.PBP] SD_RW_OPTION = 1
001E4E 0E01           06713         MOVLW 1
001E50 6F4A           06714         MOVWF SD_RW_OPTION
  00001E52            06715 F4_001072 EQU $ ; IN [V4.0 RFID 2ND GENERATION_LIB.PBP] GOSUB SD_SECTOR_SUB
001E52 0100           06716         MOVLB 0
  00000000            06717 RAM_BANK = 0
                      06718         F@CALL SD_SECTOR_SUB
  00001E58            06719 F4_001074 EQU $ ; IN [V4.0 RFID 2ND GENERATION_LIB.PBP] IF SD_RETURN = 1 THEN
001E58 0E01           06720         MOVLW 1
001E5A 5C40           06721         SUBWF SD_RETURN,W,0
001E5C A4D8           06722         BTFSS STATUS,2,0
                      06723         GO@TO BC@LL183
  00001E62            06724 F4_001075 EQU $ ; IN [V4.0 RFID 2ND GENERATION_LIB.PBP] SD_EXTENDED_RETURN = 1
001E62 0E01           06725         MOVLW 1
001E64 0102           06726         MOVLB 2
  00000002            06727 RAM_BANK = 2
001E66 6F4B           06728         MOVWF SD_EXTENDED_RETURN
  00001E68            06729 F4_001076 EQU $ ; IN [V4.0 RFID 2ND GENERATION_LIB.PBP] RETURN
001E68 0100           06730         MOVLB 0
  00000000            06731 RAM_BANK = 0
001E6A 0012           06732         RETURN 0
  00001E6C            06733 F4_001077 EQU $ ; IN [V4.0 RFID 2ND GENERATION_LIB.PBP] ENDIF
001E6C                06734 BC@LL183
  00001E6C            06735 F4_001078 EQU $ ; IN [V4.0 RFID 2ND GENERATION_LIB.PBP] SD_DATA_BUFFER_POS = SD_FILE_SIZE_LEFT // SD_BYTES_PER_SEC
001E6C C2ED F014      06736         MOVFF SD_FILE_SIZE_LEFTHHH,PP0HHH
001E70 C2EC F013      06737         MOVFF SD_FILE_SIZE_LEFTHH,PP0HH
001E74 C2EB F012      06738         MOVFF SD_FILE_SIZE_LEFTH,PP0H
001E78 C2EA F011      06739         MOVFF SD_FILE_SIZE_LEFT,PP0
001E7C 6A1C           06740         CLRF PP2HHH,0
001E7E 6A1B           06741         CLRF PP2HH,0
001E80 C260 F01A      06742         MOVFF SD_BYTES_PER_SECH,PP2H
001E84 C25F F019      06743         MOVFF SD_BYTES_PER_SEC,PP2
                      06744         F@CALL L@MOD
001E8C C01A F290      06745         MOVFF PP2H,SD_DATA_BUFFER_POSH
001E90 C019 F28F      06746         MOVFF PP2,SD_DATA_BUFFER_POS
  00001E94            06747 F4_001079 EQU $ ; IN [V4.0 RFID 2ND GENERATION_LIB.PBP] SD_BUFFER_IDX = SD_DATA_BUFFER_POS
001E94 C290 F248      06748         MOVFF SD_DATA_BUFFER_POSH,SD_BUFFER_IDXH
001E98 C28F F247      06749         MOVFF SD_DATA_BUFFER_POS,SD_BUFFER_IDX
  00001E9C            06750 F4_001080 EQU $ ; IN [V4.0 RFID 2ND GENERATION_LIB.PBP] IF SD_DATA_BUFFER_POS = 0 THEN
001E9C 0102           06751         MOVLB 2
  00000002            06752 RAM_BANK = 2
001E9E 5190           06753         MOVF SD_DATA_BUFFER_POSH,W
001EA0 118F           06754         IORWF SD_DATA_BUFFER_POS,W
001EA2 0100           06755         MOVLB 0
  00000000            06756 RAM_BANK = 0
001EA4 A4D8           06757         BTFSS STATUS,2,0
                      06758         GO@TO BC@LL185
  00001EAA            06759 F4_001081 EQU $ ; IN [V4.0 RFID 2ND GENERATION_LIB.PBP] IF SD_FILE_SIZE_LEFT > 0 THEN
001EAA 96D8           06760         BCF STATUS,3,0
001EAC 0102           06761         MOVLB 2
  00000002            06762 RAM_BANK = 2
001EAE BFED           06763         BTFSC SD_FILE_SIZE_LEFTHHH,7
001EB0 86D8           06764         BSF STATUS,3,0
001EB2 0100           06765         MOVLB 0
  00000000            06766 RAM_BANK = 0
                      06767         G@OTO BC@LL187
001EBA 0102           06768         MOVLB 2
  00000002            06769 RAM_BANK = 2
001EBC 51EA           06770         MOVF SD_FILE_SIZE_LEFT,W
001EBE 11EB           06771         IORWF SD_FILE_SIZE_LEFTH,W
001EC0 11EC           06772         IORWF SD_FILE_SIZE_LEFTHH,W
001EC2 11ED           06773         IORWF SD_FILE_SIZE_LEFTHHH,W
001EC4 0100           06774         MOVLB 0
  00000000            06775 RAM_BANK = 0
001EC6 B4D8           06776         BTFSC STATUS,2,0
                      06777         GO@TO BC@LL187
  00001ECC            06778 F4_001082 EQU $ ; IN [V4.0 RFID 2ND GENERATION_LIB.PBP] SD_DATA_BUFFER_POS = SD_BYTES_PER_SEC
001ECC C260 F290      06779         MOVFF SD_BYTES_PER_SECH,SD_DATA_BUFFER_POSH
001ED0 C25F F28F      06780         MOVFF SD_BYTES_PER_SEC,SD_DATA_BUFFER_POS
  00001ED4            06781 F4_001083 EQU $ ; IN [V4.0 RFID 2ND GENERATION_LIB.PBP] INC SD_SECTOR_NUM
001ED4 2A34           06782         INCF SD_SECTOR_NUM,F,0
001ED6 0E00           06783         MOVLW 0
001ED8 2235           06784         ADDWFC SD_SECTOR_NUMH,F,0
001EDA 2236           06785         ADDWFC SD_SECTOR_NUMHH,F,0
001EDC 2237           06786         ADDWFC SD_SECTOR_NUMHHH,F,0
  00001EDE            06787 F4_001084 EQU $ ; IN [V4.0 RFID 2ND GENERATION_LIB.PBP] ENDIF
001EDE                06788 BC@LL187
  00001EDE            06789 F4_001085 EQU $ ; IN [V4.0 RFID 2ND GENERATION_LIB.PBP] ENDIF
001EDE                06790 BC@LL185
  00001EDE            06791 F4_001086 EQU $ ; IN [V4.0 RFID 2ND GENERATION_LIB.PBP] SD_CLUSTER_SEQ_IDX = 1
001EDE 0102           06792         MOVLB 2
  00000002            06793 RAM_BANK = 2
001EE0 6BDB           06794         CLRF SD_CLUSTER_SEQ_IDXH
001EE2 0E01           06795         MOVLW 1
001EE4 6FDA           06796         MOVWF SD_CLUSTER_SEQ_IDX
  00001EE6            06797 F4_001087 EQU $ ; IN [V4.0 RFID 2ND GENERATION_LIB.PBP] SD_CLUSTER_SEQ_NUM = 1
001EE6 6BD9           06798         CLRF SD_CLUSTER_SEQ_NUMH
001EE8 6FD8           06799         MOVWF SD_CLUSTER_SEQ_NUM
  00001EEA            06800 F4_001088 EQU $ ; IN [V4.0 RFID 2ND GENERATION_LIB.PBP] SD_EOF = 1
001EEA 81E5           06801         BSF _B#VR1,0
  00001EEC            06802 F4_001089 EQU $ ; IN [V4.0 RFID 2ND GENERATION_LIB.PBP] SD_RW_PTR = SD_FILE_SIZE
001EEC C2CF F2E4      06803         MOVFF SD_FILE_SIZEHHH,SD_BYTES_READHHH
001EF0 C2CE F2E3      06804         MOVFF SD_FILE_SIZEHH,SD_BYTES_READHH
001EF4 C2CD F2E2      06805         MOVFF SD_FILE_SIZEH,SD_BYTES_READH
001EF8 C2CC F2E1      06806         MOVFF SD_FILE_SIZE,SD_BYTES_READ
  00001EFC            06807 F4_001090 EQU $ ; IN [V4.0 RFID 2ND GENERATION_LIB.PBP] SD_EXTENDED_RETURN = 0
001EFC 6B4B           06808         CLRF SD_EXTENDED_RETURN
  00001EFE            06809 F4_001091 EQU $ ; IN [V4.0 RFID 2ND GENERATION_LIB.PBP] RETURN
001EFE 0100           06810         MOVLB 0
  00000000            06811 RAM_BANK = 0
001F00 0012           06812         RETURN 0
  00001F02            06813 F4_001097 EQU $ ; IN [V4.0 RFID 2ND GENERATION_LIB.PBP] SD_DELETE_FILE MACRO
                      06814 SD_DELETE_FILE  MACRO .,.,.,.,.,.,.,.,.,.
                      06815  LOCAL PRM_EMPTY=0,BIT=1,BYTE=2,WORD=3,DWORD=4,FLOAT=5,LABEL=6,CHAR=7,STRING=9
                      06816  LOCAL NUM8=8,NUM16=16,NUM32=32,SNUM8=10,SNUM16=15,SNUM32=31,FNUM=33,BYTE_ARRAY_PTR=22,WORD_ARRAY_PTR=23
                      06817         F@CALL SD_DELETE_FILE_SUB
                      06818         ENDM
001F02                06819 SD_DELETE_FILE_SUB
  00001F02            06820 F4_001108 EQU $ ; IN [V4.0 RFID 2ND GENERATION_LIB.PBP] GOSUB SD_CHECK_FOR_FILE_SUB
                      06821         F@CALL SD_CHECK_FOR_FILE_SUB
  00001F06            06822 F4_001109 EQU $ ; IN [V4.0 RFID 2ND GENERATION_LIB.PBP] IF SD_EXTENDED_RETURN_ROOT_DIR <> 0 THEN
001F06 0102           06823         MOVLB 2
  00000002            06824 RAM_BANK = 2
001F08 534C           06825         MOVF SD_EXTENDED_RETURN_ROOT_DIR,F
001F0A 0100           06826         MOVLB 0
  00000000            06827 RAM_BANK = 0
001F0C B4D8           06828         BTFSC STATUS,2,0
                      06829         GO@TO BC@LL189
  00001F12            06830 F4_001110 EQU $ ; IN [V4.0 RFID 2ND GENERATION_LIB.PBP] SD_EXTENDED_RETURN = 1
001F12 0E01           06831         MOVLW 1
001F14 0102           06832         MOVLB 2
  00000002            06833 RAM_BANK = 2
001F16 6F4B           06834         MOVWF SD_EXTENDED_RETURN
  00001F18            06835 F4_001111 EQU $ ; IN [V4.0 RFID 2ND GENERATION_LIB.PBP] RETURN
001F18 0100           06836         MOVLB 0
  00000000            06837 RAM_BANK = 0
001F1A 0012           06838         RETURN 0
  00001F1C            06839 F4_001112 EQU $ ; IN [V4.0 RFID 2ND GENERATION_LIB.PBP] ENDIF
001F1C                06840 BC@LL189
  00001F1C            06841 F4_001113 EQU $ ; IN [V4.0 RFID 2ND GENERATION_LIB.PBP] SD_CLUSTER_NUM.BYTE0 = SD_ROOT_DIR_FILE[$1A]
001F1C 0102           06842         MOVLB 2
  00000002            06843 RAM_BANK = 2
001F1E 51B8           06844         MOVF SD_ROOT_DIR_FILE#26,W
001F20 6FC5           06845         MOVWF SD_CLUSTER_NUM
  00001F22            06846 F4_001114 EQU $ ; IN [V4.0 RFID 2ND GENERATION_LIB.PBP] SD_CLUSTER_NUM.BYTE1 = SD_ROOT_DIR_FILE[$1B]
001F22 51B9           06847         MOVF SD_ROOT_DIR_FILE#27,W
001F24 6FC6           06848         MOVWF SD_CLUSTER_NUMH
  00001F26            06849 F4_001115 EQU $ ; IN [V4.0 RFID 2ND GENERATION_LIB.PBP] SD_WRITE_BUFFER_POS = SD_ROOT_DIR_POS
001F26 C28A F2C3      06850         MOVFF SD_ROOT_DIR_POSH,SD_WRITE_BUFFER_POSH
001F2A C289 F2C2      06851         MOVFF SD_ROOT_DIR_POS,SD_WRITE_BUFFER_POS
  00001F2E            06852 F4_001116 EQU $ ; IN [V4.0 RFID 2ND GENERATION_LIB.PBP] SD_DATA_IO = $E5
001F2E 0EE5           06853         MOVLW 229
001F30 6F4D           06854         MOVWF SD_DATA_IO
  00001F32            06855 F4_001117 EQU $ ; IN [V4.0 RFID 2ND GENERATION_LIB.PBP] GOSUB SD_INSERT_BYTE_INTO_BUFFER
001F32 0100           06856         MOVLB 0
  00000000            06857 RAM_BANK = 0
                      06858         F@CALL SD_INSERT_BYTE_INTO_BUFFER
  00001F38            06859 F4_001118 EQU $ ; IN [V4.0 RFID 2ND GENERATION_LIB.PBP] GOSUB SD_WRITE_SECTOR
                      06860         F@CALL SD_WRITE_SECTOR
  00001F3C            06861 F4_001119 EQU $ ; IN [V4.0 RFID 2ND GENERATION_LIB.PBP] SD_RW_OPTION = 0
001F3C 0102           06862         MOVLB 2
  00000002            06863 RAM_BANK = 2
001F3E 6B4A           06864         CLRF SD_RW_OPTION
  00001F40            06865 F4_001120 EQU $ ; IN [V4.0 RFID 2ND GENERATION_LIB.PBP] REPEAT
001F40                06866 BC@LL190
001F40 0100           06867         MOVLB 0
  00000000            06868 RAM_BANK = 0
  00001F42            06869 F4_001121 EQU $ ; IN [V4.0 RFID 2ND GENERATION_LIB.PBP] SD_FAT_SEC = SD_CLUSTER_NUM / $100
001F42 6A14           06870         CLRF PP0HHH,0
001F44 6A13           06871         CLRF PP0HH,0
001F46 C2C6 F012      06872         MOVFF SD_CLUSTER_NUMH,PP0H
001F4A C2C5 F011      06873         MOVFF SD_CLUSTER_NUM,PP0
001F4E 6A1C           06874         CLRF PP2HHH,0
001F50 6A1B           06875         CLRF PP2HH,0
001F52 0E01           06876         MOVLW 1
001F54 6E1A           06877         MOVWF PP2H,0
001F56 6A19           06878         CLRF PP2,0
                      06879         F@CALL L@DIV
001F5C C014 F27C      06880         MOVFF PP0HHH,SD_FAT_SECHHH
001F60 C013 F27B      06881         MOVFF PP0HH,SD_FAT_SECHH
001F64 C012 F27A      06882         MOVFF PP0H,SD_FAT_SECH
001F68 C011 F279      06883         MOVFF PP0,SD_FAT_SEC
  00001F6C            06884 F4_001122 EQU $ ; IN [V4.0 RFID 2ND GENERATION_LIB.PBP] SD_FAT_BUFFER_POS = SD_CLUSTER_NUM // $100
001F6C C2C5 F27D      06885         MOVFF SD_CLUSTER_NUM,SD_FAT_BUFFER_POS
001F70 0102           06886         MOVLB 2
  00000002            06887 RAM_BANK = 2
001F72 6B7E           06888         CLRF SD_FAT_BUFFER_POSH
  00001F74            06889 F4_001123 EQU $ ; IN [V4.0 RFID 2ND GENERATION_LIB.PBP] SD_FAT_BUFFER_POS = SD_FAT_BUFFER_POS * 2
001F74 90D8           06890         BCF STATUS,0,0
001F76 377D           06891         RLCF SD_FAT_BUFFER_POS,F
001F78 377E           06892         RLCF SD_FAT_BUFFER_POSH,F
  00001F7A            06893 F4_001124 EQU $ ; IN [V4.0 RFID 2ND GENERATION_LIB.PBP] IF SD_SECTOR_NUM <> (SD_FAT1 + SD_FAT_SEC) THEN
001F7A 5179           06894         MOVF SD_FAT_SEC,W
001F7C 2567           06895         ADDWF SD_FAT1,W
001F7E 6E08           06896         MOVWF PBP#VAR0,0
001F80 517A           06897         MOVF SD_FAT_SECH,W
001F82 2168           06898         ADDWFC SD_FAT1H,W
001F84 6E09           06899         MOVWF PBP#VAR0H,0
001F86 517B           06900         MOVF SD_FAT_SECHH,W
001F88 2169           06901         ADDWFC SD_FAT1HH,W
001F8A 6E0A           06902         MOVWF PBP#VAR0HH,0
001F8C 517C           06903         MOVF SD_FAT_SECHHH,W
001F8E 216A           06904         ADDWFC SD_FAT1HHH,W
001F90 6E0B           06905         MOVWF PBP#VAR0HHH,0
001F92 5008           06906         MOVF PBP#VAR0,W,0
001F94 5C34           06907         SUBWF SD_SECTOR_NUM,W,0
001F96 E10C           06908         BNZ CP@LB26
001F98 5009           06909         MOVF PBP#VAR0H,W,0
001F9A 5C35           06910         SUBWF SD_SECTOR_NUMH,W,0
001F9C E109           06911         BNZ CP@LB26
001F9E 500A           06912         MOVF PBP#VAR0HH,W,0
001FA0 5C36           06913         SUBWF SD_SECTOR_NUMHH,W,0
001FA2 E106           06914         BNZ CP@LB26
001FA4 500B           06915         MOVF PBP#VAR0HHH,W,0
001FA6 5C37           06916         SUBWF SD_SECTOR_NUMHHH,W,0
001FA8 0100           06917         MOVLB 0
  00000000            06918 RAM_BANK = 0
001FAA B4D8           06919         BTFSC STATUS,2,0
                      06920         GO@TO BC@LL193
001FB0                06921 CP@LB26
  00001FB0            06922 F4_001125 EQU $ ; IN [V4.0 RFID 2ND GENERATION_LIB.PBP] IF SD_RW_OPTION > 0 THEN
001FB0 0102           06923         MOVLB 2
  00000002            06924 RAM_BANK = 2
001FB2 534A           06925         MOVF SD_RW_OPTION,F
001FB4 0100           06926         MOVLB 0
  00000000            06927 RAM_BANK = 0
001FB6 B4D8           06928         BTFSC STATUS,2,0
                      06929         GO@TO BC@LL195
  00001FBC            06930 F4_001126 EQU $ ; IN [V4.0 RFID 2ND GENERATION_LIB.PBP] GOSUB SD_WRITE_SECTOR
                      06931         F@CALL SD_WRITE_SECTOR
  00001FC0            06932 F4_001127 EQU $ ; IN [V4.0 RFID 2ND GENERATION_LIB.PBP] SD_SECTOR_NUM = SD_SECTOR_NUM - SD_FAT1 + SD_FAT2
001FC0 0102           06933         MOVLB 2
  00000002            06934 RAM_BANK = 2
001FC2 5167           06935         MOVF SD_FAT1,W
001FC4 5C34           06936         SUBWF SD_SECTOR_NUM,W,0
001FC6 6E23           06937         MOVWF PP7,0
001FC8 5168           06938         MOVF SD_FAT1H,W
001FCA 5835           06939         SUBWFB SD_SECTOR_NUMH,W,0
001FCC 6E24           06940         MOVWF PP7H,0
001FCE 5169           06941         MOVF SD_FAT1HH,W
001FD0 5836           06942         SUBWFB SD_SECTOR_NUMHH,W,0
001FD2 6E25           06943         MOVWF PP7HH,0
001FD4 516A           06944         MOVF SD_FAT1HHH,W
001FD6 5837           06945         SUBWFB SD_SECTOR_NUMHHH,W,0
001FD8 6E26           06946         MOVWF PP7HHH,0
001FDA 516B           06947         MOVF SD_FAT2,W
001FDC 2423           06948         ADDWF PP7,W,0
001FDE 6E34           06949         MOVWF SD_SECTOR_NUM,0
001FE0 516C           06950         MOVF SD_FAT2H,W
001FE2 2024           06951         ADDWFC PP7H,W,0
001FE4 6E35           06952         MOVWF SD_SECTOR_NUMH,0
001FE6 516D           06953         MOVF SD_FAT2HH,W
001FE8 2025           06954         ADDWFC PP7HH,W,0
001FEA 6E36           06955         MOVWF SD_SECTOR_NUMHH,0
001FEC 516E           06956         MOVF SD_FAT2HHH,W
001FEE 2026           06957         ADDWFC PP7HHH,W,0
001FF0 6E37           06958         MOVWF SD_SECTOR_NUMHHH,0
  00001FF2            06959 F4_001128 EQU $ ; IN [V4.0 RFID 2ND GENERATION_LIB.PBP] GOSUB SD_WRITE_SECTOR
001FF2 0100           06960         MOVLB 0
  00000000            06961 RAM_BANK = 0
                      06962         F@CALL SD_WRITE_SECTOR
  00001FF8            06963 F4_001129 EQU $ ; IN [V4.0 RFID 2ND GENERATION_LIB.PBP] ENDIF
001FF8                06964 BC@LL195
  00001FF8            06965 F4_001130 EQU $ ; IN [V4.0 RFID 2ND GENERATION_LIB.PBP] SD_SECTOR_NUM = SD_FAT1 + SD_FAT_SEC
001FF8 0102           06966         MOVLB 2
  00000002            06967 RAM_BANK = 2
001FFA 5179           06968         MOVF SD_FAT_SEC,W
001FFC 2567           06969         ADDWF SD_FAT1,W
001FFE 6E34           06970         MOVWF SD_SECTOR_NUM,0
002000 517A           06971         MOVF SD_FAT_SECH,W
002002 2168           06972         ADDWFC SD_FAT1H,W
002004 6E35           06973         MOVWF SD_SECTOR_NUMH,0
002006 517B           06974         MOVF SD_FAT_SECHH,W
002008 2169           06975         ADDWFC SD_FAT1HH,W
00200A 6E36           06976         MOVWF SD_SECTOR_NUMHH,0
00200C 517C           06977         MOVF SD_FAT_SECHHH,W
00200E 216A           06978         ADDWFC SD_FAT1HHH,W
002010 6E37           06979         MOVWF SD_SECTOR_NUMHHH,0
  00002012            06980 F4_001131 EQU $ ; IN [V4.0 RFID 2ND GENERATION_LIB.PBP] SD_RW_OPTION = 1
002012 0E01           06981         MOVLW 1
002014 6F4A           06982         MOVWF SD_RW_OPTION
  00002016            06983 F4_001132 EQU $ ; IN [V4.0 RFID 2ND GENERATION_LIB.PBP] GOSUB SD_SECTOR_SUB
002016 0100           06984         MOVLB 0
  00000000            06985 RAM_BANK = 0
                      06986         F@CALL SD_SECTOR_SUB
  0000201C            06987 F4_001134 EQU $ ; IN [V4.0 RFID 2ND GENERATION_LIB.PBP] ENDIF
00201C                06988 BC@LL193
  0000201C            06989 F4_001135 EQU $ ; IN [V4.0 RFID 2ND GENERATION_LIB.PBP] SD_BUFFER_POS = SD_FAT_BUFFER_POS
00201C C27E F24F      06990         MOVFF SD_FAT_BUFFER_POSH,SD_BUFFER_POSH
002020 C27D F24E      06991         MOVFF SD_FAT_BUFFER_POS,SD_BUFFER_POS
  00002024            06992 F4_001136 EQU $ ; IN [V4.0 RFID 2ND GENERATION_LIB.PBP] GOSUB SD_READ_FAT_ENTRY
                      06993         F@CALL SD_READ_FAT_ENTRY
  00002028            06994 F4_001137 EQU $ ; IN [V4.0 RFID 2ND GENERATION_LIB.PBP] SD_CLUSTER_NUM = SD_FAT_ENTRY
002028 C278 F2C6      06995         MOVFF SD_FAT_ENTRYH,SD_CLUSTER_NUMH
00202C C277 F2C5      06996         MOVFF SD_FAT_ENTRY,SD_CLUSTER_NUM
  00002030            06997 F4_001138 EQU $ ; IN [V4.0 RFID 2ND GENERATION_LIB.PBP] SD_WRITE_BUFFER_POS = SD_FAT_BUFFER_POS
002030 C27E F2C3      06998         MOVFF SD_FAT_BUFFER_POSH,SD_WRITE_BUFFER_POSH
002034 C27D F2C2      06999         MOVFF SD_FAT_BUFFER_POS,SD_WRITE_BUFFER_POS
  00002038            07000 F4_001139 EQU $ ; IN [V4.0 RFID 2ND GENERATION_LIB.PBP] SD_DATA_IO = $00
002038 0102           07001         MOVLB 2
  00000002            07002 RAM_BANK = 2
00203A 6B4D           07003         CLRF SD_DATA_IO
  0000203C            07004 F4_001140 EQU $ ; IN [V4.0 RFID 2ND GENERATION_LIB.PBP] GOSUB SD_INSERT_BYTE_INTO_BUFFER
00203C 0100           07005         MOVLB 0
  00000000            07006 RAM_BANK = 0
                      07007         F@CALL SD_INSERT_BYTE_INTO_BUFFER
  00002042            07008 F4_001141 EQU $ ; IN [V4.0 RFID 2ND GENERATION_LIB.PBP] SD_WRITE_BUFFER_POS = SD_FAT_BUFFER_POS + 1
002042 0E01           07009         MOVLW 1
002044 0102           07010         MOVLB 2
  00000002            07011 RAM_BANK = 2
002046 257D           07012         ADDWF SD_FAT_BUFFER_POS,W
002048 6FC2           07013         MOVWF SD_WRITE_BUFFER_POS
00204A 0E00           07014         MOVLW 0
00204C 217E           07015         ADDWFC SD_FAT_BUFFER_POSH,W
00204E 6FC3           07016         MOVWF SD_WRITE_BUFFER_POSH
  00002050            07017 F4_001142 EQU $ ; IN [V4.0 RFID 2ND GENERATION_LIB.PBP] GOSUB SD_INSERT_BYTE_INTO_BUFFER
002050 0100           07018         MOVLB 0
  00000000            07019 RAM_BANK = 0
                      07020         F@CALL SD_INSERT_BYTE_INTO_BUFFER
  00002056            07021 F4_001143 EQU $ ; IN [V4.0 RFID 2ND GENERATION_LIB.PBP] UNTIL SD_CLUSTER_NUM = $FFFF
002056 0102           07022         MOVLB 2
  00000002            07023 RAM_BANK = 2
002058 29C5           07024         INCF SD_CLUSTER_NUM,W
00205A E101           07025         BNZ CP@LB27
00205C 29C6           07026         INCF SD_CLUSTER_NUMH,W
00205E                07027 CP@LB27
00205E 0100           07028         MOVLB 0
  00000000            07029 RAM_BANK = 0
002060 A4D8           07030         BTFSS STATUS,2,0
                      07031         GO@TO BC@LL190
002064                07032 BC@LL191
  00002064            07033 F4_001144 EQU $ ; IN [V4.0 RFID 2ND GENERATION_LIB.PBP] GOSUB SD_WRITE_SECTOR
                      07034         F@CALL SD_WRITE_SECTOR
  00002068            07035 F4_001145 EQU $ ; IN [V4.0 RFID 2ND GENERATION_LIB.PBP] SD_SECTOR_NUM = SD_SECTOR_NUM - SD_FAT1 + SD_FAT2
002068 0102           07036         MOVLB 2
  00000002            07037 RAM_BANK = 2
00206A 5167           07038         MOVF SD_FAT1,W
00206C 5C34           07039         SUBWF SD_SECTOR_NUM,W,0
00206E 6E23           07040         MOVWF PP7,0
002070 5168           07041         MOVF SD_FAT1H,W
002072 5835           07042         SUBWFB SD_SECTOR_NUMH,W,0
002074 6E24           07043         MOVWF PP7H,0
002076 5169           07044         MOVF SD_FAT1HH,W
002078 5836           07045         SUBWFB SD_SECTOR_NUMHH,W,0
00207A 6E25           07046         MOVWF PP7HH,0
00207C 516A           07047         MOVF SD_FAT1HHH,W
00207E 5837           07048         SUBWFB SD_SECTOR_NUMHHH,W,0
002080 6E26           07049         MOVWF PP7HHH,0
002082 516B           07050         MOVF SD_FAT2,W
002084 2423           07051         ADDWF PP7,W,0
002086 6E34           07052         MOVWF SD_SECTOR_NUM,0
002088 516C           07053         MOVF SD_FAT2H,W
00208A 2024           07054         ADDWFC PP7H,W,0
00208C 6E35           07055         MOVWF SD_SECTOR_NUMH,0
00208E 516D           07056         MOVF SD_FAT2HH,W
002090 2025           07057         ADDWFC PP7HH,W,0
002092 6E36           07058         MOVWF SD_SECTOR_NUMHH,0
002094 516E           07059         MOVF SD_FAT2HHH,W
002096 2026           07060         ADDWFC PP7HHH,W,0
002098 6E37           07061         MOVWF SD_SECTOR_NUMHHH,0
  0000209A            07062 F4_001146 EQU $ ; IN [V4.0 RFID 2ND GENERATION_LIB.PBP] GOSUB SD_WRITE_SECTOR
00209A 0100           07063         MOVLB 0
  00000000            07064 RAM_BANK = 0
                      07065         F@CALL SD_WRITE_SECTOR
  000020A0            07066 F4_001147 EQU $ ; IN [V4.0 RFID 2ND GENERATION_LIB.PBP] SD_EXTENDED_RETURN = 0
0020A0 0102           07067         MOVLB 2
  00000002            07068 RAM_BANK = 2
0020A2 6B4B           07069         CLRF SD_EXTENDED_RETURN
  000020A4            07070 F4_001148 EQU $ ; IN [V4.0 RFID 2ND GENERATION_LIB.PBP] RETURN
0020A4 0100           07071         MOVLB 0
  00000000            07072 RAM_BANK = 0
0020A6 0012           07073         RETURN 0
  000020A8            07074 F4_001154 EQU $ ; IN [V4.0 RFID 2ND GENERATION_LIB.PBP] SD_INIT_FS_MSSP MACRO P1
                      07075 SD_INIT_FS_MSSP MACRO P1,.,.,.,.,.,.,.,.,.
                      07076  LOCAL PRM_EMPTY=0,BIT=1,BYTE=2,WORD=3,DWORD=4,FLOAT=5,LABEL=6,CHAR=7,STRING=9
                      07077  LOCAL NUM8=8,NUM16=16,NUM32=32,SNUM8=10,SNUM16=15,SNUM32=31,FNUM=33,BYTE_ARRAY_PTR=22,WORD_ARRAY_PTR=23
                      07078  IF (PRM_COUNT > 1)
                      07079         ERROR "(IN ASM) SD_INIT_FS_MSSP - TOO MANY PARAMETERS"
                      07080  ELSE
                      07081  IF (PRM_COUNT == 0)
                      07082         MOVLW 32
                      07083         MOVWF SSPCON1,0
                      07084  ELSE
                      07085  IF (PRM_1 != BYTE) && (PRM_1 != NUM8)
                      07086         ERROR "(IN ASM) SD_INIT_FS_MSSP - SPEED(PARAM1) SHOULD BE A BYTE VARIABLE OR NUMBER"
                      07087  ENDIF
                      07088  IF (PRM_1 == BYTE)
                      07089         BYTE_BYTE P1, SSPCON1
                      07090         BSF SSPCON1,5,0
                      07091  ENDIF
                      07092  IF (PRM_1 == NUM8)
                      07093         NUM_DWORD P1, SSPCON1
                      07094 RAM_BANK = 0
                      07095         BSF SSPCON1,5,0
                      07096  ENDIF
                      07097  ENDIF
                      07098  ENDIF
                      07099         F@CALL SD_INIT_FS_MSSP_SUB
                      07100  IF (SD_INIT_FS_MSSP_RETURN != 1)
                      07101  ELSE
                      07102  IF (RETURN_TYPE != BYTE)
                      07103         ERROR "(IN ASM) SD_INIT_FS_MSSP - RETURN VARIABLE SHOULD BE A BYTE VARIABLE"
                      07104  ENDIF
                      07105  IF (RETURN_TYPE == BYTE)
                      07106         BYTE_BYTE SD_EXTENDED_RETURN, RETURN_VAR
                      07107  ENDIF
                      07108  ENDIF
                      07109         ENDM
0020A8                07110 SD_INIT_FS_MSSP_SUB
  000020A8            07111 F4_001193 EQU $ ; IN [V4.0 RFID 2ND GENERATION_LIB.PBP] SD_EXTENDED_RETURN_INT = SD_INIT_MSSP SSPCON1
  0002                07112 VARIABLE PRM_1=2
  0000                07113  VARIABLE PRM_2=0,PRM_3=0,PRM_4=0,PRM_5=0,PRM_6=0,PRM_7=0,PRM_8=0,PRM_9=0,PRM_10=0
  0001                07114 VARIABLE SD_INIT_MSSP_LST_PRM=1,LST_PRM_TYPE=2,LST_PRM_NAME=SSPCON1
  000A                07115 VARIABLE MAX_PARAMS=10,RETURN_TYPE=2,RETURN_VAR=SD_EXTENDED_RETURN_INT,SD_INIT_MSSP_RETURN=1,PRM_COUNT=1
                      07116         SD_INIT_MSSP SSPCON1,0,0,0,0,0,0,0,0,0
  000A                07117 VARIABLE MAX_PARAMS=10,RETURN_TYPE=2,RETURN_VAR=SD_EXTENDED_RETURN_INT,SD_INIT_MSSP_RETURN=1,PRM_COUNT=1
  0002                07118 VARIABLE PRM_1=2
  0000                07119  VARIABLE PRM_2=0,PRM_3=0,PRM_4=0,PRM_5=0,PRM_6=0,PRM_7=0,PRM_8=0,PRM_9=0,PRM_10=0
  0001                07120 VARIABLE SD_INIT_MSSP_LST_PRM=1,LST_PRM_TYPE=2,LST_PRM_NAME=SSPCON1
  000020B6            07121 F4_001194 EQU $ ; IN [V4.0 RFID 2ND GENERATION_LIB.PBP] IF SD_EXTENDED_RETURN_INT = 1 THEN
0020B6 0E01           07122         MOVLW 1
0020B8 0102           07123         MOVLB 2
  00000002            07124 RAM_BANK = 2
0020BA 5DE9           07125         SUBWF SD_EXTENDED_RETURN_INT,W
0020BC 0100           07126         MOVLB 0
  00000000            07127 RAM_BANK = 0
0020BE A4D8           07128         BTFSS STATUS,2,0
                      07129         GO@TO BC@LL197
  000020C4            07130 F4_001195 EQU $ ; IN [V4.0 RFID 2ND GENERATION_LIB.PBP] SD_EXTENDED_RETURN = 1
0020C4 0E01           07131         MOVLW 1
0020C6 0102           07132         MOVLB 2
  00000002            07133 RAM_BANK = 2
0020C8 6F4B           07134         MOVWF SD_EXTENDED_RETURN
  000020CA            07135 F4_001196 EQU $ ; IN [V4.0 RFID 2ND GENERATION_LIB.PBP] RETURN
0020CA 0100           07136         MOVLB 0
  00000000            07137 RAM_BANK = 0
0020CC 0012           07138         RETURN 0
  000020CE            07139 F4_001197 EQU $ ; IN [V4.0 RFID 2ND GENERATION_LIB.PBP] ENDIF
0020CE                07140 BC@LL197
  000020CE            07141 F4_001198 EQU $ ; IN [V4.0 RFID 2ND GENERATION_LIB.PBP] SD_SECTOR_NUM = $00
0020CE 6A37           07142         CLRF SD_SECTOR_NUMHHH,0
0020D0 6A36           07143         CLRF SD_SECTOR_NUMHH,0
0020D2 6A35           07144         CLRF SD_SECTOR_NUMH,0
0020D4 6A34           07145         CLRF SD_SECTOR_NUM,0
  000020D6            07146 F4_001199 EQU $ ; IN [V4.0 RFID 2ND GENERATION_LIB.PBP] SD_RW_OPTION = 1
0020D6 0E01           07147         MOVLW 1
0020D8 0102           07148         MOVLB 2
  00000002            07149 RAM_BANK = 2
0020DA 6F4A           07150         MOVWF SD_RW_OPTION
  000020DC            07151 F4_001200 EQU $ ; IN [V4.0 RFID 2ND GENERATION_LIB.PBP] GOSUB SD_SECTOR_SUB
0020DC 0100           07152         MOVLB 0
  00000000            07153 RAM_BANK = 0
                      07154         F@CALL SD_SECTOR_SUB
  000020E2            07155 F4_001202 EQU $ ; IN [V4.0 RFID 2ND GENERATION_LIB.PBP] IF SD_BUFFER0[0] = $EB AND SD_BUFFER0[2] = $90 THEN
0020E2 5041           07156         MOVF SD_BUFFER0#0,W,0
0020E4 6E08           07157         MOVWF PBP#VAR0,0
0020E6 0EEB           07158         MOVLW 235
0020E8 5C08           07159         SUBWF PBP#VAR0,W,0
0020EA 0E01           07160         MOVLW 1
0020EC A4D8           07161         BTFSS STATUS,2,0
0020EE 0E00           07162         MOVLW 0
0020F0 6E2D           07163         MOVWF SP#P9,0
0020F2 5043           07164         MOVF SD_BUFFER0#2,W,0
0020F4 6E08           07165         MOVWF PBP#VAR0,0
0020F6 0E90           07166         MOVLW 144
0020F8 5C08           07167         SUBWF PBP#VAR0,W,0
0020FA 0E01           07168         MOVLW 1
0020FC A4D8           07169         BTFSS STATUS,2,0
0020FE 0E00           07170         MOVLW 0
002100 162D           07171         ANDWF SP#P9,F,0
002102 B4D8           07172         BTFSC STATUS,2,0
                      07173         GO@TO BC@LL199
  00002108            07174 F4_001204 EQU $ ; IN [V4.0 RFID 2ND GENERATION_LIB.PBP] SD_BOOT_RECORD = $0000
002108 0102           07175         MOVLB 2
  00000002            07176 RAM_BANK = 2
00210A 6B66           07177         CLRF SD_BOOT_RECORDH
00210C 6B65           07178         CLRF SD_BOOT_RECORD
00210E 0100           07179         MOVLB 0
  00000000            07180 RAM_BANK = 0
                      07181         F@JUMP BC@LL198
  00002114            07182 F4_001205 EQU $ ; IN [V4.0 RFID 2ND GENERATION_LIB.PBP] ELSEIF SD_BUFFER0[0] = $E9 THEN
002114                07183 BC@LL199
002114 5041           07184         MOVF SD_BUFFER0#0,W,0
002116 6E08           07185         MOVWF PBP#VAR0,0
002118 0EE9           07186         MOVLW 233
00211A 5C08           07187         SUBWF PBP#VAR0,W,0
00211C A4D8           07188         BTFSS STATUS,2,0
                      07189         GO@TO BC@LL200
  00002122            07190 F4_001207 EQU $ ; IN [V4.0 RFID 2ND GENERATION_LIB.PBP] SD_BOOT_RECORD = $0000
002122 0102           07191         MOVLB 2
  00000002            07192 RAM_BANK = 2
002124 6B66           07193         CLRF SD_BOOT_RECORDH
002126 6B65           07194         CLRF SD_BOOT_RECORD
002128 0100           07195         MOVLB 0
  00000000            07196 RAM_BANK = 0
                      07197         F@JUMP BC@LL201
00212E                07198 BC@LL200
  0000212E            07199 F4_001208 EQU $ ; IN [V4.0 RFID 2ND GENERATION_LIB.PBP] ELSE
  0000212E            07200 F4_001210 EQU $ ; IN [V4.0 RFID 2ND GENERATION_LIB.PBP] SD_BOOT_RECORD = SD_BUFFER1[$0C6] + 0
00212E 0102           07201         MOVLB 2
  00000002            07202 RAM_BANK = 2
002130 5107           07203         MOVF SD_BUFFER1#198,W
002132 6E0C           07204         MOVWF PBP#VAR1,0
002134 6B66           07205         CLRF SD_BOOT_RECORDH
002136 C00C F265      07206         MOVFF PBP#VAR1,SD_BOOT_RECORD
  0000213A            07207 F4_001211 EQU $ ; IN [V4.0 RFID 2ND GENERATION_LIB.PBP] ENDIF
00213A                07208 BC@LL201
00213A 0100           07209         MOVLB 0
  00000000            07210 RAM_BANK = 0
00213C                07211 BC@LL198
  0000213C            07212 F4_001212 EQU $ ; IN [V4.0 RFID 2ND GENERATION_LIB.PBP] SD_SECTOR_NUM = SD_BOOT_RECORD
00213C 6A37           07213         CLRF SD_SECTOR_NUMHHH,0
00213E 6A36           07214         CLRF SD_SECTOR_NUMHH,0
002140 C266 F035      07215         MOVFF SD_BOOT_RECORDH,SD_SECTOR_NUMH
002144 C265 F034      07216         MOVFF SD_BOOT_RECORD,SD_SECTOR_NUM
  00002148            07217 F4_001213 EQU $ ; IN [V4.0 RFID 2ND GENERATION_LIB.PBP] SD_RW_OPTION = 1
002148 0E01           07218         MOVLW 1
00214A 0102           07219         MOVLB 2
  00000002            07220 RAM_BANK = 2
00214C 6F4A           07221         MOVWF SD_RW_OPTION
  0000214E            07222 F4_001214 EQU $ ; IN [V4.0 RFID 2ND GENERATION_LIB.PBP] GOSUB SD_SECTOR_SUB
00214E 0100           07223         MOVLB 0
  00000000            07224 RAM_BANK = 0
                      07225         F@CALL SD_SECTOR_SUB
  00002154            07226 F4_001216 EQU $ ; IN [V4.0 RFID 2ND GENERATION_LIB.PBP] SD_BYTES_PER_SEC.BYTE0 = SD_BUFFER0[$0B]
002154 504C           07227         MOVF SD_BUFFER0#11,W,0
002156 0102           07228         MOVLB 2
  00000002            07229 RAM_BANK = 2
002158 6F5F           07230         MOVWF SD_BYTES_PER_SEC
  0000215A            07231 F4_001217 EQU $ ; IN [V4.0 RFID 2ND GENERATION_LIB.PBP] SD_BYTES_PER_SEC.BYTE1 = SD_BUFFER0[$0C]
00215A 504D           07232         MOVF SD_BUFFER0#12,W,0
00215C 6F60           07233         MOVWF SD_BYTES_PER_SECH
  0000215E            07234 F4_001218 EQU $ ; IN [V4.0 RFID 2ND GENERATION_LIB.PBP] SD_SECS_PER_CLUSTER = SD_BUFFER0[$0D]
00215E 504E           07235         MOVF SD_BUFFER0#13,W,0
002160 6F55           07236         MOVWF SD_SECS_PER_CLUSTER
  00002162            07237 F4_001219 EQU $ ; IN [V4.0 RFID 2ND GENERATION_LIB.PBP] SD_RESERVED_SECS.BYTE0 = SD_BUFFER0[$0E]
002162 504F           07238         MOVF SD_BUFFER0#14,W,0
002164 6F56           07239         MOVWF SD_RESERVED_SECS
  00002166            07240 F4_001220 EQU $ ; IN [V4.0 RFID 2ND GENERATION_LIB.PBP] SD_RESERVED_SECS.BYTE1 = SD_BUFFER0[$0F]
002166 5050           07241         MOVF SD_BUFFER0#15,W,0
002168 6F57           07242         MOVWF SD_RESERVED_SECSH
  0000216A            07243 F4_001221 EQU $ ; IN [V4.0 RFID 2ND GENERATION_LIB.PBP] SD_NUM_OF_FATS = SD_BUFFER0[$10]
00216A 5051           07244         MOVF SD_BUFFER0#16,W,0
00216C 6F5A           07245         MOVWF SD_NUM_OF_FATS
  0000216E            07246 F4_001222 EQU $ ; IN [V4.0 RFID 2ND GENERATION_LIB.PBP] SD_NUM_OF_ROOT_ENTRIES.BYTE0 = SD_BUFFER0[$11]
00216E 5052           07247         MOVF SD_BUFFER0#17,W,0
002170 6F61           07248         MOVWF SD_NUM_OF_ROOT_ENTRIES
  00002172            07249 F4_001223 EQU $ ; IN [V4.0 RFID 2ND GENERATION_LIB.PBP] SD_NUM_OF_ROOT_ENTRIES.BYTE1 = SD_BUFFER0[$12]
002172 5053           07250         MOVF SD_BUFFER0#18,W,0
002174 6F62           07251         MOVWF SD_NUM_OF_ROOT_ENTRIESH
  00002176            07252 F4_001224 EQU $ ; IN [V4.0 RFID 2ND GENERATION_LIB.PBP] SD_SECS_PER_FAT.BYTE0 = SD_BUFFER0[$16]
002176 5057           07253         MOVF SD_BUFFER0#22,W,0
002178 6F58           07254         MOVWF SD_SECS_PER_FAT
  0000217A            07255 F4_001225 EQU $ ; IN [V4.0 RFID 2ND GENERATION_LIB.PBP] SD_SECS_PER_FAT.BYTE1 = SD_BUFFER0[$17]
00217A 5058           07256         MOVF SD_BUFFER0#23,W,0
00217C 6F59           07257         MOVWF SD_SECS_PER_FATH
  0000217E            07258 F4_001226 EQU $ ; IN [V4.0 RFID 2ND GENERATION_LIB.PBP] SD_NUM_OF_SECS.BYTE0 = SD_BUFFER0[$20]
00217E 5061           07259         MOVF SD_BUFFER0#32,W,0
002180 6F5B           07260         MOVWF SD_NUM_OF_SECS
  00002182            07261 F4_001227 EQU $ ; IN [V4.0 RFID 2ND GENERATION_LIB.PBP] SD_NUM_OF_SECS.BYTE1 = SD_BUFFER0[$21]
002182 5062           07262         MOVF SD_BUFFER0#33,W,0
002184 6F5C           07263         MOVWF SD_NUM_OF_SECSH
  00002186            07264 F4_001228 EQU $ ; IN [V4.0 RFID 2ND GENERATION_LIB.PBP] SD_NUM_OF_SECS.BYTE2 = SD_BUFFER0[$22]
002186 5063           07265         MOVF SD_BUFFER0#34,W,0
002188 6F5D           07266         MOVWF SD_NUM_OF_SECSHH
  0000218A            07267 F4_001229 EQU $ ; IN [V4.0 RFID 2ND GENERATION_LIB.PBP] SD_NUM_OF_SECS.BYTE3 = SD_BUFFER0[$23]
00218A 5064           07268         MOVF SD_BUFFER0#35,W,0
00218C 6F5E           07269         MOVWF SD_NUM_OF_SECSHHH
  0000218E            07270 F4_001230 EQU $ ; IN [V4.0 RFID 2ND GENERATION_LIB.PBP] SD_FAT1 = SD_BOOT_RECORD + SD_RESERVED_SECS
00218E 5156           07271         MOVF SD_RESERVED_SECS,W
002190 2565           07272         ADDWF SD_BOOT_RECORD,W
002192 6F67           07273         MOVWF SD_FAT1
002194 5157           07274         MOVF SD_RESERVED_SECSH,W
002196 2166           07275         ADDWFC SD_BOOT_RECORDH,W
002198 6F68           07276         MOVWF SD_FAT1H
00219A 0E00           07277         MOVLW 0
00219C 6B69           07278         CLRF SD_FAT1HH
00219E 2369           07279         ADDWFC SD_FAT1HH,F
0021A0 6B6A           07280         CLRF SD_FAT1HHH
  000021A2            07281 F4_001231 EQU $ ; IN [V4.0 RFID 2ND GENERATION_LIB.PBP] SD_FAT2 = SD_BOOT_RECORD + SD_RESERVED_SECS + SD_SECS_PER_FAT
0021A2 5156           07282         MOVF SD_RESERVED_SECS,W
0021A4 2565           07283         ADDWF SD_BOOT_RECORD,W
0021A6 6E23           07284         MOVWF PP7,0
0021A8 5157           07285         MOVF SD_RESERVED_SECSH,W
0021AA 2166           07286         ADDWFC SD_BOOT_RECORDH,W
0021AC 6E24           07287         MOVWF PP7H,0
0021AE 0E00           07288         MOVLW 0
0021B0 6A25           07289         CLRF PP7HH,0
0021B2 2225           07290         ADDWFC PP7HH,F,0
0021B4 6A26           07291         CLRF PP7HHH,0
0021B6 5158           07292         MOVF SD_SECS_PER_FAT,W
0021B8 2423           07293         ADDWF PP7,W,0
0021BA 6F6B           07294         MOVWF SD_FAT2
0021BC 5159           07295         MOVF SD_SECS_PER_FATH,W
0021BE 2024           07296         ADDWFC PP7H,W,0
0021C0 6F6C           07297         MOVWF SD_FAT2H
0021C2 0E00           07298         MOVLW 0
0021C4 2025           07299         ADDWFC PP7HH,W,0
0021C6 6F6D           07300         MOVWF SD_FAT2HH
0021C8 0E00           07301         MOVLW 0
0021CA 2026           07302         ADDWFC PP7HHH,W,0
0021CC 6F6E           07303         MOVWF SD_FAT2HHH
  000021CE            07304 F4_001232 EQU $ ; IN [V4.0 RFID 2ND GENERATION_LIB.PBP] SD_ROOT_DIR = SD_NUM_OF_FATS * SD_SECS_PER_FAT
0021CE 6A14           07305         CLRF PP0HHH,0
0021D0 6A13           07306         CLRF PP0HH,0
0021D2 6A12           07307         CLRF PP0H,0
0021D4 C25A F011      07308         MOVFF SD_NUM_OF_FATS,PP0
0021D8 6A1C           07309         CLRF PP2HHH,0
0021DA 6A1B           07310         CLRF PP2HH,0
0021DC C259 F01A      07311         MOVFF SD_SECS_PER_FATH,PP2H
0021E0 C258 F019      07312         MOVFF SD_SECS_PER_FAT,PP2
                      07313         F@CALL AL@MUL
0021E8 C014 F272      07314         MOVFF PP0HHH,SD_ROOT_DIRHHH
0021EC C013 F271      07315         MOVFF PP0HH,SD_ROOT_DIRHH
0021F0 C012 F270      07316         MOVFF PP0H,SD_ROOT_DIRH
0021F4 C011 F26F      07317         MOVFF PP0,SD_ROOT_DIR
  000021F8            07318 F4_001233 EQU $ ; IN [V4.0 RFID 2ND GENERATION_LIB.PBP] SD_ROOT_DIR = SD_BOOT_RECORD + SD_RESERVED_SECS + SD_ROOT_DIR
0021F8 5156           07319         MOVF SD_RESERVED_SECS,W
0021FA 2565           07320         ADDWF SD_BOOT_RECORD,W
0021FC 6E23           07321         MOVWF PP7,0
0021FE 5157           07322         MOVF SD_RESERVED_SECSH,W
002200 2166           07323         ADDWFC SD_BOOT_RECORDH,W
002202 6E24           07324         MOVWF PP7H,0
002204 0E00           07325         MOVLW 0
002206 6A25           07326         CLRF PP7HH,0
002208 2225           07327         ADDWFC PP7HH,F,0
00220A 6A26           07328         CLRF PP7HHH,0
00220C 5023           07329         MOVF PP7,W,0
00220E 276F           07330         ADDWF SD_ROOT_DIR,F
002210 5024           07331         MOVF PP7H,W,0
002212 2370           07332         ADDWFC SD_ROOT_DIRH,F
002214 5025           07333         MOVF PP7HH,W,0
002216 2371           07334         ADDWFC SD_ROOT_DIRHH,F
002218 5026           07335         MOVF PP7HHH,W,0
00221A 2372           07336         ADDWFC SD_ROOT_DIRHHH,F
  0000221C            07337 F4_001234 EQU $ ; IN [V4.0 RFID 2ND GENERATION_LIB.PBP] SD_SECS_IN_ROOT = SD_NUM_OF_ROOT_ENTRIES * 32
00221C 5162           07338         MOVF SD_NUM_OF_ROOT_ENTRIESH,W
00221E 0D20           07339         MULLW 32
002220 CFF3 F264      07340         MOVFF PRODL,SD_SECS_IN_ROOTH
002224 5161           07341         MOVF SD_NUM_OF_ROOT_ENTRIES,W
002226 0D20           07342         MULLW 32
002228 CFF3 F263      07343         MOVFF PRODL,SD_SECS_IN_ROOT
00222C 50F4           07344         MOVF PRODH,W,0
00222E 2764           07345         ADDWF SD_SECS_IN_ROOTH,F
  00002230            07346 F4_001235 EQU $ ; IN [V4.0 RFID 2ND GENERATION_LIB.PBP] SD_SECS_IN_ROOT = SD_SECS_IN_ROOT / SD_BYTES_PER_SEC
002230 C264 F012      07347         MOVFF SD_SECS_IN_ROOTH,PP0H
002234 C263 F011      07348         MOVFF SD_SECS_IN_ROOT,PP0
002238 C260 F016      07349         MOVFF SD_BYTES_PER_SECH,PP1H
00223C C25F F015      07350         MOVFF SD_BYTES_PER_SEC,PP1
                      07351         F@CALL D@VD
002244 6F63           07352         MOVWF SD_SECS_IN_ROOT
002246 C012 F264      07353         MOVFF PP0H,SD_SECS_IN_ROOTH
  0000224A            07354 F4_001236 EQU $ ; IN [V4.0 RFID 2ND GENERATION_LIB.PBP] SD_DATA_AREA = SD_ROOT_DIR + SD_SECS_IN_ROOT
00224A 5163           07355         MOVF SD_SECS_IN_ROOT,W
00224C 256F           07356         ADDWF SD_ROOT_DIR,W
00224E 6F73           07357         MOVWF SD_DATA_AREA
002250 5164           07358         MOVF SD_SECS_IN_ROOTH,W
002252 2170           07359         ADDWFC SD_ROOT_DIRH,W
002254 6F74           07360         MOVWF SD_DATA_AREAH
002256 0E00           07361         MOVLW 0
002258 2171           07362         ADDWFC SD_ROOT_DIRHH,W
00225A 6F75           07363         MOVWF SD_DATA_AREAHH
00225C 0E00           07364         MOVLW 0
00225E 2172           07365         ADDWFC SD_ROOT_DIRHHH,W
002260 6F76           07366         MOVWF SD_DATA_AREAHHH
  00002262            07367 F4_001238 EQU $ ; IN [V4.0 RFID 2ND GENERATION_LIB.PBP] SD_SECTOR_NUM = SD_BOOT_RECORD + SD_NUM_OF_SECS - 1
002262 5165           07368         MOVF SD_BOOT_RECORD,W
002264 255B           07369         ADDWF SD_NUM_OF_SECS,W
002266 6E23           07370         MOVWF PP7,0
002268 5166           07371         MOVF SD_BOOT_RECORDH,W
00226A 215C           07372         ADDWFC SD_NUM_OF_SECSH,W
00226C 6E24           07373         MOVWF PP7H,0
00226E 0E00           07374         MOVLW 0
002270 215D           07375         ADDWFC SD_NUM_OF_SECSHH,W
002272 6E25           07376         MOVWF PP7HH,0
002274 0E00           07377         MOVLW 0
002276 215E           07378         ADDWFC SD_NUM_OF_SECSHHH,W
002278 6E26           07379         MOVWF PP7HHH,0
00227A 0423           07380         DECF PP7,W,0
00227C 6E34           07381         MOVWF SD_SECTOR_NUM,0
00227E 0E00           07382         MOVLW 0
002280 5824           07383         SUBWFB PP7H,W,0
002282 6E35           07384         MOVWF SD_SECTOR_NUMH,0
002284 0E00           07385         MOVLW 0
002286 5825           07386         SUBWFB PP7HH,W,0
002288 6E36           07387         MOVWF SD_SECTOR_NUMHH,0
00228A 0E00           07388         MOVLW 0
00228C 5826           07389         SUBWFB PP7HHH,W,0
00228E 6E37           07390         MOVWF SD_SECTOR_NUMHHH,0
  00002290            07391 F4_001239 EQU $ ; IN [V4.0 RFID 2ND GENERATION_LIB.PBP] SD_SECTOR_NUM = SD_SECTOR_NUM - SD_DATA_AREA + 1
002290 5173           07392         MOVF SD_DATA_AREA,W
002292 5C34           07393         SUBWF SD_SECTOR_NUM,W,0
002294 6E23           07394         MOVWF PP7,0
002296 5174           07395         MOVF SD_DATA_AREAH,W
002298 5835           07396         SUBWFB SD_SECTOR_NUMH,W,0
00229A 6E24           07397         MOVWF PP7H,0
00229C 5175           07398         MOVF SD_DATA_AREAHH,W
00229E 5836           07399         SUBWFB SD_SECTOR_NUMHH,W,0
0022A0 6E25           07400         MOVWF PP7HH,0
0022A2 5176           07401         MOVF SD_DATA_AREAHHH,W
0022A4 5837           07402         SUBWFB SD_SECTOR_NUMHHH,W,0
0022A6 6E26           07403         MOVWF PP7HHH,0
0022A8 2823           07404         INCF PP7,W,0
0022AA 6E34           07405         MOVWF SD_SECTOR_NUM,0
0022AC 0E00           07406         MOVLW 0
0022AE 2024           07407         ADDWFC PP7H,W,0
0022B0 6E35           07408         MOVWF SD_SECTOR_NUMH,0
0022B2 0E00           07409         MOVLW 0
0022B4 2025           07410         ADDWFC PP7HH,W,0
0022B6 6E36           07411         MOVWF SD_SECTOR_NUMHH,0
0022B8 0E00           07412         MOVLW 0
0022BA 2026           07413         ADDWFC PP7HHH,W,0
0022BC 6E37           07414         MOVWF SD_SECTOR_NUMHHH,0
  000022BE            07415 F4_001240 EQU $ ; IN [V4.0 RFID 2ND GENERATION_LIB.PBP] SD_SECTOR_NUM = SD_SECTOR_NUM / SD_SECS_PER_CLUSTER
0022BE C037 F014      07416         MOVFF SD_SECTOR_NUMHHH,PP0HHH
0022C2 C036 F013      07417         MOVFF SD_SECTOR_NUMHH,PP0HH
0022C6 C035 F012      07418         MOVFF SD_SECTOR_NUMH,PP0H
0022CA C034 F011      07419         MOVFF SD_SECTOR_NUM,PP0
0022CE 6A1C           07420         CLRF PP2HHH,0
0022D0 6A1B           07421         CLRF PP2HH,0
0022D2 6A1A           07422         CLRF PP2H,0
0022D4 C255 F019      07423         MOVFF SD_SECS_PER_CLUSTER,PP2
                      07424         F@CALL L@DIV
0022DC C014 F037      07425         MOVFF PP0HHH,SD_SECTOR_NUMHHH
0022E0 C013 F036      07426         MOVFF PP0HH,SD_SECTOR_NUMHH
0022E4 C012 F035      07427         MOVFF PP0H,SD_SECTOR_NUMH
0022E8 C011 F034      07428         MOVFF PP0,SD_SECTOR_NUM
  000022EC            07429 F4_001241 EQU $ ; IN [V4.0 RFID 2ND GENERATION_LIB.PBP] SD_LAST_CLUSTER = SD_SECTOR_NUM + 1
0022EC 0E01           07430         MOVLW 1
0022EE 2434           07431         ADDWF SD_SECTOR_NUM,W,0
0022F0 6FC9           07432         MOVWF SD_LAST_CLUSTER
0022F2 0E00           07433         MOVLW 0
0022F4 2035           07434         ADDWFC SD_SECTOR_NUMH,W,0
0022F6 6FCA           07435         MOVWF SD_LAST_CLUSTERH
  000022F8            07436 F4_001243 EQU $ ; IN [V4.0 RFID 2ND GENERATION_LIB.PBP] SD_FILE_NAME = "        "
0022F8 EE02 F091      07437         LFSR 0,SD_FILE_NAME
0022FC 0E04           07438         MOVLW HIGH (STR@LB1)
0022FE 6EF7           07439         MOVWF TBLPTRLH,0
002300 0EA4           07440         MOVLW LOW (STR@LB1)
002302 6EF6           07441         MOVWF TBLPTRL,0
                      07442         F@CALL LOAD@MSTR
002308 6AEF           07443         CLRF INDF0,0
  0000230A            07444 F4_001244 EQU $ ; IN [V4.0 RFID 2ND GENERATION_LIB.PBP] SD_FILE_EXT = "   "
00230A EE02 F09A      07445         LFSR 0,SD_FILE_EXT
00230E 0E20           07446         MOVLW 32
002310 6EEE           07447         MOVWF POSTINC0,0
002312 6EEE           07448         MOVWF POSTINC0,0
002314 6EEE           07449         MOVWF POSTINC0,0
002316 6AEF           07450         CLRF INDF0,0
  00002318            07451 F4_001245 EQU $ ; IN [V4.0 RFID 2ND GENERATION_LIB.PBP] SD_DAY = 1
002318 0E01           07452         MOVLW 1
00231A 6FEF           07453         MOVWF SD_DAY
  0000231C            07454 F4_001246 EQU $ ; IN [V4.0 RFID 2ND GENERATION_LIB.PBP] SD_MONTH = 1
00231C 6FF0           07455         MOVWF SD_MONTH
  0000231E            07456 F4_001247 EQU $ ; IN [V4.0 RFID 2ND GENERATION_LIB.PBP] SD_YEAR = 0
00231E 6BF1           07457         CLRF SD_YEAR
  00002320            07458 F4_001248 EQU $ ; IN [V4.0 RFID 2ND GENERATION_LIB.PBP] SD_MSECONDS = 0
002320 6BF2           07459         CLRF SD_MSECONDS
  00002322            07460 F4_001249 EQU $ ; IN [V4.0 RFID 2ND GENERATION_LIB.PBP] SD_SECONDS = 0
002322 6BF3           07461         CLRF SD_SECONDS
  00002324            07462 F4_001250 EQU $ ; IN [V4.0 RFID 2ND GENERATION_LIB.PBP] SD_MINUTES = 0
002324 6BF4           07463         CLRF SD_MINUTES
  00002326            07464 F4_001251 EQU $ ; IN [V4.0 RFID 2ND GENERATION_LIB.PBP] SD_HOURS = 0
002326 6BF5           07465         CLRF SD_HOURS
  00002328            07466 F4_001252 EQU $ ; IN [V4.0 RFID 2ND GENERATION_LIB.PBP] SD_FILE_NUM = 0
002328 6BE7           07467         CLRF SD_FILE_NUMH
00232A 6BE6           07468         CLRF SD_FILE_NUM
  0000232C            07469 F4_001253 EQU $ ; IN [V4.0 RFID 2ND GENERATION_LIB.PBP] SD_EXTENDED_RETURN = 0
00232C 6B4B           07470         CLRF SD_EXTENDED_RETURN
  0000232E            07471 F4_001254 EQU $ ; IN [V4.0 RFID 2ND GENERATION_LIB.PBP] RETURN
00232E 0100           07472         MOVLB 0
  00000000            07473 RAM_BANK = 0
002330 0012           07474         RETURN 0
  00002332            07475 F4_001260 EQU $ ; IN [V4.0 RFID 2ND GENERATION_LIB.PBP] SD_WRITE_BYTE_TO_FILE MACRO P1
                      07476 SD_WRITE_BYTE_TO_FILE   MACRO P1,.,.,.,.,.,.,.,.,.
                      07477  LOCAL PRM_EMPTY=0,BIT=1,BYTE=2,WORD=3,DWORD=4,FLOAT=5,LABEL=6,CHAR=7,STRING=9
                      07478  LOCAL NUM8=8,NUM16=16,NUM32=32,SNUM8=10,SNUM16=15,SNUM32=31,FNUM=33,BYTE_ARRAY_PTR=22,WORD_ARRAY_PTR=23
                      07479  IF (PRM_COUNT >  1)
                      07480         ERROR "(IN ASM) SD_WRITE_BYTE_TO_FILE - TOO MANY PARAMETERS"
                      07481  ELSE
                      07482  IF (PRM_COUNT <  1)
                      07483         ERROR "(IN ASM) SD_WRITE_BYTE_TO_FILE - TOO FEW PARAMETERS"
                      07484  ELSE
                      07485  IF (PRM_1 != BYTE) && (PRM_1 != NUM8) && (PRM_1 != NUM16) && (PRM_1 != NUM32) && (PRM_1 != WORD) && (PRM_1 != DWORD)
                      07486         ERROR "(IN ASM) SD_WRITE_BYTE_TO_FILE - BYTE(PARAM 1) SHOULD BE A BYTE, WORD OR DWORD VARIABLE OR NUMBER"
                      07487  ENDIF
                      07488  IF (PRM_1 == BYTE)
                      07489         BYTE_BYTE P1, SD_IO_BYTE
                      07490  ENDIF
                      07491  IF (PRM_1 == NUM8)
                      07492         NUM_BYTE P1, SD_IO_BYTE
                      07493 RAM_BANK = 0
                      07494  ENDIF
                      07495  IF (PRM_1 == NUM16)
                      07496         NUM_BYTE P1, SD_IO_BYTE
                      07497 RAM_BANK = 0
                      07498  ENDIF
                      07499  IF (PRM_1 == NUM32)
                      07500         NUM_BYTE P1, SD_IO_BYTE
                      07501 RAM_BANK = 0
                      07502  ENDIF
                      07503  IF (PRM_1 == WORD)
                      07504         BYTE_BYTE P1, SD_IO_BYTE
                      07505  ENDIF
                      07506  IF (PRM_1 == DWORD)
                      07507         BYTE_BYTE P1, SD_IO_BYTE
                      07508  ENDIF
                      07509  IF (PRM_1 == FLOAT)
                      07510         FLOAT_BYTE P1, SD_IO_BYTE
                      07511  ENDIF
                      07512         F@CALL SD_WRITE_BYTE_TO_FILE_SUB
                      07513  IF (SD_WRITE_BYTE_TO_FILE_RETURN != 1)
                      07514  ELSE
                      07515  IF (RETURN_TYPE != BYTE)
                      07516         ERROR "(IN ASM) SD_WRITE_BYTE_TO_FILE - RETURN VARIABLE SHOULD BE A BYTE VARIABLE"
                      07517  ENDIF
                      07518  IF (RETURN_TYPE == BYTE)
                      07519         BYTE_BYTE SD_EXTENDED_RETURN, RETURN_VAR
                      07520  ENDIF
                      07521  ENDIF
                      07522  ENDIF
                      07523  ENDIF
                      07524         ENDM
  00002332            07525 F4_001318 EQU $ ; IN [V4.0 RFID 2ND GENERATION_LIB.PBP] SD_WRITE_STRING_TO_FILE MACRO
                      07526 SD_WRITE_STRING_TO_FILE MACRO .,.,.,.,.,.,.,.,.,.
                      07527  LOCAL PRM_EMPTY=0,BIT=1,BYTE=2,WORD=3,DWORD=4,FLOAT=5,LABEL=6,CHAR=7,STRING=9
                      07528  LOCAL NUM8=8,NUM16=16,NUM32=32,SNUM8=10,SNUM16=15,SNUM32=31,FNUM=33,BYTE_ARRAY_PTR=22,WORD_ARRAY_PTR=23
                      07529  IF (PRM_COUNT != 0)
                      07530         ERROR "(IN ASM) NO PARAMETERS REQUIRED FOR SD_WRITE_STRING_TO_FILE"
                      07531         EXITM
                      07532  ENDIF
                      07533         F@CALL SD_WRITE_STRING_TO_FILE_SUB
                      07534  IF (SD_WRITE_STRING_TO_FILE_RETURN != 1)
                      07535  ELSE
                      07536  IF (RETURN_TYPE != BYTE)
                      07537         ERROR "(IN ASM) SD_WRITE_STRING_TO_FILE - RETURN VARIABLE SHOULD BE A BYTE VARIABLE"
                      07538  ENDIF
                      07539  IF (RETURN_TYPE == BYTE)
                      07540         BYTE_BYTE SD_EXTENDED_RETURN, RETURN_VAR
                      07541  ENDIF
                      07542  ENDIF
                      07543         ENDM
002332                07544 SD_WRITE_STRING_TO_FILE_SUB
  00002332            07545 F4_001345 EQU $ ; IN [V4.0 RFID 2ND GENERATION_LIB.PBP] SD_IO_STRING_LENGTH = LEN(SD_IO_STRING)
002332 EE02 F0FB      07546         LFSR 0,SD_IO_STRING
002336 6AE8           07547         CLRF WREG,0
002338 52EE           07548         MOVF POSTINC0,F,0
00233A E002           07549         BZ $ + 6
00233C 3EE8           07550         INCFSZ WREG,F,0
00233E D7FC           07551         BRA $ - 6
002340 0102           07552         MOVLB 2
  00000002            07553 RAM_BANK = 2
002342 6FF9           07554         MOVWF SD_IO_STRING_LENGTH
  00002344            07555 F4_001346 EQU $ ; IN [V4.0 RFID 2ND GENERATION_LIB.PBP] SD_IO_STRING_LENGTH = SD_IO_STRING_LENGTH - 1
002344 07F9           07556         DECF SD_IO_STRING_LENGTH,F
  00002346            07557 F4_001347 EQU $ ; IN [V4.0 RFID 2ND GENERATION_LIB.PBP] FOR SD_IO_STRING_POS = 0 TO SD_IO_STRING_LENGTH
002346 6BFA           07558         CLRF SD_IO_STRING_POS
002348                07559 FR@LB203
002348 0100           07560         MOVLB 0
  00000000            07561 RAM_BANK = 0
00234A 0102           07562         MOVLB 2
  00000002            07563 RAM_BANK = 2
00234C 51FA           07564         MOVF SD_IO_STRING_POS,W
00234E 5DF9           07565         SUBWF SD_IO_STRING_LENGTH,W
002350 0100           07566         MOVLB 0
  00000000            07567 RAM_BANK = 0
002352 A0D8           07568         BTFSS STATUS,0,0
                      07569         GO@TO NX@LB204
  00002358            07570 F4_001348 EQU $ ; IN [V4.0 RFID 2ND GENERATION_LIB.PBP] SD_IO_BYTE = SD_IO_STRING[SD_IO_STRING_POS]
002358 EE02 F0FB      07571         LFSR 0,SD_IO_STRING
00235C 0102           07572         MOVLB 2
  00000002            07573 RAM_BANK = 2
00235E 51FA           07574         MOVF SD_IO_STRING_POS,W
002360 26E9           07575         ADDWF FSR0L,F,0
002362 0E00           07576         MOVLW 0
002364 22EA           07577         ADDWFC FSR0H,F,0
002366 50EF           07578         MOVF INDF0,W,0
002368 6FD0           07579         MOVWF SD_IO_BYTE
  0000236A            07580 F4_001349 EQU $ ; IN [V4.0 RFID 2ND GENERATION_LIB.PBP] GOSUB SD_WRITE_BYTE_TO_FILE_SUB
00236A 0100           07581         MOVLB 0
  00000000            07582 RAM_BANK = 0
                      07583         F@CALL SD_WRITE_BYTE_TO_FILE_SUB
  00002370            07584 F4_001350 EQU $ ; IN [V4.0 RFID 2ND GENERATION_LIB.PBP] IF SD_EXTENDED_RETURN = 1 THEN RETURN
002370 0E01           07585         MOVLW 1
002372 0102           07586         MOVLB 2
  00000002            07587 RAM_BANK = 2
002374 5D4B           07588         SUBWF SD_EXTENDED_RETURN,W
002376 0100           07589         MOVLB 0
  00000000            07590 RAM_BANK = 0
002378 A4D8           07591         BTFSS STATUS,2,0
                      07592         GO@TO BC@LL205
00237E 0012           07593         RETURN 0
002380                07594 BC@LL205
  00002380            07595 F4_001351 EQU $ ; IN [V4.0 RFID 2ND GENERATION_LIB.PBP] NEXT SD_IO_STRING_POS
002380 0102           07596         MOVLB 2
  00000002            07597 RAM_BANK = 2
002382 2BFA           07598         INCF SD_IO_STRING_POS,F
002384 0100           07599         MOVLB 0
  00000000            07600 RAM_BANK = 0
002386 A4D8           07601         BTFSS STATUS,2,0
                      07602         GO@TO FR@LB203
00238A                07603 NX@LB204
  0000238A            07604 F4_001352 EQU $ ; IN [V4.0 RFID 2ND GENERATION_LIB.PBP] RETURN
00238A 0012           07605         RETURN 0
00238C                07606 OVERLIBCODE
  0000238C            07607 F4_EOF EQU $ ; V4.0 RFID 2ND GENERATION_LIB.PBP
  0000238C            07608 F2_EOF EQU $ ; V4.0 RFID 2ND GENERATION.PRP
  0000238C            07609 F1_SOF EQU $ ; V4.0 RFID 2ND GENERATION.BAS
  0000238C            07610 F5_SOF EQU $ ; INITIALIZE.INC
  0000238C            07611 F5_000036 EQU $ ; IN [INITIALIZE.INC] ALL_DIGITAL = TRUE
00238C 0E07           07612         MOVLW 7
00238E 6EB4           07613         MOVWF CMCON,0
002390 0E0F           07614         MOVLW 15
002392 6EC1           07615         MOVWF ADCON1,0
  00002394            07616 F5_EOF EQU $ ; INITIALIZE.INC
  00002394            07617 F1_000043 EQU $ ; IN [V4.0 RFID 2ND GENERATION.BAS] DELAYMS 200               'ALLOW CHIP TO SETTLE
002394 0EC8           07618         MOVLW 200
                      07619         F@CALL DL@MS
  0000239A            07620 F1_000045 EQU $ ; IN [V4.0 RFID 2ND GENERATION.BAS] INPUT SD_DETECT           'SET SD DETECT PORT AS INPUT...
00239A 8292           07621         BSF TRISA,1,0
  0000239C            07622 F1_000048 EQU $ ; IN [V4.0 RFID 2ND GENERATION.BAS] LOW RFIDENABLE                ' TURN OFF RFID READER
00239C 9895           07623         BCF TRISD,4,0
00239E 9883           07624         BCF PORTD,4,0
  000023A0            07625 F1_000049 EQU $ ; IN [V4.0 RFID 2ND GENERATION.BAS] USER_POINTER.LOWBYTE = EREAD UPA_L    'READ THE LOW AND HIGH BYTES OF...
0023A0 0E00           07626         MOVLW 0
                      07627         F@CALL EE@RD
0023A6 0103           07628         MOVLB 3
  00000003            07629 RAM_BANK = 3
0023A8 6FC4           07630         MOVWF USER_POINTER
  000023AA            07631 F1_000050 EQU $ ; IN [V4.0 RFID 2ND GENERATION.BAS] USER_POINTER.HIGHBYTE = EREAD UPA_H    '..USER POINTER ADDRESS FROM EEPROM
0023AA 0E01           07632         MOVLW 1
                      07633         F@CALL EE@RD
0023B0 6FC5           07634         MOVWF USER_POINTERH
  000023B2            07635 F1_000052 EQU $ ; IN [V4.0 RFID 2ND GENERATION.BAS] IF USER_POINTER = 0XFFFF THEN             'IF THE VALUE READ FROM EEPROM IS OXFFFF THEN THIS IS A NEW CHIP SO....
0023B2 29C4           07636         INCF USER_POINTER,W
0023B4 E101           07637         BNZ CP@LB28
0023B6 29C5           07638         INCF USER_POINTERH,W
0023B8                07639 CP@LB28
0023B8 0100           07640         MOVLB 0
  00000000            07641 RAM_BANK = 0
0023BA A4D8           07642         BTFSS STATUS,2,0
                      07643         GO@TO BC@LL207
  000023C0            07644 F1_000053 EQU $ ; IN [V4.0 RFID 2ND GENERATION.BAS] USER_POINTER = BUA                   '...WE WRITE THE LOW AND ..
0023C0 0E9C           07645         MOVLW 156
0023C2 0103           07646         MOVLB 3
  00000003            07647 RAM_BANK = 3
0023C4 6FC5           07648         MOVWF USER_POINTERH
0023C6 0E50           07649         MOVLW 80
0023C8 6FC4           07650         MOVWF USER_POINTER
  000023CA            07651 F1_000054 EQU $ ; IN [V4.0 RFID 2ND GENERATION.BAS] EWRITE UPA_L, [USER_POINTER.LOWBYTE]  '...HIGH BYTES OF THE BASE USER ADDRESS (0X9C500...
0023CA 6AAA           07652         CLRF EEADRH,0
0023CC 6AA9           07653         CLRF EEADR,0
0023CE 51C4           07654         MOVF USER_POINTER,W
                      07655         F@CALL EE@WR@W
  000023D4            07656 F1_000055 EQU $ ; IN [V4.0 RFID 2ND GENERATION.BAS] EWRITE UPA_H, [USER_POINTER.HIGHBYTE]  '...INTO THE EEPROM POINTER STORAGE SPOT (0X000 AND 0X001)
0023D4 6AAA           07657         CLRF EEADRH,0
0023D6 0E01           07658         MOVLW 1
0023D8 6EA9           07659         MOVWF EEADR,0
0023DA 51C5           07660         MOVF USER_POINTERH,W
                      07661         F@CALL EE@WR@W
  000023E0            07662 F1_000056 EQU $ ; IN [V4.0 RFID 2ND GENERATION.BAS] EWRITE NUM_UHE, [0X00]              'INITIALIZE NUMBER OF USER HISTORIES TO ZERO
0023E0 6AAA           07663         CLRF EEADRH,0
0023E2 0E03           07664         MOVLW 3
0023E4 6EA9           07665         MOVWF EEADR,0
0023E6 0E00           07666         MOVLW 0
                      07667         F@CALL EE@WR@W
  000023EC            07668 F1_000057 EQU $ ; IN [V4.0 RFID 2ND GENERATION.BAS] EWRITE NUM_MHE, [0X00]               'INITIALIZE NUMBER OF MANAGER HISTORIES TO ZERO
0023EC 6AAA           07669         CLRF EEADRH,0
0023EE 0E04           07670         MOVLW 4
0023F0 6EA9           07671         MOVWF EEADR,0
0023F2 0E00           07672         MOVLW 0
                      07673         F@CALL EE@WR@W
  000023F8            07674 F1_000058 EQU $ ; IN [V4.0 RFID 2ND GENERATION.BAS] ENDIF
0023F8                07675 BC@LL207
0023F8 0100           07676         MOVLB 0
  00000000            07677 RAM_BANK = 0
  000023FA            07678 F1_000062 EQU $ ; IN [V4.0 RFID 2ND GENERATION.BAS] IF SD_DETECT = 0 THEN
0023FA B280           07679         BTFSC PORTA,1,0
                      07680         GO@TO BC@LL209
  00002400            07681 F1_000063 EQU $ ; IN [V4.0 RFID 2ND GENERATION.BAS] CLS
                      07682         F@CALL LCD@CLS
  00002404            07683 F1_000064 EQU $ ; IN [V4.0 RFID 2ND GENERATION.BAS] PRINT "DETECTED!"
002404 0E04           07684         MOVLW HIGH (STR@LB2)
002406 6EF7           07685         MOVWF TBLPTRLH,0
002408 0EAE           07686         MOVLW LOW (STR@LB2)
00240A 6EF6           07687         MOVWF TBLPTRL,0
                      07688         F@CALL PRINT@MSTR
  00002410            07689 F1_000065 EQU $ ; IN [V4.0 RFID 2ND GENERATION.BAS] PAUSE 3000
002410 0E0B           07690         MOVLW 11
002412 6E16           07691         MOVWF PP1H,0
002414 0EB8           07692         MOVLW 184
                      07693         F@CALL DLY@W
  0000241A            07694 F1_000066 EQU $ ; IN [V4.0 RFID 2ND GENERATION.BAS] GOSUB INIT_SD  '************ ONLY DO ONE TIME WHEN SD CARD DETECTED.
                      07695         F@CALL INIT_SD
  0000241E            07696 F1_000067 EQU $ ; IN [V4.0 RFID 2ND GENERATION.BAS] GOSUB READ_SD
                      07697         F@CALL READ_SD
  00002422            07698 F1_000068 EQU $ ; IN [V4.0 RFID 2ND GENERATION.BAS] END IF
002422                07699 BC@LL209
  00002422            07700 F1_000071 EQU $ ; IN [V4.0 RFID 2ND GENERATION.BAS] GOSUB INIT_SD  '************ ONLY DO ONE TIME WHEN SD CARD DETECTED.
                      07701         F@CALL INIT_SD
  00002426            07702 F1_000072 EQU $ ; IN [V4.0 RFID 2ND GENERATION.BAS] GOSUB WRITE_USERS_SD
                      07703         F@CALL WRITE_USERS_SD
  0000242A            07704 F1_000073 EQU $ ; IN [V4.0 RFID 2ND GENERATION.BAS] CLS
                      07705         F@CALL LCD@CLS
  0000242E            07706 F1_000074 EQU $ ; IN [V4.0 RFID 2ND GENERATION.BAS] PRINT "DONE"
00242E 0E44           07707         MOVLW 68
                      07708         F@CALL PRINT
002434 0E6F           07709         MOVLW 111
                      07710         F@CALL PRINT
00243A 0E6E           07711         MOVLW 110
                      07712         F@CALL PRINT
002440 0E65           07713         MOVLW 101
                      07714         F@CALL PRINT
  00002446            07715 F1_000078 EQU $ ; IN [V4.0 RFID 2ND GENERATION.BAS] PAUSE 3000
002446 0E0B           07716         MOVLW 11
002448 6E16           07717         MOVWF PP1H,0
00244A 0EB8           07718         MOVLW 184
                      07719         F@CALL DLY@W
002450                07720 START
002450                07721 START2
  00002450            07722 F1_000085 EQU $ ; IN [V4.0 RFID 2ND GENERATION.BAS] GOSUB READ_TAG
                      07723         F@CALL READ_TAG
  00002454            07724 F1_000087 EQU $ ; IN [V4.0 RFID 2ND GENERATION.BAS] CLS
                      07725         F@CALL LCD@CLS
  00002458            07726 F1_000088 EQU $ ; IN [V4.0 RFID 2ND GENERATION.BAS] PRINT "CHECKING TAG"
002458 0E04           07727         MOVLW HIGH (STR@LB3)
00245A 6EF7           07728         MOVWF TBLPTRLH,0
00245C 0EB8           07729         MOVLW LOW (STR@LB3)
00245E 6EF6           07730         MOVWF TBLPTRL,0
                      07731         F@CALL PRINT@MSTR
  00002464            07732 F1_000090 EQU $ ; IN [V4.0 RFID 2ND GENERATION.BAS] GOSUB CHECK_TAG
                      07733         F@CALL CHECK_TAG
  00002468            07734 F1_000091 EQU $ ; IN [V4.0 RFID 2ND GENERATION.BAS] IF RESPONSE = 1 THEN
002468 0E01           07735         MOVLW 1
00246A 0103           07736         MOVLB 3
  00000003            07737 RAM_BANK = 3
00246C 5DED           07738         SUBWF RESPONSE,W
00246E 0100           07739         MOVLB 0
  00000000            07740 RAM_BANK = 0
002470 A4D8           07741         BTFSS STATUS,2,0
                      07742         GO@TO BC@LL211
  00002476            07743 F1_000092 EQU $ ; IN [V4.0 RFID 2ND GENERATION.BAS] CLS
                      07744         F@CALL LCD@CLS
  0000247A            07745 F1_000093 EQU $ ; IN [V4.0 RFID 2ND GENERATION.BAS] PRINT AT 1,1, "GOT A MATCH"
00247A 0E80           07746         MOVLW 128
00247C 6E01           07747         MOVWF BPFH,0
                      07748         F@CALL LCD@CRS
002482 0E04           07749         MOVLW HIGH (STR@LB4)
002484 6EF7           07750         MOVWF TBLPTRLH,0
002486 0EC6           07751         MOVLW LOW (STR@LB4)
002488 6EF6           07752         MOVWF TBLPTRL,0
                      07753         F@CALL PRINT@MSTR
  0000248E            07754 F1_000094 EQU $ ; IN [V4.0 RFID 2ND GENERATION.BAS] PRINT AT 2,1, STR USERIN
00248E 0E80           07755         MOVLW 128
002490 6E01           07756         MOVWF BPFH,0
002492 0EC0           07757         MOVLW 192
                      07758         F@CALL LCD@CRS
002498 0E04           07759         MOVLW 4
00249A 6E04           07760         MOVWF GEN4,0
00249C 0E03           07761         MOVLW 3
00249E 6E1A           07762         MOVWF PP2H,0
0024A0 0ED0           07763         MOVLW 208
                      07764         F@CALL SB@STROUT
  000024A6            07765 F1_000095 EQU $ ; IN [V4.0 RFID 2ND GENERATION.BAS] GOSUB WRITEH
                      07766         F@CALL WRITEH
  000024AA            07767 F1_000096 EQU $ ; IN [V4.0 RFID 2ND GENERATION.BAS] CLS
                      07768         F@CALL LCD@CLS
  000024AE            07769 F1_000097 EQU $ ; IN [V4.0 RFID 2ND GENERATION.BAS] PRINT "HISTORY DONE!"
0024AE 0E04           07770         MOVLW HIGH (STR@LB5)
0024B0 6EF7           07771         MOVWF TBLPTRLH,0
0024B2 0ED2           07772         MOVLW LOW (STR@LB5)
0024B4 6EF6           07773         MOVWF TBLPTRL,0
                      07774         F@CALL PRINT@MSTR
  000024BA            07775 F1_000098 EQU $ ; IN [V4.0 RFID 2ND GENERATION.BAS] PAUSE 2000
0024BA 0E07           07776         MOVLW 7
0024BC 6E16           07777         MOVWF PP1H,0
0024BE 0ED0           07778         MOVLW 208
                      07779         F@CALL DLY@W
  000024C4            07780 F1_000099 EQU $ ; IN [V4.0 RFID 2ND GENERATION.BAS] GOTO START2
                      07781         F@JUMP START2
                      07782         F@JUMP BC@LL214
0024CA                07783 BC@LL211
  000024CA            07784 F1_000100 EQU $ ; IN [V4.0 RFID 2ND GENERATION.BAS] ELSE
  000024CA            07785 F1_000101 EQU $ ; IN [V4.0 RFID 2ND GENERATION.BAS] CLS
                      07786         F@CALL LCD@CLS
  000024CE            07787 F1_000102 EQU $ ; IN [V4.0 RFID 2ND GENERATION.BAS] PRINT "NO MATCH"
0024CE 0E04           07788         MOVLW HIGH (STR@LB6)
0024D0 6EF7           07789         MOVWF TBLPTRLH,0
0024D2 0EE0           07790         MOVLW LOW (STR@LB6)
0024D4 6EF6           07791         MOVWF TBLPTRL,0
                      07792         F@CALL PRINT@MSTR
  000024DA            07793 F1_000103 EQU $ ; IN [V4.0 RFID 2ND GENERATION.BAS] PAUSE 2000
0024DA 0E07           07794         MOVLW 7
0024DC 6E16           07795         MOVWF PP1H,0
0024DE 0ED0           07796         MOVLW 208
                      07797         F@CALL DLY@W
  000024E4            07798 F1_000104 EQU $ ; IN [V4.0 RFID 2ND GENERATION.BAS] GOTO START2
                      07799         F@JUMP START2
  000024E6            07800 F1_000105 EQU $ ; IN [V4.0 RFID 2ND GENERATION.BAS] ENDIF
0024E6                07801 BC@LL214
  000024E6            07802 F1_000106 EQU $ ; IN [V4.0 RFID 2ND GENERATION.BAS] STOP
0024E6                07803 PB@LB216
0024E6 D7FF           07804         BRA PB@LB216
  000024E8            07805 F6_SOF EQU $ ; READ TAG.INC
0024E8                07806 READ_TAG
  000024E8            07807 F6_000012 EQU $ ; IN [READ TAG.INC] CLS
                      07808         F@CALL LCD@CLS
  000024EC            07809 F6_000013 EQU $ ; IN [READ TAG.INC] PRINT AT 1,1, "ATTEMPTING TO"
0024EC 0E80           07810         MOVLW 128
0024EE 6E01           07811         MOVWF BPFH,0
                      07812         F@CALL LCD@CRS
0024F4 0E04           07813         MOVLW HIGH (STR@LB7)
0024F6 6EF7           07814         MOVWF TBLPTRLH,0
0024F8 0EEA           07815         MOVLW LOW (STR@LB7)
0024FA 6EF6           07816         MOVWF TBLPTRL,0
                      07817         F@CALL PRINT@MSTR
  00002500            07818 F6_000014 EQU $ ; IN [READ TAG.INC] PRINT AT 2,1, "READ TAG...."
002500 0E80           07819         MOVLW 128
002502 6E01           07820         MOVWF BPFH,0
002504 0EC0           07821         MOVLW 192
                      07822         F@CALL LCD@CRS
00250A 0E04           07823         MOVLW HIGH (STR@LB8)
00250C 6EF7           07824         MOVWF TBLPTRLH,0
00250E 0EF8           07825         MOVLW LOW (STR@LB8)
002510 6EF6           07826         MOVWF TBLPTRL,0
                      07827         F@CALL PRINT@MSTR
  00002516            07828 F6_000016 EQU $ ; IN [READ TAG.INC] FLAG = 0                  'USED TO INDICATE A GOOD READ
002516 0102           07829         MOVLB 2
  00000002            07830 RAM_BANK = 2
002518 93E5           07831         BCF _B#VR1,1
  0000251A            07832 F6_000017 EQU $ ; IN [READ TAG.INC] HIGH RFIDENABLE                 ' TURN ON RFID READER
00251A 9895           07833         BCF TRISD,4,0
00251C 8883           07834         BSF PORTD,4,0
  0000251E            07835 F6_000018 EQU $ ; IN [READ TAG.INC] PAUSE 10               'TIME FOR READER TO SETTLE
00251E 0E0A           07836         MOVLW 10
                      07837         F@CALL DL@MS
  00002524            07838 F6_000020 EQU $ ; IN [READ TAG.INC] HSERIN 30000, TIMEOUT, [WAIT (0X82) ,STR TAGIN]  'WAIT FOR HEADER (0X82)
002524 0E75           07839         MOVLW 117
002526 6E06           07840         MOVWF GENH,0
002528 0E30           07841         MOVLW 48
00252A 6E02           07842         MOVWF GEN,0
00252C                07843 PB@LB217
00252C 0100           07844         MOVLB 0
  00000000            07845 RAM_BANK = 0
                      07846         F@CALL HRSIN2
002532 A0D8           07847         BTFSS STATUS,0,0
                      07848         GO@TO TIMEOUT
002538 0882           07849         SUBLW 130
00253A A4D8           07850         BTFSS STATUS,2,0
                      07851         GO@TO PB@LB217
00253E EE03 F0C6      07852         LFSR 0,TAGIN
002542 0E0A           07853         MOVLW 10
002544 6EF3           07854         MOVWF PRODL,0
002546                07855 PB@LB220
002546 80D8           07856         BSF STATUS,0,0
                      07857         F@CALL HRSIN2
00254C A0D8           07858         BTFSS STATUS,0,0
                      07859         GO@TO TIMEOUT
002552 6EEE           07860         MOVWF POSTINC0,0
002554 2EF3           07861         DECFSZ PRODL,F,0
002556 D7F7           07862         BRA PB@LB220
  00002558            07863 F6_000022 EQU $ ; IN [READ TAG.INC] HSERIN [CHECKSUM]                'CHECK SUM
                      07864         F@CALL HRSIN
00255C 0103           07865         MOVLB 3
  00000003            07866 RAM_BANK = 3
00255E 6FE5           07867         MOVWF CHECKSUM
  00002560            07868 F6_000023 EQU $ ; IN [READ TAG.INC] HSERIN [ETX]                      'END OF TRANSMISSION (FOOTER...SHOULD BE 0X83)
                      07869         F@CALL HRSIN
002564 6FE4           07870         MOVWF ETX
  00002566            07871 F6_000024 EQU $ ; IN [READ TAG.INC] LOW RFIDENABLE                ' TURN OFF RFID READER
002566 9895           07872         BCF TRISD,4,0
002568 9883           07873         BCF PORTD,4,0
  0000256A            07874 F6_000025 EQU $ ; IN [READ TAG.INC] IF ETX <> 0X83 THEN  GOTO READ_TAG 'TAG FOOTER WAS NOT CORRECT
00256A 0E83           07875         MOVLW 131
00256C 5DE4           07876         SUBWF ETX,W
00256E 0100           07877         MOVLB 0
  00000000            07878 RAM_BANK = 0
002570 B4D8           07879         BTFSC STATUS,2,0
                      07880         GO@TO BC@LL221
                      07881         F@JUMP READ_TAG
002578                07882 BC@LL221
  00002578            07883 F6_000029 EQU $ ; IN [READ TAG.INC] FOR INDEX = 0 TO 9
002578 0103           07884         MOVLB 3
  00000003            07885 RAM_BANK = 3
00257A 6BF0           07886         CLRF INDEX
00257C                07887 FR@LB223
00257C 0100           07888         MOVLB 0
  00000000            07889 RAM_BANK = 0
00257E 0E0A           07890         MOVLW 10
002580 0103           07891         MOVLB 3
  00000003            07892 RAM_BANK = 3
002582 5DF0           07893         SUBWF INDEX,W
002584 0100           07894         MOVLB 0
  00000000            07895 RAM_BANK = 0
002586 B0D8           07896         BTFSC STATUS,0,0
                      07897         GO@TO NX@LB224
  0000258C            07898 F6_000030 EQU $ ; IN [READ TAG.INC] SELECT TAGIN[INDEX]
00258C EE03 F0C6      07899         LFSR 0,TAGIN
002590 0103           07900         MOVLB 3
  00000003            07901 RAM_BANK = 3
002592 51F0           07902         MOVF INDEX,W
002594 50EB           07903         MOVF PLUSW0,W,0
002596 6E0C           07904         MOVWF PBP#VAR1,0
  00002598            07905 F6_000031 EQU $ ; IN [READ TAG.INC] CASE 0XB0 TO 0XB9
002598 0EB0           07906         MOVLW 176
00259A 5C0C           07907         SUBWF PBP#VAR1,W,0
00259C 0100           07908         MOVLB 0
  00000000            07909 RAM_BANK = 0
00259E A0D8           07910         BTFSS STATUS,0,0
                      07911         GO@TO BC@LL225
0025A4 0EBA           07912         MOVLW 186
0025A6 5C0C           07913         SUBWF PBP#VAR1,W,0
0025A8 B0D8           07914         BTFSC STATUS,0,0
                      07915         GO@TO BC@LL225
  000025AE            07916 F6_000032 EQU $ ; IN [READ TAG.INC] TV1 = TAGIN[INDEX]
0025AE EE03 F0C6      07917         LFSR 0,TAGIN
0025B2 0103           07918         MOVLB 3
  00000003            07919 RAM_BANK = 3
0025B4 51F0           07920         MOVF INDEX,W
0025B6 50EB           07921         MOVF PLUSW0,W,0
0025B8 6FF2           07922         MOVWF TV1
  000025BA            07923 F6_000033 EQU $ ; IN [READ TAG.INC] CLEARBIT TV1 , 7
0025BA 9FF2           07924         BCF TV1,7
  000025BC            07925 F6_000034 EQU $ ; IN [READ TAG.INC] TAGIN[INDEX] = TV1
0025BC EE03 F0C6      07926         LFSR 0,TAGIN
0025C0 51F0           07927         MOVF INDEX,W
0025C2 C3F2 FFEB      07928         MOVFF TV1,PLUSW0
0025C6 0100           07929         MOVLB 0
  00000000            07930 RAM_BANK = 0
                      07931         F@JUMP BC@LL224
0025CC                07932 BC@LL225
  000025CC            07933 F6_000036 EQU $ ; IN [READ TAG.INC] CASE 0X81 TO 0X86
0025CC 0E81           07934         MOVLW 129
0025CE 5C0C           07935         SUBWF PBP#VAR1,W,0
0025D0 A0D8           07936         BTFSS STATUS,0,0
                      07937         GO@TO BC@LL228
0025D6 0E87           07938         MOVLW 135
0025D8 5C0C           07939         SUBWF PBP#VAR1,W,0
0025DA B0D8           07940         BTFSC STATUS,0,0
                      07941         GO@TO BC@LL228
  000025E0            07942 F6_000037 EQU $ ; IN [READ TAG.INC] TV1 = TAGIN[INDEX]
0025E0 EE03 F0C6      07943         LFSR 0,TAGIN
0025E4 0103           07944         MOVLB 3
  00000003            07945 RAM_BANK = 3
0025E6 51F0           07946         MOVF INDEX,W
0025E8 50EB           07947         MOVF PLUSW0,W,0
0025EA 6FF2           07948         MOVWF TV1
  000025EC            07949 F6_000038 EQU $ ; IN [READ TAG.INC] CLEARBIT TV1 , 7
0025EC 9FF2           07950         BCF TV1,7
  000025EE            07951 F6_000039 EQU $ ; IN [READ TAG.INC] SETBIT TV1, 6
0025EE 8DF2           07952         BSF TV1,6
  000025F0            07953 F6_000040 EQU $ ; IN [READ TAG.INC] TAGIN[INDEX] = TV1
0025F0 EE03 F0C6      07954         LFSR 0,TAGIN
0025F4 51F0           07955         MOVF INDEX,W
0025F6 C3F2 FFEB      07956         MOVFF TV1,PLUSW0
  000025FA            07957 F6_000042 EQU $ ; IN [READ TAG.INC] END SELECT
0025FA                07958 BC@LL228
0025FA 0100           07959         MOVLB 0
  00000000            07960 RAM_BANK = 0
0025FC                07961 BC@LL224
  000025FC            07962 F6_000043 EQU $ ; IN [READ TAG.INC] NEXT INDEX
0025FC 0103           07963         MOVLB 3
  00000003            07964 RAM_BANK = 3
0025FE 2BF0           07965         INCF INDEX,F
002600 0100           07966         MOVLB 0
  00000000            07967 RAM_BANK = 0
002602 A4D8           07968         BTFSS STATUS,2,0
                      07969         GO@TO FR@LB223
002606                07970 NX@LB224
  00002606            07971 F6_000044 EQU $ ; IN [READ TAG.INC] CLS
                      07972         F@CALL LCD@CLS
  0000260A            07973 F6_000045 EQU $ ; IN [READ TAG.INC] PRINT "THANK YOU"
00260A 0E05           07974         MOVLW HIGH (STR@LB9)
00260C 6EF7           07975         MOVWF TBLPTRLH,0
00260E 0E06           07976         MOVLW LOW (STR@LB9)
002610 6EF6           07977         MOVWF TBLPTRL,0
                      07978         F@CALL PRINT@MSTR
  00002616            07979 F6_000046 EQU $ ; IN [READ TAG.INC] RETURN
002616 0012           07980         RETURN 0
002618                07981 TIMEOUT
  00002618            07982 F6_000048 EQU $ ; IN [READ TAG.INC] TIMEOUT: LOW RFIDENABLE       ' TURN OFF RFID READER ..NO TAG DETECTED FOR 30 SEC
002618 9895           07983         BCF TRISD,4,0
00261A 9883           07984         BCF PORTD,4,0
  0000261C            07985 F6_000050 EQU $ ; IN [READ TAG.INC] CLS
                      07986         F@CALL LCD@CLS
  00002620            07987 F6_000051 EQU $ ; IN [READ TAG.INC] PRINT AT 1,1, "NO TAG DETECTED"
002620 0E80           07988         MOVLW 128
002622 6E01           07989         MOVWF BPFH,0
                      07990         F@CALL LCD@CRS
002628 0E05           07991         MOVLW HIGH (STR@LB10)
00262A 6EF7           07992         MOVWF TBLPTRLH,0
00262C 0E10           07993         MOVLW LOW (STR@LB10)
00262E 6EF6           07994         MOVWF TBLPTRL,0
                      07995         F@CALL PRINT@MSTR
  00002634            07996 F6_000052 EQU $ ; IN [READ TAG.INC] DELAYMS 2000
002634 0E07           07997         MOVLW 7
002636 6E16           07998         MOVWF PP1H,0
002638 0ED0           07999         MOVLW 208
                      08000         F@CALL DLY@W
  0000263E            08001 F6_000053 EQU $ ; IN [READ TAG.INC] SLEEP
00263E 0003           08002         SLEEP
  00002640            08003 F6_EOF EQU $ ; READ TAG.INC
  00002640            08004 F7_SOF EQU $ ; READ SD.INC
002640                08005 READ_SD
  00002640            08006 F7_000012 EQU $ ; IN [READ SD.INC] MYCOUNT = 0
002640 0103           08007         MOVLB 3
  00000003            08008 RAM_BANK = 3
002642 6BEF           08009         CLRF MYCOUNT
  00002644            08010 F7_000014 EQU $ ; IN [READ SD.INC] FOR INDEX = 0 TO 7
002644 6BF0           08011         CLRF INDEX
002646                08012 FR@LB230
002646 0100           08013         MOVLB 0
  00000000            08014 RAM_BANK = 0
002648 0E08           08015         MOVLW 8
00264A 0103           08016         MOVLB 3
  00000003            08017 RAM_BANK = 3
00264C 5DF0           08018         SUBWF INDEX,W
00264E 0100           08019         MOVLB 0
  00000000            08020 RAM_BANK = 0
002650 B0D8           08021         BTFSC STATUS,0,0
                      08022         GO@TO NX@LB231
  00002656            08023 F7_000015 EQU $ ; IN [READ SD.INC] MODNUM[INDEX] = CREAD 0X9C40 + INDEX    'READ THE MODULE NUMBER INTO VARIABLE
002656 0E40           08024         MOVLW 64
002658 0103           08025         MOVLB 3
  00000003            08026 RAM_BANK = 3
00265A 25F0           08027         ADDWF INDEX,W
00265C 6AF7           08028         CLRF TBLPTRLH,0
00265E 6EF6           08029         MOVWF TBLPTRL,0
002660 0E9C           08030         MOVLW 156
002662 22F7           08031         ADDWFC TBLPTRLH,F,0
002664 6AA6           08032         CLRF EECON1,0
002666 8EA6           08033         BSF EECON1,PP_EEPGD,0
002668 0008           08034         TBLRD*
00266A CFF5 F00C      08035         MOVFF TABLAT,PBP#VAR1
00266E EE03 F0E6      08036         LFSR 0,MODNUM
002672 51F0           08037         MOVF INDEX,W
002674 C00C FFEB      08038         MOVFF PBP#VAR1,PLUSW0
  00002678            08039 F7_000016 EQU $ ; IN [READ SD.INC] NEXT
002678 2BF0           08040         INCF INDEX,F
00267A 0100           08041         MOVLB 0
  00000000            08042 RAM_BANK = 0
00267C A4D8           08043         BTFSS STATUS,2,0
                      08044         GO@TO FR@LB230
002680                08045 NX@LB231
  00002680            08046 F7_000018 EQU $ ; IN [READ SD.INC] SD_FILE_NAME = STR MODNUM          'FILE NAME, UPPER CASE ONLY
002680 EE02 F091      08047         LFSR 0,SD_FILE_NAME
002684 EE13 F0E6      08048         LFSR 1,MODNUM
002688 0E07           08049         MOVLW 7
00268A 6EF3           08050         MOVWF PRODL,0
00268C 50E6           08051         MOVF POSTINC1,W,0
00268E E003           08052         BZ $ + 8
002690 6EEE           08053         MOVWF POSTINC0,0
002692 2EF3           08054         DECFSZ PRODL,F,0
002694 D7FB           08055         BRA $ - 8
002696 6AEF           08056         CLRF INDF0,0
  00002698            08057 F7_000019 EQU $ ; IN [READ SD.INC] SD_FILE_EXT = "TXT"                'FILE EXT, UPPER CASE ONLY!
002698 EE02 F09A      08058         LFSR 0,SD_FILE_EXT
00269C 0E54           08059         MOVLW 84
00269E 6EEE           08060         MOVWF POSTINC0,0
0026A0 0E58           08061         MOVLW 88
0026A2 6EEE           08062         MOVWF POSTINC0,0
0026A4 0E54           08063         MOVLW 84
0026A6 6EEE           08064         MOVWF POSTINC0,0
0026A8 6AEF           08065         CLRF INDF0,0
  000026AA            08066 F7_000020 EQU $ ; IN [READ SD.INC] RESPONSE = SD_OPEN_FILE
  000A                08067 VARIABLE MAX_PARAMS=10,RETURN_TYPE=2,RETURN_VAR=RESPONSE,SD_OPEN_FILE_RETURN=1,PRM_COUNT=0
                      08068         SD_OPEN_FILE 0,0,0,0,0,0,0,0,0,0
  000A                08069 VARIABLE MAX_PARAMS=10,RETURN_TYPE=2,RETURN_VAR=RESPONSE,SD_OPEN_FILE_RETURN=1,PRM_COUNT=0
  000026B2            08070 F7_000021 EQU $ ; IN [READ SD.INC] IF RESPONSE = 1 THEN
0026B2 0E01           08071         MOVLW 1
0026B4 0103           08072         MOVLB 3
  00000003            08073 RAM_BANK = 3
0026B6 5DED           08074         SUBWF RESPONSE,W
0026B8 0100           08075         MOVLB 0
  00000000            08076 RAM_BANK = 0
0026BA A4D8           08077         BTFSS STATUS,2,0
                      08078         GO@TO BC@LL232
  000026C0            08079 F7_000022 EQU $ ; IN [READ SD.INC] CLS
                      08080         F@CALL LCD@CLS
  000026C4            08081 F7_000023 EQU $ ; IN [READ SD.INC] PRINT "FILE NOT FOUND"
0026C4 0E05           08082         MOVLW HIGH (STR@LB11)
0026C6 6EF7           08083         MOVWF TBLPTRLH,0
0026C8 0E20           08084         MOVLW LOW (STR@LB11)
0026CA 6EF6           08085         MOVWF TBLPTRL,0
                      08086         F@CALL PRINT@MSTR
  000026D0            08087 F7_000025 EQU $ ; IN [READ SD.INC] SLEEP
0026D0 0003           08088         SLEEP
  000026D2            08089 F7_000026 EQU $ ; IN [READ SD.INC] ENDIF
0026D2                08090 BC@LL232
  000026D2            08091 F7_000029 EQU $ ; IN [READ SD.INC] USER_POINTER = BUA                   '...WE WRITE THE LOW AND ..
0026D2 0E9C           08092         MOVLW 156
0026D4 0103           08093         MOVLB 3
  00000003            08094 RAM_BANK = 3
0026D6 6FC5           08095         MOVWF USER_POINTERH
0026D8 0E50           08096         MOVLW 80
0026DA 6FC4           08097         MOVWF USER_POINTER
  000026DC            08098 F7_000030 EQU $ ; IN [READ SD.INC] EWRITE UPA_L, [USER_POINTER.LOWBYTE]  '...HIGH BYTES OF THE BASE USER ADDRESS (0X9C500...
0026DC 6AAA           08099         CLRF EEADRH,0
0026DE 6AA9           08100         CLRF EEADR,0
0026E0 51C4           08101         MOVF USER_POINTER,W
                      08102         F@CALL EE@WR@W
  000026E6            08103 F7_000031 EQU $ ; IN [READ SD.INC] EWRITE UPA_H, [USER_POINTER.HIGHBYTE]  '...INTO THE EEPROM POINTER STORAGE SPOT (0X000 AND 0X001)
0026E6 6AAA           08104         CLRF EEADRH,0
0026E8 0E01           08105         MOVLW 1
0026EA 6EA9           08106         MOVWF EEADR,0
0026EC 51C5           08107         MOVF USER_POINTERH,W
                      08108         F@CALL EE@WR@W
  000026F2            08109 F7_000033 EQU $ ; IN [READ SD.INC] PAUSE 2000
0026F2 0E07           08110         MOVLW 7
0026F4 6E16           08111         MOVWF PP1H,0
0026F6 0ED0           08112         MOVLW 208
                      08113         F@CALL DLY@W
  000026FC            08114 F7_000035 EQU $ ; IN [READ SD.INC] WHILE SD_EOF < 1
0026FC                08115 BC@LL233
0026FC 0100           08116         MOVLB 0
  00000000            08117 RAM_BANK = 0
0026FE 96D8           08118         BCF STATUS,3,0
002700 0102           08119         MOVLB 2
  00000002            08120 RAM_BANK = 2
002702 B1E5           08121         BTFSC _B#VR1,0
002704 86D8           08122         BSF STATUS,3,0
002706 0100           08123         MOVLB 0
  00000000            08124 RAM_BANK = 0
                      08125         G@OTO BC@LL234
  0000270E            08126 F7_000037 EQU $ ; IN [READ SD.INC] RESPONSE = SD_READ_BYTE_FROM_FILE
  000A                08127 VARIABLE MAX_PARAMS=10,RETURN_TYPE=2,RETURN_VAR=RESPONSE,SD_READ_BYTE_FROM_FILE_RETURN=1,PRM_COUNT=0
                      08128         SD_READ_BYTE_FROM_FILE 0,0,0,0,0,0,0,0,0,0
  000A                08129 VARIABLE MAX_PARAMS=10,RETURN_TYPE=2,RETURN_VAR=RESPONSE,SD_READ_BYTE_FROM_FILE_RETURN=1,PRM_COUNT=0
  00002716            08130 F7_000039 EQU $ ; IN [READ SD.INC] IF RESPONSE <> 0X5E THEN       'FIRST CHARACTER FOR EACH USER SHOULD BE "^"
002716 0E5E           08131         MOVLW 94
002718 0103           08132         MOVLB 3
  00000003            08133 RAM_BANK = 3
00271A 5DED           08134         SUBWF RESPONSE,W
00271C 0100           08135         MOVLB 0
  00000000            08136 RAM_BANK = 0
00271E B4D8           08137         BTFSC STATUS,2,0
                      08138         GO@TO BC@LL236
  00002724            08139 F7_000040 EQU $ ; IN [READ SD.INC] IF RESPONSE = 0X40 THEN
002724 0E40           08140         MOVLW 64
002726 0103           08141         MOVLB 3
  00000003            08142 RAM_BANK = 3
002728 5DED           08143         SUBWF RESPONSE,W
00272A 0100           08144         MOVLB 0
  00000000            08145 RAM_BANK = 0
00272C A4D8           08146         BTFSS STATUS,2,0
                      08147         GO@TO BC@LL238
  00002732            08148 F7_000042 EQU $ ; IN [READ SD.INC] EWRITE NOU, [MYCOUNT]     'WRITE TOTAL # OF USERS TO EEPROM
002732 6AAA           08149         CLRF EEADRH,0
002734 0E02           08150         MOVLW 2
002736 6EA9           08151         MOVWF EEADR,0
002738 0103           08152         MOVLB 3
  00000003            08153 RAM_BANK = 3
00273A 51EF           08154         MOVF MYCOUNT,W
                      08155         F@CALL EE@WR@W
  00002740            08156 F7_000043 EQU $ ; IN [READ SD.INC] GOTO WRITE_MANAGER     'WE ARE FINISHED WITH THE USER TABLE
002740 0100           08157         MOVLB 0
  00000000            08158 RAM_BANK = 0
                      08159         F@JUMP WRITE_MANAGER
  00002746            08160 F7_000044 EQU $ ; IN [READ SD.INC] RETURN
002746 0012           08161         RETURN 0
  00002748            08162 F7_000045 EQU $ ; IN [READ SD.INC] ENDIF
002748                08163 BC@LL238
  00002748            08164 F7_000046 EQU $ ; IN [READ SD.INC] CLS
                      08165         F@CALL LCD@CLS
  0000274C            08166 F7_000047 EQU $ ; IN [READ SD.INC] PRINT AT 1,1, "NO 5E (^)"
00274C 0E80           08167         MOVLW 128
00274E 6E01           08168         MOVWF BPFH,0
                      08169         F@CALL LCD@CRS
002754 0E05           08170         MOVLW HIGH (STR@LB12)
002756 6EF7           08171         MOVWF TBLPTRLH,0
002758 0E30           08172         MOVLW LOW (STR@LB12)
00275A 6EF6           08173         MOVWF TBLPTRL,0
                      08174         F@CALL PRINT@MSTR
  00002760            08175 F7_000048 EQU $ ; IN [READ SD.INC] PRINT AT 2,1, "STOPPED!"
002760 0E80           08176         MOVLW 128
002762 6E01           08177         MOVWF BPFH,0
002764 0EC0           08178         MOVLW 192
                      08179         F@CALL LCD@CRS
00276A 0E05           08180         MOVLW HIGH (STR@LB13)
00276C 6EF7           08181         MOVWF TBLPTRLH,0
00276E 0E3A           08182         MOVLW LOW (STR@LB13)
002770 6EF6           08183         MOVWF TBLPTRL,0
                      08184         F@CALL PRINT@MSTR
  00002776            08185 F7_000049 EQU $ ; IN [READ SD.INC] PAUSE 3000
002776 0E0B           08186         MOVLW 11
002778 6E16           08187         MOVWF PP1H,0
00277A 0EB8           08188         MOVLW 184
                      08189         F@CALL DLY@W
  00002780            08190 F7_000050 EQU $ ; IN [READ SD.INC] SD_CLOSE_FILE
  000A                08191 VARIABLE MAX_PARAMS=10,SD_CLOSE_FILE_RETURN=0,PRM_COUNT=0
                      08192         SD_CLOSE_FILE 0,0,0,0,0,0,0,0,0,0
  000A                08193 VARIABLE MAX_PARAMS=10,SD_CLOSE_FILE_RETURN=0,PRM_COUNT=0
  00002784            08194 F7_000051 EQU $ ; IN [READ SD.INC] STOP
002784                08195 PB@LB240
002784 D7FF           08196         BRA PB@LB240
  00002786            08197 F7_000052 EQU $ ; IN [READ SD.INC] SLEEP
002786 0003           08198         SLEEP
  00002788            08199 F7_000054 EQU $ ; IN [READ SD.INC] CLS
                      08200         F@CALL LCD@CLS
  0000278C            08201 F7_000055 EQU $ ; IN [READ SD.INC] PRINT RESPONSE,"^ PROBLEM.."      '*******EVENTUALLY WILL FLASH LED *************
00278C 0103           08202         MOVLB 3
  00000003            08203 RAM_BANK = 3
00278E 51ED           08204         MOVF RESPONSE,W
                      08205         F@CALL PRINT
002794 0E05           08206         MOVLW HIGH (STR@LB14)
002796 6EF7           08207         MOVWF TBLPTRLH,0
002798 0E44           08208         MOVLW LOW (STR@LB14)
00279A 6EF6           08209         MOVWF TBLPTRL,0
                      08210         F@CALL PRINT@MSTR
  000027A0            08211 F7_000056 EQU $ ; IN [READ SD.INC] SD_CLOSE_FILE
  000A                08212 VARIABLE MAX_PARAMS=10,SD_CLOSE_FILE_RETURN=0,PRM_COUNT=0
                      08213         SD_CLOSE_FILE 0,0,0,0,0,0,0,0,0,0
  000A                08214 VARIABLE MAX_PARAMS=10,SD_CLOSE_FILE_RETURN=0,PRM_COUNT=0
  000027A4            08215 F7_000057 EQU $ ; IN [READ SD.INC] PAUSE 4000
0027A4 0E0F           08216         MOVLW 15
0027A6 6E16           08217         MOVWF PP1H,0
0027A8 0EA0           08218         MOVLW 160
                      08219         F@CALL DLY@W
  000027AE            08220 F7_000058 EQU $ ; IN [READ SD.INC] SLEEP
0027AE 0003           08221         SLEEP
  000027B0            08222 F7_000059 EQU $ ; IN [READ SD.INC] ENDIF
0027B0                08223 BC@LL236
0027B0 0100           08224         MOVLB 0
  00000000            08225 RAM_BANK = 0
  000027B2            08226 F7_000063 EQU $ ; IN [READ SD.INC] FOR INDEX = 0 TO 3                'NEXT 3 CHARACTERS WILL BE THE USER ID NUMBER
0027B2 0103           08227         MOVLB 3
  00000003            08228 RAM_BANK = 3
0027B4 6BF0           08229         CLRF INDEX
0027B6                08230 FR@LB241
0027B6 0100           08231         MOVLB 0
  00000000            08232 RAM_BANK = 0
0027B8 0E04           08233         MOVLW 4
0027BA 0103           08234         MOVLB 3
  00000003            08235 RAM_BANK = 3
0027BC 5DF0           08236         SUBWF INDEX,W
0027BE 0100           08237         MOVLB 0
  00000000            08238 RAM_BANK = 0
0027C0 B0D8           08239         BTFSC STATUS,0,0
                      08240         GO@TO NX@LB242
  000027C6            08241 F7_000064 EQU $ ; IN [READ SD.INC] UTAG[INDEX] = SD_READ_BYTE_FROM_FILE
  000A                08242 VARIABLE MAX_PARAMS=10,RETURN_TYPE=2,RETURN_VAR=PBP#VAR1,SD_READ_BYTE_FROM_FILE_RETURN=1,PRM_COUNT=0
                      08243         SD_READ_BYTE_FROM_FILE 0,0,0,0,0,0,0,0,0,0
  000A                08244 VARIABLE MAX_PARAMS=10,RETURN_TYPE=2,RETURN_VAR=PBP#VAR1,SD_READ_BYTE_FROM_FILE_RETURN=1,PRM_COUNT=0
0027CE EE03 F0D4      08245         LFSR 0,UTAG
0027D2 0103           08246         MOVLB 3
  00000003            08247 RAM_BANK = 3
0027D4 51F0           08248         MOVF INDEX,W
0027D6 C00C FFEB      08249         MOVFF PBP#VAR1,PLUSW0
  000027DA            08250 F7_000065 EQU $ ; IN [READ SD.INC] NEXT
0027DA 2BF0           08251         INCF INDEX,F
0027DC 0100           08252         MOVLB 0
  00000000            08253 RAM_BANK = 0
0027DE A4D8           08254         BTFSS STATUS,2,0
                      08255         GO@TO FR@LB241
0027E2                08256 NX@LB242
  000027E2            08257 F7_000067 EQU $ ; IN [READ SD.INC] RESPONSE = SD_READ_BYTE_FROM_FILE
  000A                08258 VARIABLE MAX_PARAMS=10,RETURN_TYPE=2,RETURN_VAR=RESPONSE,SD_READ_BYTE_FROM_FILE_RETURN=1,PRM_COUNT=0
                      08259         SD_READ_BYTE_FROM_FILE 0,0,0,0,0,0,0,0,0,0
  000A                08260 VARIABLE MAX_PARAMS=10,RETURN_TYPE=2,RETURN_VAR=RESPONSE,SD_READ_BYTE_FROM_FILE_RETURN=1,PRM_COUNT=0
  000027EA            08261 F7_000069 EQU $ ; IN [READ SD.INC] IF RESPONSE <> 0X3A THEN       'FIRST CHARACTER FOR EACH TAG SHOULD BE ":"
0027EA 0E3A           08262         MOVLW 58
0027EC 0103           08263         MOVLB 3
  00000003            08264 RAM_BANK = 3
0027EE 5DED           08265         SUBWF RESPONSE,W
0027F0 0100           08266         MOVLB 0
  00000000            08267 RAM_BANK = 0
0027F2 B4D8           08268         BTFSC STATUS,2,0
                      08269         GO@TO BC@LL243
  000027F8            08270 F7_000070 EQU $ ; IN [READ SD.INC] CLS
                      08271         F@CALL LCD@CLS
  000027FC            08272 F7_000071 EQU $ ; IN [READ SD.INC] PRINT AT 1,1, "NO 3A (:).."      '*******EVENTUALLY WILL FLASH LED *************
0027FC 0E80           08273         MOVLW 128
0027FE 6E01           08274         MOVWF BPFH,0
                      08275         F@CALL LCD@CRS
002804 0E05           08276         MOVLW HIGH (STR@LB15)
002806 6EF7           08277         MOVWF TBLPTRLH,0
002808 0E50           08278         MOVLW LOW (STR@LB15)
00280A 6EF6           08279         MOVWF TBLPTRL,0
                      08280         F@CALL PRINT@MSTR
  00002810            08281 F7_000072 EQU $ ; IN [READ SD.INC] PRINT AT 2,1, "STOPPED!"
002810 0E80           08282         MOVLW 128
002812 6E01           08283         MOVWF BPFH,0
002814 0EC0           08284         MOVLW 192
                      08285         F@CALL LCD@CRS
00281A 0E05           08286         MOVLW HIGH (STR@LB16)
00281C 6EF7           08287         MOVWF TBLPTRLH,0
00281E 0E5C           08288         MOVLW LOW (STR@LB16)
002820 6EF6           08289         MOVWF TBLPTRL,0
                      08290         F@CALL PRINT@MSTR
  00002826            08291 F7_000073 EQU $ ; IN [READ SD.INC] PAUSE 3000
002826 0E0B           08292         MOVLW 11
002828 6E16           08293         MOVWF PP1H,0
00282A 0EB8           08294         MOVLW 184
                      08295         F@CALL DLY@W
  00002830            08296 F7_000074 EQU $ ; IN [READ SD.INC] SD_CLOSE_FILE
  000A                08297 VARIABLE MAX_PARAMS=10,SD_CLOSE_FILE_RETURN=0,PRM_COUNT=0
                      08298         SD_CLOSE_FILE 0,0,0,0,0,0,0,0,0,0
  000A                08299 VARIABLE MAX_PARAMS=10,SD_CLOSE_FILE_RETURN=0,PRM_COUNT=0
  00002834            08300 F7_000075 EQU $ ; IN [READ SD.INC] SLEEP
002834 0003           08301         SLEEP
  00002836            08302 F7_000076 EQU $ ; IN [READ SD.INC] ENDIF
002836                08303 BC@LL243
  00002836            08304 F7_000078 EQU $ ; IN [READ SD.INC] FOR INDEX = 4 TO 13                'NEXT 9 CHARACTERS WILL BE THE USER TAG NUMBER
002836 0E04           08305         MOVLW 4
002838 0103           08306         MOVLB 3
  00000003            08307 RAM_BANK = 3
00283A 6FF0           08308         MOVWF INDEX
00283C                08309 FR@LB245
00283C 0100           08310         MOVLB 0
  00000000            08311 RAM_BANK = 0
00283E 0E0E           08312         MOVLW 14
002840 0103           08313         MOVLB 3
  00000003            08314 RAM_BANK = 3
002842 5DF0           08315         SUBWF INDEX,W
002844 0100           08316         MOVLB 0
  00000000            08317 RAM_BANK = 0
002846 B0D8           08318         BTFSC STATUS,0,0
                      08319         GO@TO NX@LB246
  0000284C            08320 F7_000079 EQU $ ; IN [READ SD.INC] UTAG[INDEX] = SD_READ_BYTE_FROM_FILE
  000A                08321 VARIABLE MAX_PARAMS=10,RETURN_TYPE=2,RETURN_VAR=PBP#VAR1,SD_READ_BYTE_FROM_FILE_RETURN=1,PRM_COUNT=0
                      08322         SD_READ_BYTE_FROM_FILE 0,0,0,0,0,0,0,0,0,0
  000A                08323 VARIABLE MAX_PARAMS=10,RETURN_TYPE=2,RETURN_VAR=PBP#VAR1,SD_READ_BYTE_FROM_FILE_RETURN=1,PRM_COUNT=0
002854 EE03 F0D4      08324         LFSR 0,UTAG
002858 0103           08325         MOVLB 3
  00000003            08326 RAM_BANK = 3
00285A 51F0           08327         MOVF INDEX,W
00285C C00C FFEB      08328         MOVFF PBP#VAR1,PLUSW0
  00002860            08329 F7_000080 EQU $ ; IN [READ SD.INC] NEXT
002860 2BF0           08330         INCF INDEX,F
002862 0100           08331         MOVLB 0
  00000000            08332 RAM_BANK = 0
002864 A4D8           08333         BTFSS STATUS,2,0
                      08334         GO@TO FR@LB245
002868                08335 NX@LB246
  00002868            08336 F7_000082 EQU $ ; IN [READ SD.INC] UTAG[14] = 0XFF   'DUMMY BYTE
002868 0103           08337         MOVLB 3
  00000003            08338 RAM_BANK = 3
00286A 69E2           08339         SETF UTAG#14
  0000286C            08340 F7_000083 EQU $ ; IN [READ SD.INC] UTAG[15] = 0XFF   'DUMMY BYTE
00286C 69E3           08341         SETF UTAG#15
  0000286E            08342 F7_000084 EQU $ ; IN [READ SD.INC] FOR INDEX = 0 TO 15
00286E 6BF0           08343         CLRF INDEX
002870                08344 FR@LB247
002870 0100           08345         MOVLB 0
  00000000            08346 RAM_BANK = 0
002872 0E10           08347         MOVLW 16
002874 0103           08348         MOVLB 3
  00000003            08349 RAM_BANK = 3
002876 5DF0           08350         SUBWF INDEX,W
002878 0100           08351         MOVLB 0
  00000000            08352 RAM_BANK = 0
00287A B0D8           08353         BTFSC STATUS,0,0
                      08354         GO@TO NX@LB248
  00002880            08355 F7_000085 EQU $ ; IN [READ SD.INC] CWRITE USER_POINTER + INDEX, [UTAG[INDEX]]    'HERE WE ARE WRITING 16 BYTE CHUNK TO THE PROGRAM MEMORY (MUST BE WRITTEN IN 8 OR 16 BYTE CHUNKS)
002880 0103           08356         MOVLB 3
  00000003            08357 RAM_BANK = 3
002882 51F0           08358         MOVF INDEX,W
002884 25C4           08359         ADDWF USER_POINTER,W
002886 6EF6           08360         MOVWF TBLPTRL,0
002888 0E00           08361         MOVLW 0
00288A 21C5           08362         ADDWFC USER_POINTERH,W
00288C 6EF7           08363         MOVWF TBLPTRLH,0
00288E EE03 F0D4      08364         LFSR 0,UTAG
002892 51F0           08365         MOVF INDEX,W
002894 50EB           08366         MOVF PLUSW0,W,0
                      08367         F@CALL C@WRITE
  0000289A            08368 F7_000086 EQU $ ; IN [READ SD.INC] NEXT
00289A 2BF0           08369         INCF INDEX,F
00289C 0100           08370         MOVLB 0
  00000000            08371 RAM_BANK = 0
00289E A4D8           08372         BTFSS STATUS,2,0
                      08373         GO@TO FR@LB247
0028A2                08374 NX@LB248
  000028A2            08375 F7_000087 EQU $ ; IN [READ SD.INC] USER_POINTER = USER_POINTER + 16      'HERE WE WILL UPDATE THE USER POINTER TO REFLECT..
0028A2 0E10           08376         MOVLW 16
0028A4 0103           08377         MOVLB 3
  00000003            08378 RAM_BANK = 3
0028A6 27C4           08379         ADDWF USER_POINTER,F
0028A8 0E00           08380         MOVLW 0
0028AA 23C5           08381         ADDWFC USER_POINTERH,F
  000028AC            08382 F7_000088 EQU $ ; IN [READ SD.INC] EWRITE UPA_L, [USER_POINTER.LOWBYTE]   'OUR PROGRESS SO FAR. IF A PROBLEM ARISES THEN WE HAVE NOT LOST ALL
0028AC 6AAA           08383         CLRF EEADRH,0
0028AE 6AA9           08384         CLRF EEADR,0
0028B0 51C4           08385         MOVF USER_POINTER,W
                      08386         F@CALL EE@WR@W
  000028B6            08387 F7_000089 EQU $ ; IN [READ SD.INC] EWRITE UPA_H, [USER_POINTER.HIGHBYTE]
0028B6 6AAA           08388         CLRF EEADRH,0
0028B8 0E01           08389         MOVLW 1
0028BA 6EA9           08390         MOVWF EEADR,0
0028BC 51C5           08391         MOVF USER_POINTERH,W
                      08392         F@CALL EE@WR@W
  000028C2            08393 F7_000090 EQU $ ; IN [READ SD.INC] INC MYCOUNT    'KEEPS TRACK OF HOW MANY USERS WE HAVE ADDED
0028C2 2BEF           08394         INCF MYCOUNT,F
  000028C4            08395 F7_000092 EQU $ ; IN [READ SD.INC] WEND
0028C4 0100           08396         MOVLB 0
  00000000            08397 RAM_BANK = 0
                      08398         F@JUMP BC@LL233
0028C8                08399 BC@LL234
  000028C8            08400 F7_EOF EQU $ ; READ SD.INC
  000028C8            08401 F8_SOF EQU $ ; WRITE SD.INC
0028C8                08402 WRITE_SD
  000028C8            08403 F8_000016 EQU $ ; IN [WRITE SD.INC] SD_FILE_NAME = STR MODNUM + "W"      'MODULE FILE NAME WITH 'W' APPENDED TO DIFFERENIATE FROM INPUT FILE, UPPER CASE ONLY!
0028C8 EE02 F091      08404         LFSR 0,SD_FILE_NAME
0028CC EE13 F0E6      08405         LFSR 1,MODNUM
0028D0 0E07           08406         MOVLW 7
0028D2 6EF3           08407         MOVWF PRODL,0
0028D4 50E6           08408         MOVF POSTINC1,W,0
0028D6 E003           08409         BZ $ + 8
0028D8 6EEE           08410         MOVWF POSTINC0,0
0028DA 2EF3           08411         DECFSZ PRODL,F,0
0028DC D7FB           08412         BRA $ - 8
0028DE 0E57           08413         MOVLW 87
0028E0 6EEE           08414         MOVWF POSTINC0,0
0028E2 6AEF           08415         CLRF INDF0,0
  000028E4            08416 F8_000017 EQU $ ; IN [WRITE SD.INC] SD_FILE_EXT = "TXT"                  'FILE EXT, UPPER CASE ONLY!
0028E4 EE02 F09A      08417         LFSR 0,SD_FILE_EXT
0028E8 0E54           08418         MOVLW 84
0028EA 6EEE           08419         MOVWF POSTINC0,0
0028EC 0E58           08420         MOVLW 88
0028EE 6EEE           08421         MOVWF POSTINC0,0
0028F0 0E54           08422         MOVLW 84
0028F2 6EEE           08423         MOVWF POSTINC0,0
0028F4 6AEF           08424         CLRF INDF0,0
  000028F6            08425 F8_000018 EQU $ ; IN [WRITE SD.INC] RESPONSE = SD_CHECK_FOR_FILE         'CHECK IF FILE EXISTS ALREADY
  000A                08426 VARIABLE MAX_PARAMS=10,RETURN_TYPE=2,RETURN_VAR=RESPONSE,SD_CHECK_FOR_FILE_RETURN=1,PRM_COUNT=0
                      08427         SD_CHECK_FOR_FILE 0,0,0,0,0,0,0,0,0,0
  000A                08428 VARIABLE MAX_PARAMS=10,RETURN_TYPE=2,RETURN_VAR=RESPONSE,SD_CHECK_FOR_FILE_RETURN=1,PRM_COUNT=0
  000028FE            08429 F8_000019 EQU $ ; IN [WRITE SD.INC] IF RESPONSE = 0 THEN
0028FE 0103           08430         MOVLB 3
  00000003            08431 RAM_BANK = 3
002900 53ED           08432         MOVF RESPONSE,F
002902 0100           08433         MOVLB 0
  00000000            08434 RAM_BANK = 0
002904 A4D8           08435         BTFSS STATUS,2,0
                      08436         GO@TO BC@LL249
  0000290A            08437 F8_000020 EQU $ ; IN [WRITE SD.INC] SD_DELETE_FILE               ' IF FILE EXISTS THEN DELETE IT........
  000A                08438 VARIABLE MAX_PARAMS=10,SD_DELETE_FILE_RETURN=0,PRM_COUNT=0
                      08439         SD_DELETE_FILE 0,0,0,0,0,0,0,0,0,0
  000A                08440 VARIABLE MAX_PARAMS=10,SD_DELETE_FILE_RETURN=0,PRM_COUNT=0
  0000290E            08441 F8_000021 EQU $ ; IN [WRITE SD.INC] ENDIF
00290E                08442 BC@LL249
  0000290E            08443 F8_000022 EQU $ ; IN [WRITE SD.INC] SD_NEW_FILE     'CREATE NEW FILE
  000A                08444 VARIABLE MAX_PARAMS=10,SD_NEW_FILE_RETURN=0,PRM_COUNT=0
                      08445         SD_NEW_FILE 0,0,0,0,0,0,0,0,0,0
  000A                08446 VARIABLE MAX_PARAMS=10,SD_NEW_FILE_RETURN=0,PRM_COUNT=0
  00002912            08447 F8_000023 EQU $ ; IN [WRITE SD.INC] SD_CLOSE_FILE   'CLOSE FILE NOW THAT IS HAS BEEN CREATED... ONLY ONE FILE AT A TIME CAN BE OPENED
  000A                08448 VARIABLE MAX_PARAMS=10,SD_CLOSE_FILE_RETURN=0,PRM_COUNT=0
                      08449         SD_CLOSE_FILE 0,0,0,0,0,0,0,0,0,0
  000A                08450 VARIABLE MAX_PARAMS=10,SD_CLOSE_FILE_RETURN=0,PRM_COUNT=0
  00002916            08451 F8_000025 EQU $ ; IN [WRITE SD.INC] SD_FILE_NAME = STR MODNUM + "W"      'MODULE FILE NAME WITH 'W' APPENDED TO DIFFERENIATE FROM INPUT FILE, UPPER CASE ONLY!
002916 EE02 F091      08452         LFSR 0,SD_FILE_NAME
00291A EE13 F0E6      08453         LFSR 1,MODNUM
00291E 0E07           08454         MOVLW 7
002920 6EF3           08455         MOVWF PRODL,0
002922 50E6           08456         MOVF POSTINC1,W,0
002924 E003           08457         BZ $ + 8
002926 6EEE           08458         MOVWF POSTINC0,0
002928 2EF3           08459         DECFSZ PRODL,F,0
00292A D7FB           08460         BRA $ - 8
00292C 0E57           08461         MOVLW 87
00292E 6EEE           08462         MOVWF POSTINC0,0
002930 6AEF           08463         CLRF INDF0,0
  00002932            08464 F8_000026 EQU $ ; IN [WRITE SD.INC] SD_FILE_EXT = "TXT"                'FILE EXT, UPPER CASE ONLY!
002932 EE02 F09A      08465         LFSR 0,SD_FILE_EXT
002936 0E54           08466         MOVLW 84
002938 6EEE           08467         MOVWF POSTINC0,0
00293A 0E58           08468         MOVLW 88
00293C 6EEE           08469         MOVWF POSTINC0,0
00293E 0E54           08470         MOVLW 84
002940 6EEE           08471         MOVWF POSTINC0,0
002942 6AEF           08472         CLRF INDF0,0
  00002944            08473 F8_000027 EQU $ ; IN [WRITE SD.INC] RESPONSE = SD_APPEND_FILE     'HERE WE ARE GOING TO 'APPEND' THE OUTPUT FILE WITH DATA SO FAR
  000A                08474 VARIABLE MAX_PARAMS=10,RETURN_TYPE=2,RETURN_VAR=RESPONSE,SD_APPEND_FILE_RETURN=1,PRM_COUNT=0
                      08475         SD_APPEND_FILE 0,0,0,0,0,0,0,0,0,0
  000A                08476 VARIABLE MAX_PARAMS=10,RETURN_TYPE=2,RETURN_VAR=RESPONSE,SD_APPEND_FILE_RETURN=1,PRM_COUNT=0
  0000294C            08477 F8_000028 EQU $ ; IN [WRITE SD.INC] IF RESPONSE = 1 THEN
00294C 0E01           08478         MOVLW 1
00294E 0103           08479         MOVLB 3
  00000003            08480 RAM_BANK = 3
002950 5DED           08481         SUBWF RESPONSE,W
002952 0100           08482         MOVLB 0
  00000000            08483 RAM_BANK = 0
002954 A4D8           08484         BTFSS STATUS,2,0
                      08485         GO@TO BC@LL251
  0000295A            08486 F8_000029 EQU $ ; IN [WRITE SD.INC] CLS
                      08487         F@CALL LCD@CLS
  0000295E            08488 F8_000030 EQU $ ; IN [WRITE SD.INC] PRINT "FILE NOT FOUND"
00295E 0E05           08489         MOVLW HIGH (STR@LB17)
002960 6EF7           08490         MOVWF TBLPTRLH,0
002962 0E66           08491         MOVLW LOW (STR@LB17)
002964 6EF6           08492         MOVWF TBLPTRL,0
                      08493         F@CALL PRINT@MSTR
  0000296A            08494 F8_000032 EQU $ ; IN [WRITE SD.INC] SLEEP
00296A 0003           08495         SLEEP
  0000296C            08496 F8_000033 EQU $ ; IN [WRITE SD.INC] ENDIF
00296C                08497 BC@LL251
00296C                08498 CLOSE_FILE
  0000296C            08499 F8_000039 EQU $ ; IN [WRITE SD.INC] SD_CLOSE_FILE                                           'CLOSE FILE
  000A                08500 VARIABLE MAX_PARAMS=10,SD_CLOSE_FILE_RETURN=0,PRM_COUNT=0
                      08501         SD_CLOSE_FILE 0,0,0,0,0,0,0,0,0,0
  000A                08502 VARIABLE MAX_PARAMS=10,SD_CLOSE_FILE_RETURN=0,PRM_COUNT=0
  00002970            08503 F8_000040 EQU $ ; IN [WRITE SD.INC] RETURN
002970 0012           08504         RETURN 0
  00002972            08505 F8_EOF EQU $ ; WRITE SD.INC
  00002972            08506 F9_SOF EQU $ ; INIT SD.INC
002972                08507 INIT_SD
  00002972            08508 F9_000013 EQU $ ; IN [INIT SD.INC] FOR INDEX = 0 TO 2   'WE ALLOW 3 TRIES TO INTIALIZE THE SD CARD
002972 0103           08509         MOVLB 3
  00000003            08510 RAM_BANK = 3
002974 6BF0           08511         CLRF INDEX
002976                08512 FR@LB253
002976 0100           08513         MOVLB 0
  00000000            08514 RAM_BANK = 0
002978 0E03           08515         MOVLW 3
00297A 0103           08516         MOVLB 3
  00000003            08517 RAM_BANK = 3
00297C 5DF0           08518         SUBWF INDEX,W
00297E 0100           08519         MOVLB 0
  00000000            08520 RAM_BANK = 0
002980 B0D8           08521         BTFSC STATUS,0,0
                      08522         GO@TO NX@LB254
  00002986            08523 F9_000015 EQU $ ; IN [INIT SD.INC] RESPONSE = SD_INIT_FS_MSSP SD_SPI_FOSC_04
  0008                08524 VARIABLE PRM_1=8
  0000                08525  VARIABLE PRM_2=0,PRM_3=0,PRM_4=0,PRM_5=0,PRM_6=0,PRM_7=0,PRM_8=0,PRM_9=0,PRM_10=0
  0000                08526 VARIABLE SD_INIT_FS_MSSP_LST_PRM=0
  000A                08527 VARIABLE MAX_PARAMS=10,RETURN_TYPE=2,RETURN_VAR=RESPONSE,SD_INIT_FS_MSSP_RETURN=1,PRM_COUNT=1
                      08528         SD_INIT_FS_MSSP 0,0,0,0,0,0,0,0,0,0
  000A                08529 VARIABLE MAX_PARAMS=10,RETURN_TYPE=2,RETURN_VAR=RESPONSE,SD_INIT_FS_MSSP_RETURN=1,PRM_COUNT=1
  0008                08530 VARIABLE PRM_1=8
  0000                08531  VARIABLE PRM_2=0,PRM_3=0,PRM_4=0,PRM_5=0,PRM_6=0,PRM_7=0,PRM_8=0,PRM_9=0,PRM_10=0
  0000                08532 VARIABLE SD_INIT_FS_MSSP_LST_PRM=0
  000029A0            08533 F9_000016 EQU $ ; IN [INIT SD.INC] IF RESPONSE = 0 THEN
0029A0 0103           08534         MOVLB 3
  00000003            08535 RAM_BANK = 3
0029A2 53ED           08536         MOVF RESPONSE,F
0029A4 0100           08537         MOVLB 0
  00000000            08538 RAM_BANK = 0
0029A6 A4D8           08539         BTFSS STATUS,2,0
                      08540         GO@TO BC@LL255
  000029AC            08541 F9_000017 EQU $ ; IN [INIT SD.INC] RETURN
0029AC 0012           08542         RETURN 0
  000029AE            08543 F9_000018 EQU $ ; IN [INIT SD.INC] ENDIF
0029AE                08544 BC@LL255
  000029AE            08545 F9_000019 EQU $ ; IN [INIT SD.INC] NEXT INDEX     'NEXT TRY TO INTITIALIZE CARD
0029AE 0103           08546         MOVLB 3
  00000003            08547 RAM_BANK = 3
0029B0 2BF0           08548         INCF INDEX,F
0029B2 0100           08549         MOVLB 0
  00000000            08550 RAM_BANK = 0
0029B4 A4D8           08551         BTFSS STATUS,2,0
                      08552         GO@TO FR@LB253
0029B8                08553 NX@LB254
  000029B8            08554 F9_000022 EQU $ ; IN [INIT SD.INC] CLS
                      08555         F@CALL LCD@CLS
  000029BC            08556 F9_000023 EQU $ ; IN [INIT SD.INC] PRINT "NO INIT!"     'EVENTUALLY WE WILL FLASH A LED HERE TO TELL OPERATOR THE INIT FAILED
0029BC 0E05           08557         MOVLW HIGH (STR@LB18)
0029BE 6EF7           08558         MOVWF TBLPTRLH,0
0029C0 0E76           08559         MOVLW LOW (STR@LB18)
0029C2 6EF6           08560         MOVWF TBLPTRL,0
                      08561         F@CALL PRINT@MSTR
  000029C8            08562 F9_000024 EQU $ ; IN [INIT SD.INC] PAUSE 3000
0029C8 0E0B           08563         MOVLW 11
0029CA 6E16           08564         MOVWF PP1H,0
0029CC 0EB8           08565         MOVLW 184
                      08566         F@CALL DLY@W
  000029D2            08567 F9_000025 EQU $ ; IN [INIT SD.INC] RETURN
0029D2 0012           08568         RETURN 0
  000029D4            08569 F9_EOF EQU $ ; INIT SD.INC
  000029D4            08570 F10_SOF EQU $ ; CHECK TAG.INC
0029D4                08571 CHECK_TAG
  000029D4            08572 F10_000004 EQU $ ; IN [CHECK TAG.INC] CHECK_TAG:    RESPONSE = 0        'PROCESS WILL SET RESPONSE TO 1 IF TAG IS FOUND
0029D4 0103           08573         MOVLB 3
  00000003            08574 RAM_BANK = 3
0029D6 6BED           08575         CLRF RESPONSE
  000029D8            08576 F10_000005 EQU $ ; IN [CHECK TAG.INC] IF USER_POINTER = BUA THEN    'THERE ARE NO USER ENTRIES IN THE TABLE
0029D8 51C5           08577         MOVF USER_POINTERH,W
0029DA 0A9C           08578         XORLW 156
0029DC 0E50           08579         MOVLW 80
0029DE B4D8           08580         BTFSC STATUS,2,0
0029E0 19C4           08581         XORWF USER_POINTER,W
0029E2 0100           08582         MOVLB 0
  00000000            08583 RAM_BANK = 0
0029E4 A4D8           08584         BTFSS STATUS,2,0
                      08585         GO@TO BC@LL257
  000029EA            08586 F10_000006 EQU $ ; IN [CHECK TAG.INC] CLS
                      08587         F@CALL LCD@CLS
  000029EE            08588 F10_000007 EQU $ ; IN [CHECK TAG.INC] PRINT "NO USERS"
0029EE 0E05           08589         MOVLW HIGH (STR@LB19)
0029F0 6EF7           08590         MOVWF TBLPTRLH,0
0029F2 0E80           08591         MOVLW LOW (STR@LB19)
0029F4 6EF6           08592         MOVWF TBLPTRL,0
                      08593         F@CALL PRINT@MSTR
  000029FA            08594 F10_000008 EQU $ ; IN [CHECK TAG.INC] PAUSE 2000
0029FA 0E07           08595         MOVLW 7
0029FC 6E16           08596         MOVWF PP1H,0
0029FE 0ED0           08597         MOVLW 208
                      08598         F@CALL DLY@W
  00002A04            08599 F10_000009 EQU $ ; IN [CHECK TAG.INC] RETURN
002A04 0012           08600         RETURN 0
  00002A06            08601 F10_000010 EQU $ ; IN [CHECK TAG.INC] ENDIF
002A06                08602 BC@LL257
  00002A06            08603 F10_000011 EQU $ ; IN [CHECK TAG.INC] WORD_VAR = BUA   ' START SEARCH IN FIRST USER MEMORY SPOT
002A06 0E9C           08604         MOVLW 156
002A08 0103           08605         MOVLB 3
  00000003            08606 RAM_BANK = 3
002A0A 6FF4           08607         MOVWF WORD_VARH
002A0C 0E50           08608         MOVLW 80
002A0E 6FF3           08609         MOVWF WORD_VAR
002A10                08610 NEXTTAG
002A10 0100           08611         MOVLB 0
  00000000            08612 RAM_BANK = 0
  00002A12            08613 F10_000012 EQU $ ; IN [CHECK TAG.INC] NEXTTAG:  INDEX = 0
002A12 0103           08614         MOVLB 3
  00000003            08615 RAM_BANK = 3
002A14 6BF0           08616         CLRF INDEX
  00002A16            08617 F10_000013 EQU $ ; IN [CHECK TAG.INC] RESPONSE = 0     'PROCESS WILL SET FLAG TO 1 IF TAG IS FOUND
002A16 6BED           08618         CLRF RESPONSE
  00002A18            08619 F10_000014 EQU $ ; IN [CHECK TAG.INC] REPEAT      'REPEAT UNTIL ALL TAG DIGITS ARE CHECKED
002A18                08620 BC@LL258
002A18 0100           08621         MOVLB 0
  00000000            08622 RAM_BANK = 0
  00002A1A            08623 F10_000015 EQU $ ; IN [CHECK TAG.INC] TV1 = CREAD TAGOFFSET + WORD_VAR + INDEX   'TAGOFFSET JUMPS OVER USER #
002A1A 0E04           08624         MOVLW 4
002A1C 0103           08625         MOVLB 3
  00000003            08626 RAM_BANK = 3
002A1E 25F3           08627         ADDWF WORD_VAR,W
002A20 6E23           08628         MOVWF PP7,0
002A22 0E00           08629         MOVLW 0
002A24 21F4           08630         ADDWFC WORD_VARH,W
002A26 6E24           08631         MOVWF PP7H,0
002A28 51F0           08632         MOVF INDEX,W
002A2A 2423           08633         ADDWF PP7,W,0
002A2C 6EF6           08634         MOVWF TBLPTRL,0
002A2E 0E00           08635         MOVLW 0
002A30 2024           08636         ADDWFC PP7H,W,0
002A32 6EF7           08637         MOVWF TBLPTRLH,0
002A34 6AA6           08638         CLRF EECON1,0
002A36 8EA6           08639         BSF EECON1,PP_EEPGD,0
002A38 0008           08640         TBLRD*
002A3A CFF5 F3F2      08641         MOVFF TABLAT,TV1
  00002A3E            08642 F10_000016 EQU $ ; IN [CHECK TAG.INC] IF TV1 = TAGIN[INDEX] THEN
002A3E EE03 F0C6      08643         LFSR 0,TAGIN
002A42 51F0           08644         MOVF INDEX,W
002A44 50EB           08645         MOVF PLUSW0,W,0
002A46 6E0C           08646         MOVWF PBP#VAR1,0
002A48 51F2           08647         MOVF TV1,W
002A4A 5C0C           08648         SUBWF PBP#VAR1,W,0
002A4C 0100           08649         MOVLB 0
  00000000            08650 RAM_BANK = 0
002A4E A4D8           08651         BTFSS STATUS,2,0
                      08652         GO@TO BC@LL261
  00002A54            08653 F10_000017 EQU $ ; IN [CHECK TAG.INC] RESPONSE = 1      'DIGITS MATCH
002A54 0E01           08654         MOVLW 1
002A56 0103           08655         MOVLB 3
  00000003            08656 RAM_BANK = 3
002A58 6FED           08657         MOVWF RESPONSE
  00002A5A            08658 F10_000018 EQU $ ; IN [CHECK TAG.INC] INC INDEX      'CHECK NEXT DIGIT
002A5A 2BF0           08659         INCF INDEX,F
002A5C 0100           08660         MOVLB 0
  00000000            08661 RAM_BANK = 0
                      08662         F@JUMP BC@LL262
002A62                08663 BC@LL261
  00002A62            08664 F10_000019 EQU $ ; IN [CHECK TAG.INC] ELSE
  00002A62            08665 F10_000020 EQU $ ; IN [CHECK TAG.INC] RESPONSE = 0     'DIGIT DOES NOT MATCH, THEREFORE
002A62 0103           08666         MOVLB 3
  00000003            08667 RAM_BANK = 3
002A64 6BED           08668         CLRF RESPONSE
  00002A66            08669 F10_000021 EQU $ ; IN [CHECK TAG.INC] INDEX = 10  'WE ARE FINISHED WITH THIS TAG
002A66 0E0A           08670         MOVLW 10
002A68 6FF0           08671         MOVWF INDEX
  00002A6A            08672 F10_000022 EQU $ ; IN [CHECK TAG.INC] ENDIF
002A6A                08673 BC@LL262
002A6A 0100           08674         MOVLB 0
  00000000            08675 RAM_BANK = 0
  00002A6C            08676 F10_000023 EQU $ ; IN [CHECK TAG.INC] UNTIL INDEX > 9
002A6C 0E0A           08677         MOVLW 10
002A6E 0103           08678         MOVLB 3
  00000003            08679 RAM_BANK = 3
002A70 5DF0           08680         SUBWF INDEX,W
002A72 0100           08681         MOVLB 0
  00000000            08682 RAM_BANK = 0
002A74 A0D8           08683         BTFSS STATUS,0,0
                      08684         GO@TO BC@LL258
002A78                08685 BC@LL259
  00002A78            08686 F10_000024 EQU $ ; IN [CHECK TAG.INC] IF RESPONSE = 1 THEN      'WRITE USER OF TAG INTO USERIN VARIABLE ARRAY
002A78 0E01           08687         MOVLW 1
002A7A 0103           08688         MOVLB 3
  00000003            08689 RAM_BANK = 3
002A7C 5DED           08690         SUBWF RESPONSE,W
002A7E 0100           08691         MOVLB 0
  00000000            08692 RAM_BANK = 0
002A80 A4D8           08693         BTFSS STATUS,2,0
                      08694         GO@TO BC@LL264
  00002A86            08695 F10_000025 EQU $ ; IN [CHECK TAG.INC] FOR INDEX = 0 TO 3
002A86 0103           08696         MOVLB 3
  00000003            08697 RAM_BANK = 3
002A88 6BF0           08698         CLRF INDEX
002A8A                08699 FR@LB266
002A8A 0100           08700         MOVLB 0
  00000000            08701 RAM_BANK = 0
002A8C 0E04           08702         MOVLW 4
002A8E 0103           08703         MOVLB 3
  00000003            08704 RAM_BANK = 3
002A90 5DF0           08705         SUBWF INDEX,W
002A92 0100           08706         MOVLB 0
  00000000            08707 RAM_BANK = 0
002A94 B0D8           08708         BTFSC STATUS,0,0
                      08709         GO@TO NX@LB267
  00002A9A            08710 F10_000026 EQU $ ; IN [CHECK TAG.INC] USERIN[INDEX] = CREAD WORD_VAR + INDEX
002A9A 0103           08711         MOVLB 3
  00000003            08712 RAM_BANK = 3
002A9C 51F0           08713         MOVF INDEX,W
002A9E 25F3           08714         ADDWF WORD_VAR,W
002AA0 6EF6           08715         MOVWF TBLPTRL,0
002AA2 0E00           08716         MOVLW 0
002AA4 21F4           08717         ADDWFC WORD_VARH,W
002AA6 6EF7           08718         MOVWF TBLPTRLH,0
002AA8 6AA6           08719         CLRF EECON1,0
002AAA 8EA6           08720         BSF EECON1,PP_EEPGD,0
002AAC 0008           08721         TBLRD*
002AAE CFF5 F00C      08722         MOVFF TABLAT,PBP#VAR1
002AB2 EE03 F0D0      08723         LFSR 0,USERIN
002AB6 51F0           08724         MOVF INDEX,W
002AB8 C00C FFEB      08725         MOVFF PBP#VAR1,PLUSW0
  00002ABC            08726 F10_000027 EQU $ ; IN [CHECK TAG.INC] NEXT
002ABC 2BF0           08727         INCF INDEX,F
002ABE 0100           08728         MOVLB 0
  00000000            08729 RAM_BANK = 0
002AC0 A4D8           08730         BTFSS STATUS,2,0
                      08731         GO@TO FR@LB266
002AC4                08732 NX@LB267
  00002AC4            08733 F10_000028 EQU $ ; IN [CHECK TAG.INC] RETURN
002AC4 0012           08734         RETURN 0
  00002AC6            08735 F10_000029 EQU $ ; IN [CHECK TAG.INC] ENDIF
002AC6                08736 BC@LL264
  00002AC6            08737 F10_000031 EQU $ ; IN [CHECK TAG.INC] WORD_VAR = WORD_VAR + 16
002AC6 0E10           08738         MOVLW 16
002AC8 0103           08739         MOVLB 3
  00000003            08740 RAM_BANK = 3
002ACA 27F3           08741         ADDWF WORD_VAR,F
002ACC 0E00           08742         MOVLW 0
002ACE 23F4           08743         ADDWFC WORD_VARH,F
  00002AD0            08744 F10_000032 EQU $ ; IN [CHECK TAG.INC] IF WORD_VAR = USER_POINTER THEN RETURN
002AD0 51C5           08745         MOVF USER_POINTERH,W
002AD2 5DF4           08746         SUBWF WORD_VARH,W
002AD4 0100           08747         MOVLB 0
  00000000            08748 RAM_BANK = 0
002AD6 A4D8           08749         BTFSS STATUS,2,0
                      08750         GO@TO BC@LL268
002ADC 0103           08751         MOVLB 3
  00000003            08752 RAM_BANK = 3
002ADE 51C4           08753         MOVF USER_POINTER,W
002AE0 5DF3           08754         SUBWF WORD_VAR,W
002AE2 0100           08755         MOVLB 0
  00000000            08756 RAM_BANK = 0
002AE4 A4D8           08757         BTFSS STATUS,2,0
                      08758         GO@TO BC@LL268
002AEA 0012           08759         RETURN 0
002AEC                08760 BC@LL268
  00002AEC            08761 F10_000034 EQU $ ; IN [CHECK TAG.INC] GOTO NEXTTAG
                      08762         F@JUMP NEXTTAG
  00002AEE            08763 F10_EOF EQU $ ; CHECK TAG.INC
  00002AEE            08764 F11_SOF EQU $ ; WRITE_U_H.INC
002AEE                08765 WRITEH
  00002AEE            08766 F11_000012 EQU $ ; IN [WRITE_U_H.INC] FOR INDEX = NUM_UH TO 0 STEP -1          'HERE WE MOVE ALL OLD HISTORY DOWN ONE NOTCH TO READY 1ST PLACE FOR NEW ENTRY
002AEE 0EC8           08767         MOVLW 200
002AF0 0103           08768         MOVLB 3
  00000003            08769 RAM_BANK = 3
002AF2 6FF0           08770         MOVWF INDEX
002AF4                08771 FR@LB270
002AF4 0100           08772         MOVLB 0
  00000000            08773 RAM_BANK = 0
  00002AF6            08774 F11_000013 EQU $ ; IN [WRITE_U_H.INC] FOR INDEX2 = 0 TO 3
002AF6 0103           08775         MOVLB 3
  00000003            08776 RAM_BANK = 3
002AF8 6BF1           08777         CLRF INDEX2
002AFA                08778 FR@LB272
002AFA 0100           08779         MOVLB 0
  00000000            08780 RAM_BANK = 0
002AFC 0E04           08781         MOVLW 4
002AFE 0103           08782         MOVLB 3
  00000003            08783 RAM_BANK = 3
002B00 5DF1           08784         SUBWF INDEX2,W
002B02 0100           08785         MOVLB 0
  00000000            08786 RAM_BANK = 0
002B04 B0D8           08787         BTFSC STATUS,0,0
                      08788         GO@TO NX@LB273
  00002B0A            08789 F11_000014 EQU $ ; IN [WRITE_U_H.INC] TV1 = EREAD (INDEX * 4) + INDEX2 + UHA
002B0A 6A24           08790         CLRF PP7H,0
002B0C C3F0 F023      08791         MOVFF INDEX,PP7
002B10 90D8           08792         BCF STATUS,0,0
002B12 3623           08793         RLCF PP7,F,0
002B14 3624           08794         RLCF PP7H,F,0
002B16 90D8           08795         BCF STATUS,0,0
002B18 3623           08796         RLCF PP7,F,0
002B1A 3624           08797         RLCF PP7H,F,0
002B1C 0103           08798         MOVLB 3
  00000003            08799 RAM_BANK = 3
002B1E 51F1           08800         MOVF INDEX2,W
002B20 2623           08801         ADDWF PP7,F,0
002B22 0E00           08802         MOVLW 0
002B24 2224           08803         ADDWFC PP7H,F,0
002B26 0E10           08804         MOVLW 16
002B28 2423           08805         ADDWF PP7,W,0
002B2A 6EA9           08806         MOVWF EEADR,0
002B2C 0E00           08807         MOVLW 0
002B2E 2024           08808         ADDWFC PP7H,W,0
002B30 6EAA           08809         MOVWF EEADRH,0
                      08810         F@CALL EE@RD@W
002B36 6FF2           08811         MOVWF TV1
  00002B38            08812 F11_000015 EQU $ ; IN [WRITE_U_H.INC] EWRITE (INDEX * 4) + INDEX2 + 4 + UHA,[TV1]
002B38 6A24           08813         CLRF PP7H,0
002B3A C3F0 F023      08814         MOVFF INDEX,PP7
002B3E 90D8           08815         BCF STATUS,0,0
002B40 3623           08816         RLCF PP7,F,0
002B42 3624           08817         RLCF PP7H,F,0
002B44 90D8           08818         BCF STATUS,0,0
002B46 3623           08819         RLCF PP7,F,0
002B48 3624           08820         RLCF PP7H,F,0
002B4A 51F1           08821         MOVF INDEX2,W
002B4C 2623           08822         ADDWF PP7,F,0
002B4E 0E00           08823         MOVLW 0
002B50 2224           08824         ADDWFC PP7H,F,0
002B52 0E04           08825         MOVLW 4
002B54 2623           08826         ADDWF PP7,F,0
002B56 0E00           08827         MOVLW 0
002B58 2224           08828         ADDWFC PP7H,F,0
002B5A 0E10           08829         MOVLW 16
002B5C 2423           08830         ADDWF PP7,W,0
002B5E 6EA9           08831         MOVWF EEADR,0
002B60 0E00           08832         MOVLW 0
002B62 2024           08833         ADDWFC PP7H,W,0
002B64 6EAA           08834         MOVWF EEADRH,0
002B66 51F2           08835         MOVF TV1,W
                      08836         F@CALL EE@WR@W
  00002B6C            08837 F11_000016 EQU $ ; IN [WRITE_U_H.INC] WORD_VAR = (INDEX * 4) + INDEX2 + 4 + UHA
002B6C 6A24           08838         CLRF PP7H,0
002B6E C3F0 F023      08839         MOVFF INDEX,PP7
002B72 90D8           08840         BCF STATUS,0,0
002B74 3623           08841         RLCF PP7,F,0
002B76 3624           08842         RLCF PP7H,F,0
002B78 90D8           08843         BCF STATUS,0,0
002B7A 3623           08844         RLCF PP7,F,0
002B7C 3624           08845         RLCF PP7H,F,0
002B7E 51F1           08846         MOVF INDEX2,W
002B80 2623           08847         ADDWF PP7,F,0
002B82 0E00           08848         MOVLW 0
002B84 2224           08849         ADDWFC PP7H,F,0
002B86 0E04           08850         MOVLW 4
002B88 2623           08851         ADDWF PP7,F,0
002B8A 0E00           08852         MOVLW 0
002B8C 2224           08853         ADDWFC PP7H,F,0
002B8E 0E10           08854         MOVLW 16
002B90 2423           08855         ADDWF PP7,W,0
002B92 6FF3           08856         MOVWF WORD_VAR
002B94 0E00           08857         MOVLW 0
002B96 2024           08858         ADDWFC PP7H,W,0
002B98 6FF4           08859         MOVWF WORD_VARH
  00002B9A            08860 F11_000017 EQU $ ; IN [WRITE_U_H.INC] NEXT INDEX2
002B9A 2BF1           08861         INCF INDEX2,F
002B9C 0100           08862         MOVLB 0
  00000000            08863 RAM_BANK = 0
002B9E A4D8           08864         BTFSS STATUS,2,0
                      08865         GO@TO FR@LB272
002BA2                08866 NX@LB273
  00002BA2            08867 F11_000018 EQU $ ; IN [WRITE_U_H.INC] NEXT INDEX
002BA2 0E01           08868         MOVLW 1
002BA4 0103           08869         MOVLB 3
  00000003            08870 RAM_BANK = 3
002BA6 5FF0           08871         SUBWF INDEX,F
002BA8 0100           08872         MOVLB 0
  00000000            08873 RAM_BANK = 0
002BAA B0D8           08874         BTFSC STATUS,0,0
                      08875         GO@TO FR@LB270
002BAE                08876 NX@LB271
  00002BAE            08877 F11_000020 EQU $ ; IN [WRITE_U_H.INC] CLS
                      08878         F@CALL LCD@CLS
  00002BB2            08879 F11_000022 EQU $ ; IN [WRITE_U_H.INC] FOR INDEX = 0 TO 3               'WRITE USER # TO HISTORY
002BB2 0103           08880         MOVLB 3
  00000003            08881 RAM_BANK = 3
002BB4 6BF0           08882         CLRF INDEX
002BB6                08883 FR@LB274
002BB6 0100           08884         MOVLB 0
  00000000            08885 RAM_BANK = 0
002BB8 0E04           08886         MOVLW 4
002BBA 0103           08887         MOVLB 3
  00000003            08888 RAM_BANK = 3
002BBC 5DF0           08889         SUBWF INDEX,W
002BBE 0100           08890         MOVLB 0
  00000000            08891 RAM_BANK = 0
002BC0 B0D8           08892         BTFSC STATUS,0,0
                      08893         GO@TO NX@LB275
  00002BC6            08894 F11_000023 EQU $ ; IN [WRITE_U_H.INC] TV1 = USERIN[INDEX]
002BC6 EE03 F0D0      08895         LFSR 0,USERIN
002BCA 0103           08896         MOVLB 3
  00000003            08897 RAM_BANK = 3
002BCC 51F0           08898         MOVF INDEX,W
002BCE 50EB           08899         MOVF PLUSW0,W,0
002BD0 6FF2           08900         MOVWF TV1
  00002BD2            08901 F11_000024 EQU $ ; IN [WRITE_U_H.INC] EWRITE UHA + INDEX, [TV1]
002BD2 0E10           08902         MOVLW 16
002BD4 25F0           08903         ADDWF INDEX,W
002BD6 6AAA           08904         CLRF EEADRH,0
002BD8 6EA9           08905         MOVWF EEADR,0
002BDA 36AA           08906         RLCF EEADRH,F,0
002BDC 51F2           08907         MOVF TV1,W
                      08908         F@CALL EE@WR@W
  00002BE2            08909 F11_000025 EQU $ ; IN [WRITE_U_H.INC] NEXT 'INDEX
002BE2 2BF0           08910         INCF INDEX,F
002BE4 0100           08911         MOVLB 0
  00000000            08912 RAM_BANK = 0
002BE6 A4D8           08913         BTFSS STATUS,2,0
                      08914         GO@TO FR@LB274
002BEA                08915 NX@LB275
  00002BEA            08916 F11_000026 EQU $ ; IN [WRITE_U_H.INC] TV1 = EREAD NUM_UHE
002BEA 0E03           08917         MOVLW 3
                      08918         F@CALL EE@RD
002BF0 0103           08919         MOVLB 3
  00000003            08920 RAM_BANK = 3
002BF2 6FF2           08921         MOVWF TV1
  00002BF4            08922 F11_000027 EQU $ ; IN [WRITE_U_H.INC] IF TV1 < NUM_UH THEN
002BF4 0EC8           08923         MOVLW 200
002BF6 5DF2           08924         SUBWF TV1,W
002BF8 0100           08925         MOVLB 0
  00000000            08926 RAM_BANK = 0
002BFA B0D8           08927         BTFSC STATUS,0,0
                      08928         GO@TO BC@LL276
  00002C00            08929 F11_000028 EQU $ ; IN [WRITE_U_H.INC] INC TV1
002C00 0103           08930         MOVLB 3
  00000003            08931 RAM_BANK = 3
002C02 2BF2           08932         INCF TV1,F
  00002C04            08933 F11_000029 EQU $ ; IN [WRITE_U_H.INC] EWRITE NUM_UHE, [TV1]
002C04 6AAA           08934         CLRF EEADRH,0
002C06 0E03           08935         MOVLW 3
002C08 6EA9           08936         MOVWF EEADR,0
002C0A 51F2           08937         MOVF TV1,W
                      08938         F@CALL EE@WR@W
  00002C10            08939 F11_000030 EQU $ ; IN [WRITE_U_H.INC] ENDIF
002C10                08940 BC@LL276
002C10 0100           08941         MOVLB 0
  00000000            08942 RAM_BANK = 0
  00002C12            08943 F11_000031 EQU $ ; IN [WRITE_U_H.INC] RETURN
002C12 0012           08944         RETURN 0
  00002C14            08945 F11_EOF EQU $ ; WRITE_U_H.INC
  00002C14            08946 F12_SOF EQU $ ; WRITE_M_H.INC
002C14                08947 WRITE_MANAGER
  00002C14            08948 F12_000013 EQU $ ; IN [WRITE_M_H.INC] FOR INDEX = NUM_MH TO 0 STEP -1       'HERE WE MOVE ALL OLD HISTORY DOWN ONE NOTCH TO READY 1ST PLACE FOR NEW ENTRY
002C14 0E0A           08949         MOVLW 10
002C16 0103           08950         MOVLB 3
  00000003            08951 RAM_BANK = 3
002C18 6FF0           08952         MOVWF INDEX
002C1A                08953 FR@LB278
002C1A 0100           08954         MOVLB 0
  00000000            08955 RAM_BANK = 0
  00002C1C            08956 F12_000014 EQU $ ; IN [WRITE_M_H.INC] FOR INDEX2 = 0 TO 7
002C1C 0103           08957         MOVLB 3
  00000003            08958 RAM_BANK = 3
002C1E 6BF1           08959         CLRF INDEX2
002C20                08960 FR@LB280
002C20 0100           08961         MOVLB 0
  00000000            08962 RAM_BANK = 0
002C22 0E08           08963         MOVLW 8
002C24 0103           08964         MOVLB 3
  00000003            08965 RAM_BANK = 3
002C26 5DF1           08966         SUBWF INDEX2,W
002C28 0100           08967         MOVLB 0
  00000000            08968 RAM_BANK = 0
002C2A B0D8           08969         BTFSC STATUS,0,0
                      08970         GO@TO NX@LB281
  00002C30            08971 F12_000015 EQU $ ; IN [WRITE_M_H.INC] TV1 = EREAD (INDEX * 8) + INDEX2 + MHA
002C30 6A24           08972         CLRF PP7H,0
002C32 C3F0 F023      08973         MOVFF INDEX,PP7
002C36 5024           08974         MOVF PP7H,W,0
002C38 0D08           08975         MULLW 8
002C3A CFF3 F024      08976         MOVFF PRODL,PP7H
002C3E 5023           08977         MOVF PP7,W,0
002C40 0D08           08978         MULLW 8
002C42 CFF3 F023      08979         MOVFF PRODL,PP7
002C46 50F4           08980         MOVF PRODH,W,0
002C48 2624           08981         ADDWF PP7H,F,0
002C4A 0103           08982         MOVLB 3
  00000003            08983 RAM_BANK = 3
002C4C 51F1           08984         MOVF INDEX2,W
002C4E 2623           08985         ADDWF PP7,F,0
002C50 0E00           08986         MOVLW 0
002C52 2224           08987         ADDWFC PP7H,F,0
002C54 0E90           08988         MOVLW 144
002C56 2423           08989         ADDWF PP7,W,0
002C58 6EA9           08990         MOVWF EEADR,0
002C5A 0E03           08991         MOVLW 3
002C5C 2024           08992         ADDWFC PP7H,W,0
002C5E 6EAA           08993         MOVWF EEADRH,0
                      08994         F@CALL EE@RD@W
002C64 6FF2           08995         MOVWF TV1
  00002C66            08996 F12_000016 EQU $ ; IN [WRITE_M_H.INC] EWRITE (INDEX * 8) + INDEX2 + 8 + MHA,[TV1]
002C66 6A24           08997         CLRF PP7H,0
002C68 C3F0 F023      08998         MOVFF INDEX,PP7
002C6C 5024           08999         MOVF PP7H,W,0
002C6E 0D08           09000         MULLW 8
002C70 CFF3 F024      09001         MOVFF PRODL,PP7H
002C74 5023           09002         MOVF PP7,W,0
002C76 0D08           09003         MULLW 8
002C78 CFF3 F023      09004         MOVFF PRODL,PP7
002C7C 50F4           09005         MOVF PRODH,W,0
002C7E 2624           09006         ADDWF PP7H,F,0
002C80 51F1           09007         MOVF INDEX2,W
002C82 2623           09008         ADDWF PP7,F,0
002C84 0E00           09009         MOVLW 0
002C86 2224           09010         ADDWFC PP7H,F,0
002C88 0E08           09011         MOVLW 8
002C8A 2623           09012         ADDWF PP7,F,0
002C8C 0E00           09013         MOVLW 0
002C8E 2224           09014         ADDWFC PP7H,F,0
002C90 0E90           09015         MOVLW 144
002C92 2423           09016         ADDWF PP7,W,0
002C94 6EA9           09017         MOVWF EEADR,0
002C96 0E03           09018         MOVLW 3
002C98 2024           09019         ADDWFC PP7H,W,0
002C9A 6EAA           09020         MOVWF EEADRH,0
002C9C 51F2           09021         MOVF TV1,W
                      09022         F@CALL EE@WR@W
  00002CA2            09023 F12_000017 EQU $ ; IN [WRITE_M_H.INC] NEXT INDEX2
002CA2 2BF1           09024         INCF INDEX2,F
002CA4 0100           09025         MOVLB 0
  00000000            09026 RAM_BANK = 0
002CA6 A4D8           09027         BTFSS STATUS,2,0
                      09028         GO@TO FR@LB280
002CAA                09029 NX@LB281
  00002CAA            09030 F12_000018 EQU $ ; IN [WRITE_M_H.INC] NEXT INDEX
002CAA 0E01           09031         MOVLW 1
002CAC 0103           09032         MOVLB 3
  00000003            09033 RAM_BANK = 3
002CAE 5FF0           09034         SUBWF INDEX,F
002CB0 0100           09035         MOVLB 0
  00000000            09036 RAM_BANK = 0
002CB2 B0D8           09037         BTFSC STATUS,0,0
                      09038         GO@TO FR@LB278
002CB6                09039 NX@LB279
  00002CB6            09040 F12_000020 EQU $ ; IN [WRITE_M_H.INC] FOR INDEX = 0 TO 7    'WRITE MANAGER ID AND DATE TO HISTORY FILE IN SPOT 1
002CB6 0103           09041         MOVLB 3
  00000003            09042 RAM_BANK = 3
002CB8 6BF0           09043         CLRF INDEX
002CBA                09044 FR@LB282
002CBA 0100           09045         MOVLB 0
  00000000            09046 RAM_BANK = 0
002CBC 0E08           09047         MOVLW 8
002CBE 0103           09048         MOVLB 3
  00000003            09049 RAM_BANK = 3
002CC0 5DF0           09050         SUBWF INDEX,W
002CC2 0100           09051         MOVLB 0
  00000000            09052 RAM_BANK = 0
002CC4 B0D8           09053         BTFSC STATUS,0,0
                      09054         GO@TO NX@LB283
  00002CCA            09055 F12_000021 EQU $ ; IN [WRITE_M_H.INC] RESPONSE = SD_READ_BYTE_FROM_FILE
  000A                09056 VARIABLE MAX_PARAMS=10,RETURN_TYPE=2,RETURN_VAR=RESPONSE,SD_READ_BYTE_FROM_FILE_RETURN=1,PRM_COUNT=0
                      09057         SD_READ_BYTE_FROM_FILE 0,0,0,0,0,0,0,0,0,0
  000A                09058 VARIABLE MAX_PARAMS=10,RETURN_TYPE=2,RETURN_VAR=RESPONSE,SD_READ_BYTE_FROM_FILE_RETURN=1,PRM_COUNT=0
  00002CD2            09059 F12_000022 EQU $ ; IN [WRITE_M_H.INC] EWRITE MHA + INDEX, [RESPONSE]
002CD2 0E90           09060         MOVLW 144
002CD4 0103           09061         MOVLB 3
  00000003            09062 RAM_BANK = 3
002CD6 25F0           09063         ADDWF INDEX,W
002CD8 6AAA           09064         CLRF EEADRH,0
002CDA 6EA9           09065         MOVWF EEADR,0
002CDC 0E03           09066         MOVLW 3
002CDE 22AA           09067         ADDWFC EEADRH,F,0
002CE0 51ED           09068         MOVF RESPONSE,W
                      09069         F@CALL EE@WR@W
  00002CE6            09070 F12_000023 EQU $ ; IN [WRITE_M_H.INC] NEXT 'INDEX
002CE6 2BF0           09071         INCF INDEX,F
002CE8 0100           09072         MOVLB 0
  00000000            09073 RAM_BANK = 0
002CEA A4D8           09074         BTFSS STATUS,2,0
                      09075         GO@TO FR@LB282
002CEE                09076 NX@LB283
  00002CEE            09077 F12_000024 EQU $ ; IN [WRITE_M_H.INC] TV1 = EREAD NUM_MHE
002CEE 0E04           09078         MOVLW 4
                      09079         F@CALL EE@RD
002CF4 0103           09080         MOVLB 3
  00000003            09081 RAM_BANK = 3
002CF6 6FF2           09082         MOVWF TV1
  00002CF8            09083 F12_000025 EQU $ ; IN [WRITE_M_H.INC] IF TV1 < NUM_MH THEN
002CF8 0E0A           09084         MOVLW 10
002CFA 5DF2           09085         SUBWF TV1,W
002CFC 0100           09086         MOVLB 0
  00000000            09087 RAM_BANK = 0
002CFE B0D8           09088         BTFSC STATUS,0,0
                      09089         GO@TO BC@LL284
  00002D04            09090 F12_000026 EQU $ ; IN [WRITE_M_H.INC] INC TV1
002D04 0103           09091         MOVLB 3
  00000003            09092 RAM_BANK = 3
002D06 2BF2           09093         INCF TV1,F
  00002D08            09094 F12_000027 EQU $ ; IN [WRITE_M_H.INC] EWRITE NUM_MHE, [TV1]
002D08 6AAA           09095         CLRF EEADRH,0
002D0A 0E04           09096         MOVLW 4
002D0C 6EA9           09097         MOVWF EEADR,0
002D0E 51F2           09098         MOVF TV1,W
                      09099         F@CALL EE@WR@W
  00002D14            09100 F12_000028 EQU $ ; IN [WRITE_M_H.INC] ENDIF
002D14                09101 BC@LL284
002D14 0100           09102         MOVLB 0
  00000000            09103 RAM_BANK = 0
  00002D16            09104 F12_000029 EQU $ ; IN [WRITE_M_H.INC] SD_CLOSE_FILE
  000A                09105 VARIABLE MAX_PARAMS=10,SD_CLOSE_FILE_RETURN=0,PRM_COUNT=0
                      09106         SD_CLOSE_FILE 0,0,0,0,0,0,0,0,0,0
  000A                09107 VARIABLE MAX_PARAMS=10,SD_CLOSE_FILE_RETURN=0,PRM_COUNT=0
  00002D1A            09108 F12_000030 EQU $ ; IN [WRITE_M_H.INC] CLS
                      09109         F@CALL LCD@CLS
  00002D1E            09110 F12_000031 EQU $ ; IN [WRITE_M_H.INC] PRINT "MANAGER DONE"
002D1E 0E05           09111         MOVLW HIGH (STR@LB20)
002D20 6EF7           09112         MOVWF TBLPTRLH,0
002D22 0E8A           09113         MOVLW LOW (STR@LB20)
002D24 6EF6           09114         MOVWF TBLPTRL,0
                      09115         F@CALL PRINT@MSTR
  00002D2A            09116 F12_000032 EQU $ ; IN [WRITE_M_H.INC] RETURN
002D2A 0012           09117         RETURN 0
  00002D2C            09118 F12_EOF EQU $ ; WRITE_M_H.INC
  00002D2C            09119 F13_SOF EQU $ ; WRITE_M_SD.INC
002D2C                09120 WRITE_M_SD
  00002D2C            09121 F13_000013 EQU $ ; IN [WRITE_M_SD.INC] GOSUB READ_MOD
                      09122         F@CALL READ_MOD
  00002D30            09123 F13_000015 EQU $ ; IN [WRITE_M_SD.INC] SD_FILE_NAME = STR MODNUM          'FILE NAME, UPPER CASE ONLY
002D30 EE02 F091      09124         LFSR 0,SD_FILE_NAME
002D34 EE13 F0E6      09125         LFSR 1,MODNUM
002D38 0E07           09126         MOVLW 7
002D3A 6EF3           09127         MOVWF PRODL,0
002D3C 50E6           09128         MOVF POSTINC1,W,0
002D3E E003           09129         BZ $ + 8
002D40 6EEE           09130         MOVWF POSTINC0,0
002D42 2EF3           09131         DECFSZ PRODL,F,0
002D44 D7FB           09132         BRA $ - 8
002D46 6AEF           09133         CLRF INDF0,0
  00002D48            09134 F13_000016 EQU $ ; IN [WRITE_M_SD.INC] SD_FILE_NAME = SD_FILE_NAME +"M"
002D48 EE02 F091      09135         LFSR 0,SD_FILE_NAME
002D4C 50EE           09136         MOVF POSTINC0,W,0
002D4E E1FE           09137         BNZ $ - 2
002D50 52ED           09138         MOVF POSTDEC0,F,0
002D52 0E4D           09139         MOVLW 77
002D54 6EEE           09140         MOVWF POSTINC0,0
002D56 6AEF           09141         CLRF INDF0,0
  00002D58            09142 F13_000017 EQU $ ; IN [WRITE_M_SD.INC] SD_FILE_EXT = "TXT"                'FILE EXT, UPPER CASE ONLY!
002D58 EE02 F09A      09143         LFSR 0,SD_FILE_EXT
002D5C 0E54           09144         MOVLW 84
002D5E 6EEE           09145         MOVWF POSTINC0,0
002D60 0E58           09146         MOVLW 88
002D62 6EEE           09147         MOVWF POSTINC0,0
002D64 0E54           09148         MOVLW 84
002D66 6EEE           09149         MOVWF POSTINC0,0
002D68 6AEF           09150         CLRF INDF0,0
  00002D6A            09151 F13_000019 EQU $ ; IN [WRITE_M_SD.INC] SD_DELETE_FILE          'IF FILE ALREADY EXISTS THEN DELETE IT..
  000A                09152 VARIABLE MAX_PARAMS=10,SD_DELETE_FILE_RETURN=0,PRM_COUNT=0
                      09153         SD_DELETE_FILE 0,0,0,0,0,0,0,0,0,0
  000A                09154 VARIABLE MAX_PARAMS=10,SD_DELETE_FILE_RETURN=0,PRM_COUNT=0
  00002D6E            09155 F13_000022 EQU $ ; IN [WRITE_M_SD.INC] SD_NEW_FILE
  000A                09156 VARIABLE MAX_PARAMS=10,SD_NEW_FILE_RETURN=0,PRM_COUNT=0
                      09157         SD_NEW_FILE 0,0,0,0,0,0,0,0,0,0
  000A                09158 VARIABLE MAX_PARAMS=10,SD_NEW_FILE_RETURN=0,PRM_COUNT=0
  00002D72            09159 F13_000023 EQU $ ; IN [WRITE_M_SD.INC] INDEX2 = EREAD NUM_MHE   'LOAD NUMBER OF MANAGER HISTORY ENTRIES
002D72 0E04           09160         MOVLW 4
                      09161         F@CALL EE@RD
002D78 0103           09162         MOVLB 3
  00000003            09163 RAM_BANK = 3
002D7A 6FF1           09164         MOVWF INDEX2
  00002D7C            09165 F13_000024 EQU $ ; IN [WRITE_M_SD.INC] MYNUM = STR$ (DEC,INDEX2) 'CHANGE NUMBER INTO A STRING TO SEND TO SD CARD
002D7C EE03 F0F5      09166         LFSR 0,MYNUM
002D80 0E02           09167         MOVLW 2
002D82 6E01           09168         MOVWF BPFH,0
002D84 51F1           09169         MOVF INDEX2,W
                      09170         F@CALL OUT@DECB
002D8A 6AEF           09171         CLRF INDF0,0
  00002D8C            09172 F13_000025 EQU $ ; IN [WRITE_M_SD.INC] IF INDEX2 = 0 THEN  'IF THERE IS NO MANAGER HISTORY THEN..
002D8C 53F1           09173         MOVF INDEX2,F
002D8E 0100           09174         MOVLB 0
  00000000            09175 RAM_BANK = 0
002D90 A4D8           09176         BTFSS STATUS,2,0
                      09177         GO@TO BC@LL286
  00002D96            09178 F13_000026 EQU $ ; IN [WRITE_M_SD.INC] SD_IO_STRING = "NO MANAGER HISTORY"
002D96 EE02 F0FB      09179         LFSR 0,SD_IO_STRING
002D9A 0E05           09180         MOVLW HIGH (STR@LB21)
002D9C 6EF7           09181         MOVWF TBLPTRLH,0
002D9E 0E98           09182         MOVLW LOW (STR@LB21)
002DA0 6EF6           09183         MOVWF TBLPTRL,0
                      09184         F@CALL LOAD@MSTR
002DA6 6AEF           09185         CLRF INDF0,0
  00002DA8            09186 F13_000027 EQU $ ; IN [WRITE_M_SD.INC] SD_WRITE_STRING_TO_FILE
  000A                09187 VARIABLE MAX_PARAMS=10,SD_WRITE_STRING_TO_FILE_RETURN=0,PRM_COUNT=0
                      09188         SD_WRITE_STRING_TO_FILE 0,0,0,0,0,0,0,0,0,0
  000A                09189 VARIABLE MAX_PARAMS=10,SD_WRITE_STRING_TO_FILE_RETURN=0,PRM_COUNT=0
  00002DAC            09190 F13_000028 EQU $ ; IN [WRITE_M_SD.INC] SD_CLOSE_FILE
  000A                09191 VARIABLE MAX_PARAMS=10,SD_CLOSE_FILE_RETURN=0,PRM_COUNT=0
                      09192         SD_CLOSE_FILE 0,0,0,0,0,0,0,0,0,0
  000A                09193 VARIABLE MAX_PARAMS=10,SD_CLOSE_FILE_RETURN=0,PRM_COUNT=0
  00002DB0            09194 F13_000029 EQU $ ; IN [WRITE_M_SD.INC] RETURN
002DB0 0012           09195         RETURN 0
  00002DB2            09196 F13_000030 EQU $ ; IN [WRITE_M_SD.INC] ENDIF
002DB2                09197 BC@LL286
  00002DB2            09198 F13_000031 EQU $ ; IN [WRITE_M_SD.INC] SD_IO_STRING = MYNUM   'WRITE NUMBER OF MANGAGER HISTORY ENTRIES TO SD
002DB2 EE02 F0FB      09199         LFSR 0,SD_IO_STRING
002DB6 EE13 F0F5      09200         LFSR 1,MYNUM
002DBA 0E03           09201         MOVLW 3
002DBC 52E7           09202         MOVF INDF1,F,0
002DBE E004           09203         BZ $ + 10
002DC0 CFE6 FFEE      09204         MOVFF POSTINC1,POSTINC0
002DC4 2EE8           09205         DECFSZ WREG,F,0
002DC6 D7FA           09206         BRA $ - 10
002DC8 6AEF           09207         CLRF INDF0,0
  00002DCA            09208 F13_000032 EQU $ ; IN [WRITE_M_SD.INC] SD_WRITE_STRING_TO_FILE
  000A                09209 VARIABLE MAX_PARAMS=10,SD_WRITE_STRING_TO_FILE_RETURN=0,PRM_COUNT=0
                      09210         SD_WRITE_STRING_TO_FILE 0,0,0,0,0,0,0,0,0,0
  000A                09211 VARIABLE MAX_PARAMS=10,SD_WRITE_STRING_TO_FILE_RETURN=0,PRM_COUNT=0
  00002DCE            09212 F13_000033 EQU $ ; IN [WRITE_M_SD.INC] SD_WRITE_BYTE_TO_FILE "|"  ' ADD A SEPARATOR
  0008                09213 VARIABLE PRM_1=8
  0000                09214  VARIABLE PRM_2=0,PRM_3=0,PRM_4=0,PRM_5=0,PRM_6=0,PRM_7=0,PRM_8=0,PRM_9=0,PRM_10=0
  0000                09215 VARIABLE SD_WRITE_BYTE_TO_FILE_LST_PRM=0
  000A                09216 VARIABLE MAX_PARAMS=10,SD_WRITE_BYTE_TO_FILE_RETURN=0,PRM_COUNT=1
                      09217         SD_WRITE_BYTE_TO_FILE 124,0,0,0,0,0,0,0,0,0
  000A                09218 VARIABLE MAX_PARAMS=10,SD_WRITE_BYTE_TO_FILE_RETURN=0,PRM_COUNT=1
  0008                09219 VARIABLE PRM_1=8
  0000                09220  VARIABLE PRM_2=0,PRM_3=0,PRM_4=0,PRM_5=0,PRM_6=0,PRM_7=0,PRM_8=0,PRM_9=0,PRM_10=0
  0000                09221 VARIABLE SD_WRITE_BYTE_TO_FILE_LST_PRM=0
  00002DD8            09222 F13_000035 EQU $ ; IN [WRITE_M_SD.INC] MYCOUNT = 0
002DD8 0103           09223         MOVLB 3
  00000003            09224 RAM_BANK = 3
002DDA 6BEF           09225         CLRF MYCOUNT
  00002DDC            09226 F13_000036 EQU $ ; IN [WRITE_M_SD.INC] REPEAT
002DDC                09227 BC@LL287
002DDC 0100           09228         MOVLB 0
  00000000            09229 RAM_BANK = 0
  00002DDE            09230 F13_000037 EQU $ ; IN [WRITE_M_SD.INC] FOR INDEX = 0 TO 1
002DDE 0103           09231         MOVLB 3
  00000003            09232 RAM_BANK = 3
002DE0 6BF0           09233         CLRF INDEX
002DE2                09234 FR@LB290
002DE2 0100           09235         MOVLB 0
  00000000            09236 RAM_BANK = 0
002DE4 0E02           09237         MOVLW 2
002DE6 0103           09238         MOVLB 3
  00000003            09239 RAM_BANK = 3
002DE8 5DF0           09240         SUBWF INDEX,W
002DEA 0100           09241         MOVLB 0
  00000000            09242 RAM_BANK = 0
002DEC B0D8           09243         BTFSC STATUS,0,0
                      09244         GO@TO NX@LB291
  00002DF2            09245 F13_000038 EQU $ ; IN [WRITE_M_SD.INC] TV1 = EREAD MHA + MYCOUNT * 8 + INDEX
002DF2 0E03           09246         MOVLW 3
002DF4 6E24           09247         MOVWF PP7H,0
002DF6 0E90           09248         MOVLW 144
002DF8 6E23           09249         MOVWF PP7,0
002DFA 6A28           09250         CLRF PP8H,0
002DFC C3EF F027      09251         MOVFF MYCOUNT,PP8
002E00 5028           09252         MOVF PP8H,W,0
002E02 0D08           09253         MULLW 8
002E04 CFF3 F028      09254         MOVFF PRODL,PP8H
002E08 5027           09255         MOVF PP8,W,0
002E0A 0D08           09256         MULLW 8
002E0C CFF3 F027      09257         MOVFF PRODL,PP8
002E10 50F4           09258         MOVF PRODH,W,0
002E12 2628           09259         ADDWF PP8H,F,0
002E14 5027           09260         MOVF PP8,W,0
002E16 2623           09261         ADDWF PP7,F,0
002E18 5028           09262         MOVF PP8H,W,0
002E1A 2224           09263         ADDWFC PP7H,F,0
002E1C 0103           09264         MOVLB 3
  00000003            09265 RAM_BANK = 3
002E1E 51F0           09266         MOVF INDEX,W
002E20 2423           09267         ADDWF PP7,W,0
002E22 6EA9           09268         MOVWF EEADR,0
002E24 0E00           09269         MOVLW 0
002E26 2024           09270         ADDWFC PP7H,W,0
002E28 6EAA           09271         MOVWF EEADRH,0
                      09272         F@CALL EE@RD@W
002E2E 6FF2           09273         MOVWF TV1
  00002E30            09274 F13_000039 EQU $ ; IN [WRITE_M_SD.INC] SD_WRITE_BYTE_TO_FILE TV1
002E30 0100           09275         MOVLB 0
  00000000            09276 RAM_BANK = 0
  0002                09277 VARIABLE PRM_1=2
  0000                09278  VARIABLE PRM_2=0,PRM_3=0,PRM_4=0,PRM_5=0,PRM_6=0,PRM_7=0,PRM_8=0,PRM_9=0,PRM_10=0
  0001                09279 VARIABLE SD_WRITE_BYTE_TO_FILE_LST_PRM=1,LST_PRM_TYPE=2,LST_PRM_NAME=TV1
  000A                09280 VARIABLE MAX_PARAMS=10,SD_WRITE_BYTE_TO_FILE_RETURN=0,PRM_COUNT=1
                      09281         SD_WRITE_BYTE_TO_FILE TV1,0,0,0,0,0,0,0,0,0
  000A                09282 VARIABLE MAX_PARAMS=10,SD_WRITE_BYTE_TO_FILE_RETURN=0,PRM_COUNT=1
  0002                09283 VARIABLE PRM_1=2
  0000                09284  VARIABLE PRM_2=0,PRM_3=0,PRM_4=0,PRM_5=0,PRM_6=0,PRM_7=0,PRM_8=0,PRM_9=0,PRM_10=0
  0001                09285 VARIABLE SD_WRITE_BYTE_TO_FILE_LST_PRM=1,LST_PRM_TYPE=2,LST_PRM_NAME=TV1
  00002E3A            09286 F13_000040 EQU $ ; IN [WRITE_M_SD.INC] NEXT INDEX
002E3A 0103           09287         MOVLB 3
  00000003            09288 RAM_BANK = 3
002E3C 2BF0           09289         INCF INDEX,F
002E3E 0100           09290         MOVLB 0
  00000000            09291 RAM_BANK = 0
002E40 A4D8           09292         BTFSS STATUS,2,0
                      09293         GO@TO FR@LB290
002E44                09294 NX@LB291
  00002E44            09295 F13_000041 EQU $ ; IN [WRITE_M_SD.INC] SD_WRITE_BYTE_TO_FILE ":"  ' ADD A SEPARATOR
  0008                09296 VARIABLE PRM_1=8
  0000                09297  VARIABLE PRM_2=0,PRM_3=0,PRM_4=0,PRM_5=0,PRM_6=0,PRM_7=0,PRM_8=0,PRM_9=0,PRM_10=0
  0000                09298 VARIABLE SD_WRITE_BYTE_TO_FILE_LST_PRM=0
  000A                09299 VARIABLE MAX_PARAMS=10,SD_WRITE_BYTE_TO_FILE_RETURN=0,PRM_COUNT=1
                      09300         SD_WRITE_BYTE_TO_FILE 58,0,0,0,0,0,0,0,0,0
  000A                09301 VARIABLE MAX_PARAMS=10,SD_WRITE_BYTE_TO_FILE_RETURN=0,PRM_COUNT=1
  0008                09302 VARIABLE PRM_1=8
  0000                09303  VARIABLE PRM_2=0,PRM_3=0,PRM_4=0,PRM_5=0,PRM_6=0,PRM_7=0,PRM_8=0,PRM_9=0,PRM_10=0
  0000                09304 VARIABLE SD_WRITE_BYTE_TO_FILE_LST_PRM=0
  00002E4E            09305 F13_000042 EQU $ ; IN [WRITE_M_SD.INC] FOR INDEX = 2 TO 7
002E4E 0E02           09306         MOVLW 2
002E50 0103           09307         MOVLB 3
  00000003            09308 RAM_BANK = 3
002E52 6FF0           09309         MOVWF INDEX
002E54                09310 FR@LB292
002E54 0100           09311         MOVLB 0
  00000000            09312 RAM_BANK = 0
002E56 0E08           09313         MOVLW 8
002E58 0103           09314         MOVLB 3
  00000003            09315 RAM_BANK = 3
002E5A 5DF0           09316         SUBWF INDEX,W
002E5C 0100           09317         MOVLB 0
  00000000            09318 RAM_BANK = 0
002E5E B0D8           09319         BTFSC STATUS,0,0
                      09320         GO@TO NX@LB293
  00002E64            09321 F13_000043 EQU $ ; IN [WRITE_M_SD.INC] TV1 = EREAD MHA + MYCOUNT * 8 + INDEX
002E64 0E03           09322         MOVLW 3
002E66 6E24           09323         MOVWF PP7H,0
002E68 0E90           09324         MOVLW 144
002E6A 6E23           09325         MOVWF PP7,0
002E6C 6A28           09326         CLRF PP8H,0
002E6E C3EF F027      09327         MOVFF MYCOUNT,PP8
002E72 5028           09328         MOVF PP8H,W,0
002E74 0D08           09329         MULLW 8
002E76 CFF3 F028      09330         MOVFF PRODL,PP8H
002E7A 5027           09331         MOVF PP8,W,0
002E7C 0D08           09332         MULLW 8
002E7E CFF3 F027      09333         MOVFF PRODL,PP8
002E82 50F4           09334         MOVF PRODH,W,0
002E84 2628           09335         ADDWF PP8H,F,0
002E86 5027           09336         MOVF PP8,W,0
002E88 2623           09337         ADDWF PP7,F,0
002E8A 5028           09338         MOVF PP8H,W,0
002E8C 2224           09339         ADDWFC PP7H,F,0
002E8E 0103           09340         MOVLB 3
  00000003            09341 RAM_BANK = 3
002E90 51F0           09342         MOVF INDEX,W
002E92 2423           09343         ADDWF PP7,W,0
002E94 6EA9           09344         MOVWF EEADR,0
002E96 0E00           09345         MOVLW 0
002E98 2024           09346         ADDWFC PP7H,W,0
002E9A 6EAA           09347         MOVWF EEADRH,0
                      09348         F@CALL EE@RD@W
002EA0 6FF2           09349         MOVWF TV1
  00002EA2            09350 F13_000044 EQU $ ; IN [WRITE_M_SD.INC] SD_WRITE_BYTE_TO_FILE TV1
002EA2 0100           09351         MOVLB 0
  00000000            09352 RAM_BANK = 0
  0002                09353 VARIABLE PRM_1=2
  0000                09354  VARIABLE PRM_2=0,PRM_3=0,PRM_4=0,PRM_5=0,PRM_6=0,PRM_7=0,PRM_8=0,PRM_9=0,PRM_10=0
  0001                09355 VARIABLE SD_WRITE_BYTE_TO_FILE_LST_PRM=1,LST_PRM_TYPE=2,LST_PRM_NAME=TV1
  000A                09356 VARIABLE MAX_PARAMS=10,SD_WRITE_BYTE_TO_FILE_RETURN=0,PRM_COUNT=1
                      09357         SD_WRITE_BYTE_TO_FILE TV1,0,0,0,0,0,0,0,0,0
  000A                09358 VARIABLE MAX_PARAMS=10,SD_WRITE_BYTE_TO_FILE_RETURN=0,PRM_COUNT=1
  0002                09359 VARIABLE PRM_1=2
  0000                09360  VARIABLE PRM_2=0,PRM_3=0,PRM_4=0,PRM_5=0,PRM_6=0,PRM_7=0,PRM_8=0,PRM_9=0,PRM_10=0
  0001                09361 VARIABLE SD_WRITE_BYTE_TO_FILE_LST_PRM=1,LST_PRM_TYPE=2,LST_PRM_NAME=TV1
  00002EAC            09362 F13_000045 EQU $ ; IN [WRITE_M_SD.INC] NEXT INDEX
002EAC 0103           09363         MOVLB 3
  00000003            09364 RAM_BANK = 3
002EAE 2BF0           09365         INCF INDEX,F
002EB0 0100           09366         MOVLB 0
  00000000            09367 RAM_BANK = 0
002EB2 A4D8           09368         BTFSS STATUS,2,0
                      09369         GO@TO FR@LB292
002EB6                09370 NX@LB293
  00002EB6            09371 F13_000046 EQU $ ; IN [WRITE_M_SD.INC] SD_WRITE_BYTE_TO_FILE "/"  ' ADD A SEPARATOR
  0008                09372 VARIABLE PRM_1=8
  0000                09373  VARIABLE PRM_2=0,PRM_3=0,PRM_4=0,PRM_5=0,PRM_6=0,PRM_7=0,PRM_8=0,PRM_9=0,PRM_10=0
  0000                09374 VARIABLE SD_WRITE_BYTE_TO_FILE_LST_PRM=0
  000A                09375 VARIABLE MAX_PARAMS=10,SD_WRITE_BYTE_TO_FILE_RETURN=0,PRM_COUNT=1
                      09376         SD_WRITE_BYTE_TO_FILE 47,0,0,0,0,0,0,0,0,0
  000A                09377 VARIABLE MAX_PARAMS=10,SD_WRITE_BYTE_TO_FILE_RETURN=0,PRM_COUNT=1
  0008                09378 VARIABLE PRM_1=8
  0000                09379  VARIABLE PRM_2=0,PRM_3=0,PRM_4=0,PRM_5=0,PRM_6=0,PRM_7=0,PRM_8=0,PRM_9=0,PRM_10=0
  0000                09380 VARIABLE SD_WRITE_BYTE_TO_FILE_LST_PRM=0
  00002EC0            09381 F13_000047 EQU $ ; IN [WRITE_M_SD.INC] INC MYCOUNT
002EC0 0103           09382         MOVLB 3
  00000003            09383 RAM_BANK = 3
002EC2 2BEF           09384         INCF MYCOUNT,F
  00002EC4            09385 F13_000048 EQU $ ; IN [WRITE_M_SD.INC] UNTIL MYCOUNT = INDEX2
002EC4 51EF           09386         MOVF MYCOUNT,W
002EC6 5DF1           09387         SUBWF INDEX2,W
002EC8 0100           09388         MOVLB 0
  00000000            09389 RAM_BANK = 0
002ECA A4D8           09390         BTFSS STATUS,2,0
                      09391         GO@TO BC@LL287
002ECE                09392 BC@LL288
  00002ECE            09393 F13_000049 EQU $ ; IN [WRITE_M_SD.INC] SD_CLOSE_FILE
  000A                09394 VARIABLE MAX_PARAMS=10,SD_CLOSE_FILE_RETURN=0,PRM_COUNT=0
                      09395         SD_CLOSE_FILE 0,0,0,0,0,0,0,0,0,0
  000A                09396 VARIABLE MAX_PARAMS=10,SD_CLOSE_FILE_RETURN=0,PRM_COUNT=0
  00002ED2            09397 F13_000050 EQU $ ; IN [WRITE_M_SD.INC] RETURN
002ED2 0012           09398         RETURN 0
  00002ED4            09399 F13_EOF EQU $ ; WRITE_M_SD.INC
  00002ED4            09400 F14_SOF EQU $ ; WRITE_USERS_SD.INC
002ED4                09401 WRITE_USERS_SD
  00002ED4            09402 F14_000014 EQU $ ; IN [WRITE_USERS_SD.INC] GOSUB READ_MOD 'GET THE MODULE # FROM CHIP
                      09403         F@CALL READ_MOD
  00002ED8            09404 F14_000015 EQU $ ; IN [WRITE_USERS_SD.INC] SD_FILE_NAME = STR MODNUM          'FILE NAME, UPPER CASE ONLY
002ED8 EE02 F091      09405         LFSR 0,SD_FILE_NAME
002EDC EE13 F0E6      09406         LFSR 1,MODNUM
002EE0 0E07           09407         MOVLW 7
002EE2 6EF3           09408         MOVWF PRODL,0
002EE4 50E6           09409         MOVF POSTINC1,W,0
002EE6 E003           09410         BZ $ + 8
002EE8 6EEE           09411         MOVWF POSTINC0,0
002EEA 2EF3           09412         DECFSZ PRODL,F,0
002EEC D7FB           09413         BRA $ - 8
002EEE 6AEF           09414         CLRF INDF0,0
  00002EF0            09415 F14_000016 EQU $ ; IN [WRITE_USERS_SD.INC] SD_FILE_NAME = SD_FILE_NAME + "R"
002EF0 EE02 F091      09416         LFSR 0,SD_FILE_NAME
002EF4 50EE           09417         MOVF POSTINC0,W,0
002EF6 E1FE           09418         BNZ $ - 2
002EF8 52ED           09419         MOVF POSTDEC0,F,0
002EFA 0E52           09420         MOVLW 82
002EFC 6EEE           09421         MOVWF POSTINC0,0
002EFE 6AEF           09422         CLRF INDF0,0
  00002F00            09423 F14_000017 EQU $ ; IN [WRITE_USERS_SD.INC] SD_FILE_EXT = "TXT"
002F00 EE02 F09A      09424         LFSR 0,SD_FILE_EXT
002F04 0E54           09425         MOVLW 84
002F06 6EEE           09426         MOVWF POSTINC0,0
002F08 0E58           09427         MOVLW 88
002F0A 6EEE           09428         MOVWF POSTINC0,0
002F0C 0E54           09429         MOVLW 84
002F0E 6EEE           09430         MOVWF POSTINC0,0
002F10 6AEF           09431         CLRF INDF0,0
  00002F12            09432 F14_000020 EQU $ ; IN [WRITE_USERS_SD.INC] SD_DELETE_FILE          'IF IT DOES EXIST THEN DELETE IT..
  000A                09433 VARIABLE MAX_PARAMS=10,SD_DELETE_FILE_RETURN=0,PRM_COUNT=0
                      09434         SD_DELETE_FILE 0,0,0,0,0,0,0,0,0,0
  000A                09435 VARIABLE MAX_PARAMS=10,SD_DELETE_FILE_RETURN=0,PRM_COUNT=0
  00002F16            09436 F14_000023 EQU $ ; IN [WRITE_USERS_SD.INC] SD_NEW_FILE
  000A                09437 VARIABLE MAX_PARAMS=10,SD_NEW_FILE_RETURN=0,PRM_COUNT=0
                      09438         SD_NEW_FILE 0,0,0,0,0,0,0,0,0,0
  000A                09439 VARIABLE MAX_PARAMS=10,SD_NEW_FILE_RETURN=0,PRM_COUNT=0
  00002F1A            09440 F14_000025 EQU $ ; IN [WRITE_USERS_SD.INC] IF USER_POINTER = BUA THEN    'THERE ARE NO USER ENTRIES IN THE TABLE
002F1A 0103           09441         MOVLB 3
  00000003            09442 RAM_BANK = 3
002F1C 51C5           09443         MOVF USER_POINTERH,W
002F1E 0A9C           09444         XORLW 156
002F20 0E50           09445         MOVLW 80
002F22 B4D8           09446         BTFSC STATUS,2,0
002F24 19C4           09447         XORWF USER_POINTER,W
002F26 0100           09448         MOVLB 0
  00000000            09449 RAM_BANK = 0
002F28 A4D8           09450         BTFSS STATUS,2,0
                      09451         GO@TO BC@LL294
  00002F2E            09452 F14_000026 EQU $ ; IN [WRITE_USERS_SD.INC] CLS
                      09453         F@CALL LCD@CLS
  00002F32            09454 F14_000027 EQU $ ; IN [WRITE_USERS_SD.INC] PRINT "NO USERS"
002F32 0E05           09455         MOVLW HIGH (STR@LB22)
002F34 6EF7           09456         MOVWF TBLPTRLH,0
002F36 0EAC           09457         MOVLW LOW (STR@LB22)
002F38 6EF6           09458         MOVWF TBLPTRL,0
                      09459         F@CALL PRINT@MSTR
  00002F3E            09460 F14_000028 EQU $ ; IN [WRITE_USERS_SD.INC] PAUSE 2000
002F3E 0E07           09461         MOVLW 7
002F40 6E16           09462         MOVWF PP1H,0
002F42 0ED0           09463         MOVLW 208
                      09464         F@CALL DLY@W
  00002F48            09465 F14_000029 EQU $ ; IN [WRITE_USERS_SD.INC] SD_IO_STRING = "NO USERS EXIST"
002F48 EE02 F0FB      09466         LFSR 0,SD_IO_STRING
002F4C 0E05           09467         MOVLW HIGH (STR@LB23)
002F4E 6EF7           09468         MOVWF TBLPTRLH,0
002F50 0EB6           09469         MOVLW LOW (STR@LB23)
002F52 6EF6           09470         MOVWF TBLPTRL,0
                      09471         F@CALL LOAD@MSTR
002F58 6AEF           09472         CLRF INDF0,0
  00002F5A            09473 F14_000030 EQU $ ; IN [WRITE_USERS_SD.INC] SD_WRITE_STRING_TO_FILE
  000A                09474 VARIABLE MAX_PARAMS=10,SD_WRITE_STRING_TO_FILE_RETURN=0,PRM_COUNT=0
                      09475         SD_WRITE_STRING_TO_FILE 0,0,0,0,0,0,0,0,0,0
  000A                09476 VARIABLE MAX_PARAMS=10,SD_WRITE_STRING_TO_FILE_RETURN=0,PRM_COUNT=0
  00002F5E            09477 F14_000031 EQU $ ; IN [WRITE_USERS_SD.INC] SD_CLOSE_FILE
  000A                09478 VARIABLE MAX_PARAMS=10,SD_CLOSE_FILE_RETURN=0,PRM_COUNT=0
                      09479         SD_CLOSE_FILE 0,0,0,0,0,0,0,0,0,0
  000A                09480 VARIABLE MAX_PARAMS=10,SD_CLOSE_FILE_RETURN=0,PRM_COUNT=0
  00002F62            09481 F14_000032 EQU $ ; IN [WRITE_USERS_SD.INC] RETURN
002F62 0012           09482         RETURN 0
  00002F64            09483 F14_000033 EQU $ ; IN [WRITE_USERS_SD.INC] ENDIF
002F64                09484 BC@LL294
  00002F64            09485 F14_000036 EQU $ ; IN [WRITE_USERS_SD.INC] INDEX2 = EREAD NOU    'READ NUMBER OF USERS INTO INDEX2
002F64 0E02           09486         MOVLW 2
                      09487         F@CALL EE@RD
002F6A 0103           09488         MOVLB 3
  00000003            09489 RAM_BANK = 3
002F6C 6FF1           09490         MOVWF INDEX2
  00002F6E            09491 F14_000037 EQU $ ; IN [WRITE_USERS_SD.INC] MYCOUNT = 0
002F6E 6BEF           09492         CLRF MYCOUNT
  00002F70            09493 F14_000038 EQU $ ; IN [WRITE_USERS_SD.INC] WORD_VAR = BUA   ' START IN FIRST USER MEMORY SPOT
002F70 0E9C           09494         MOVLW 156
002F72 6FF4           09495         MOVWF WORD_VARH
002F74 0E50           09496         MOVLW 80
002F76 6FF3           09497         MOVWF WORD_VAR
  00002F78            09498 F14_000039 EQU $ ; IN [WRITE_USERS_SD.INC] REPEAT
002F78                09499 BC@LL295
002F78 0100           09500         MOVLB 0
  00000000            09501 RAM_BANK = 0
  00002F7A            09502 F14_000040 EQU $ ; IN [WRITE_USERS_SD.INC] FOR INDEX = 0 TO 3     'REPEAT UNTIL ALL TAG DIGITS ARE CHECKED
002F7A 0103           09503         MOVLB 3
  00000003            09504 RAM_BANK = 3
002F7C 6BF0           09505         CLRF INDEX
002F7E                09506 FR@LB298
002F7E 0100           09507         MOVLB 0
  00000000            09508 RAM_BANK = 0
002F80 0E04           09509         MOVLW 4
002F82 0103           09510         MOVLB 3
  00000003            09511 RAM_BANK = 3
002F84 5DF0           09512         SUBWF INDEX,W
002F86 0100           09513         MOVLB 0
  00000000            09514 RAM_BANK = 0
002F88 B0D8           09515         BTFSC STATUS,0,0
                      09516         GO@TO NX@LB299
  00002F8E            09517 F14_000041 EQU $ ; IN [WRITE_USERS_SD.INC] TV1 = CREAD WORD_VAR + INDEX
002F8E 0103           09518         MOVLB 3
  00000003            09519 RAM_BANK = 3
002F90 51F0           09520         MOVF INDEX,W
002F92 25F3           09521         ADDWF WORD_VAR,W
002F94 6EF6           09522         MOVWF TBLPTRL,0
002F96 0E00           09523         MOVLW 0
002F98 21F4           09524         ADDWFC WORD_VARH,W
002F9A 6EF7           09525         MOVWF TBLPTRLH,0
002F9C 6AA6           09526         CLRF EECON1,0
002F9E 8EA6           09527         BSF EECON1,PP_EEPGD,0
002FA0 0008           09528         TBLRD*
002FA2 CFF5 F3F2      09529         MOVFF TABLAT,TV1
  00002FA6            09530 F14_000042 EQU $ ; IN [WRITE_USERS_SD.INC] SD_WRITE_BYTE_TO_FILE TV1 'APPEND TO FILE.
002FA6 0100           09531         MOVLB 0
  00000000            09532 RAM_BANK = 0
  0002                09533 VARIABLE PRM_1=2
  0000                09534  VARIABLE PRM_2=0,PRM_3=0,PRM_4=0,PRM_5=0,PRM_6=0,PRM_7=0,PRM_8=0,PRM_9=0,PRM_10=0
  0001                09535 VARIABLE SD_WRITE_BYTE_TO_FILE_LST_PRM=1,LST_PRM_TYPE=2,LST_PRM_NAME=TV1
  000A                09536 VARIABLE MAX_PARAMS=10,SD_WRITE_BYTE_TO_FILE_RETURN=0,PRM_COUNT=1
                      09537         SD_WRITE_BYTE_TO_FILE TV1,0,0,0,0,0,0,0,0,0
  000A                09538 VARIABLE MAX_PARAMS=10,SD_WRITE_BYTE_TO_FILE_RETURN=0,PRM_COUNT=1
  0002                09539 VARIABLE PRM_1=2
  0000                09540  VARIABLE PRM_2=0,PRM_3=0,PRM_4=0,PRM_5=0,PRM_6=0,PRM_7=0,PRM_8=0,PRM_9=0,PRM_10=0
  0001                09541 VARIABLE SD_WRITE_BYTE_TO_FILE_LST_PRM=1,LST_PRM_TYPE=2,LST_PRM_NAME=TV1
  00002FB0            09542 F14_000043 EQU $ ; IN [WRITE_USERS_SD.INC] NEXT INDEX
002FB0 0103           09543         MOVLB 3
  00000003            09544 RAM_BANK = 3
002FB2 2BF0           09545         INCF INDEX,F
002FB4 0100           09546         MOVLB 0
  00000000            09547 RAM_BANK = 0
002FB6 A4D8           09548         BTFSS STATUS,2,0
                      09549         GO@TO FR@LB298
002FBA                09550 NX@LB299
  00002FBA            09551 F14_000044 EQU $ ; IN [WRITE_USERS_SD.INC] SD_WRITE_BYTE_TO_FILE ":"
  0008                09552 VARIABLE PRM_1=8
  0000                09553  VARIABLE PRM_2=0,PRM_3=0,PRM_4=0,PRM_5=0,PRM_6=0,PRM_7=0,PRM_8=0,PRM_9=0,PRM_10=0
  0000                09554 VARIABLE SD_WRITE_BYTE_TO_FILE_LST_PRM=0
  000A                09555 VARIABLE MAX_PARAMS=10,SD_WRITE_BYTE_TO_FILE_RETURN=0,PRM_COUNT=1
                      09556         SD_WRITE_BYTE_TO_FILE 58,0,0,0,0,0,0,0,0,0
  000A                09557 VARIABLE MAX_PARAMS=10,SD_WRITE_BYTE_TO_FILE_RETURN=0,PRM_COUNT=1
  0008                09558 VARIABLE PRM_1=8
  0000                09559  VARIABLE PRM_2=0,PRM_3=0,PRM_4=0,PRM_5=0,PRM_6=0,PRM_7=0,PRM_8=0,PRM_9=0,PRM_10=0
  0000                09560 VARIABLE SD_WRITE_BYTE_TO_FILE_LST_PRM=0
  00002FC4            09561 F14_000045 EQU $ ; IN [WRITE_USERS_SD.INC] WORD_VAR = WORD_VAR + 16
002FC4 0E10           09562         MOVLW 16
002FC6 0103           09563         MOVLB 3
  00000003            09564 RAM_BANK = 3
002FC8 27F3           09565         ADDWF WORD_VAR,F
002FCA 0E00           09566         MOVLW 0
002FCC 23F4           09567         ADDWFC WORD_VARH,F
  00002FCE            09568 F14_000046 EQU $ ; IN [WRITE_USERS_SD.INC] INC MYCOUNT
002FCE 2BEF           09569         INCF MYCOUNT,F
  00002FD0            09570 F14_000047 EQU $ ; IN [WRITE_USERS_SD.INC] PRINT MYCOUNT
002FD0 51EF           09571         MOVF MYCOUNT,W
                      09572         F@CALL PRINT
  00002FD6            09573 F14_000048 EQU $ ; IN [WRITE_USERS_SD.INC] UNTIL MYCOUNT = INDEX2
002FD6 51EF           09574         MOVF MYCOUNT,W
002FD8 5DF1           09575         SUBWF INDEX2,W
002FDA 0100           09576         MOVLB 0
  00000000            09577 RAM_BANK = 0
002FDC A4D8           09578         BTFSS STATUS,2,0
                      09579         GO@TO BC@LL295
002FE0                09580 BC@LL296
  00002FE0            09581 F14_000051 EQU $ ; IN [WRITE_USERS_SD.INC] CLS
                      09582         F@CALL LCD@CLS
  00002FE4            09583 F14_000052 EQU $ ; IN [WRITE_USERS_SD.INC] PRINT "DONE USERS"
002FE4 0E05           09584         MOVLW HIGH (STR@LB24)
002FE6 6EF7           09585         MOVWF TBLPTRLH,0
002FE8 0EC6           09586         MOVLW LOW (STR@LB24)
002FEA 6EF6           09587         MOVWF TBLPTRL,0
                      09588         F@CALL PRINT@MSTR
  00002FF0            09589 F14_000053 EQU $ ; IN [WRITE_USERS_SD.INC] PAUSE 2000
002FF0 0E07           09590         MOVLW 7
002FF2 6E16           09591         MOVWF PP1H,0
002FF4 0ED0           09592         MOVLW 208
                      09593         F@CALL DLY@W
  00002FFA            09594 F14_000054 EQU $ ; IN [WRITE_USERS_SD.INC] SD_CLOSE_FILE
  000A                09595 VARIABLE MAX_PARAMS=10,SD_CLOSE_FILE_RETURN=0,PRM_COUNT=0
                      09596         SD_CLOSE_FILE 0,0,0,0,0,0,0,0,0,0
  000A                09597 VARIABLE MAX_PARAMS=10,SD_CLOSE_FILE_RETURN=0,PRM_COUNT=0
  00002FFE            09598 F14_000055 EQU $ ; IN [WRITE_USERS_SD.INC] RETURN
002FFE 0012           09599         RETURN 0
  00003000            09600 F14_EOF EQU $ ; WRITE_USERS_SD.INC
  00003000            09601 F15_SOF EQU $ ; READ_MOD.INC
003000                09602 READ_MOD
  00003000            09603 F15_000003 EQU $ ; IN [READ_MOD.INC] FOR INDEX = 0 TO 7
003000 0103           09604         MOVLB 3
  00000003            09605 RAM_BANK = 3
003002 6BF0           09606         CLRF INDEX
003004                09607 FR@LB300
003004 0100           09608         MOVLB 0
  00000000            09609 RAM_BANK = 0
003006 0E08           09610         MOVLW 8
003008 0103           09611         MOVLB 3
  00000003            09612 RAM_BANK = 3
00300A 5DF0           09613         SUBWF INDEX,W
00300C 0100           09614         MOVLB 0
  00000000            09615 RAM_BANK = 0
00300E B0D8           09616         BTFSC STATUS,0,0
                      09617         GO@TO NX@LB301
  00003014            09618 F15_000004 EQU $ ; IN [READ_MOD.INC] MODNUM[INDEX] = CREAD 0X9C40 + INDEX    'READ THE MODULE NUMBER INTO VARIABLE
003014 0E40           09619         MOVLW 64
003016 0103           09620         MOVLB 3
  00000003            09621 RAM_BANK = 3
003018 25F0           09622         ADDWF INDEX,W
00301A 6AF7           09623         CLRF TBLPTRLH,0
00301C 6EF6           09624         MOVWF TBLPTRL,0
00301E 0E9C           09625         MOVLW 156
003020 22F7           09626         ADDWFC TBLPTRLH,F,0
003022 6AA6           09627         CLRF EECON1,0
003024 8EA6           09628         BSF EECON1,PP_EEPGD,0
003026 0008           09629         TBLRD*
003028 CFF5 F00C      09630         MOVFF TABLAT,PBP#VAR1
00302C EE03 F0E6      09631         LFSR 0,MODNUM
003030 51F0           09632         MOVF INDEX,W
003032 C00C FFEB      09633         MOVFF PBP#VAR1,PLUSW0
  00003036            09634 F15_000005 EQU $ ; IN [READ_MOD.INC] NEXT
003036 2BF0           09635         INCF INDEX,F
003038 0100           09636         MOVLB 0
  00000000            09637 RAM_BANK = 0
00303A A4D8           09638         BTFSS STATUS,2,0
                      09639         GO@TO FR@LB300
00303E                09640 NX@LB301
  0000303E            09641 F15_000006 EQU $ ; IN [READ_MOD.INC] RETURN
00303E 0012           09642         RETURN 0
  00003040            09643 F15_EOF EQU $ ; READ_MOD.INC
  00003040            09644 F16_SOF EQU $ ; GOSLEEP.INC
003040                09645 GOSLEEP
  00003040            09646 F16_000003 EQU $ ; IN [GOSLEEP.INC] CLS
                      09647         F@CALL LCD@CLS
  00003044            09648 F16_000004 EQU $ ; IN [GOSLEEP.INC] PRINT AT 1,1, "GOING TO SLEEP.."
003044 0E80           09649         MOVLW 128
003046 6E01           09650         MOVWF BPFH,0
                      09651         F@CALL LCD@CRS
00304C 0E05           09652         MOVLW HIGH (STR@LB25)
00304E 6EF7           09653         MOVWF TBLPTRLH,0
003050 0ED2           09654         MOVLW LOW (STR@LB25)
003052 6EF6           09655         MOVWF TBLPTRL,0
                      09656         F@CALL PRINT@MSTR
  00003058            09657 F16_000005 EQU $ ; IN [GOSLEEP.INC] PAUSE 2000
003058 0E07           09658         MOVLW 7
00305A 6E16           09659         MOVWF PP1H,0
00305C 0ED0           09660         MOVLW 208
                      09661         F@CALL DLY@W
  00003062            09662 F16_000006 EQU $ ; IN [GOSLEEP.INC] INTCON.4 = 1 'ALLOW A THE PULSE ON PORTB.0 TO WAKE PROGRAM FROM SLEEP
003062 88F2           09663         BSF INTCON,4,0
  00003064            09664 F16_000007 EQU $ ; IN [GOSLEEP.INC] INTCON.1 = 0  'CLEAR THE INTERRUPT FLAG FOR PORTB.0
003064 92F2           09665         BCF INTCON,1,0
  00003066            09666 F16_000010 EQU $ ; IN [GOSLEEP.INC] SLEEP    'CHIP GOES INTO LOW POWER UNTIL IT IS TRIGGERED BY A HIGH TO LOW PULSE ON PORTB.0
003066 0003           09667         SLEEP
  00003068            09668 F16_000011 EQU $ ; IN [GOSLEEP.INC] INTCON.4 = 0 'STOP ANY PULSE FROM WAKING UP PROGRAM CAUSE WE JUST WOKE UP
003068 98F2           09669         BCF INTCON,4,0
  0000306A            09670 F16_000012 EQU $ ; IN [GOSLEEP.INC] CLS
                      09671         F@CALL LCD@CLS
  0000306E            09672 F16_000013 EQU $ ; IN [GOSLEEP.INC] PRINT AT 1,1, "I JUST WOKE UP!!"
00306E 0E80           09673         MOVLW 128
003070 6E01           09674         MOVWF BPFH,0
                      09675         F@CALL LCD@CRS
003076 0E05           09676         MOVLW HIGH (STR@LB26)
003078 6EF7           09677         MOVWF TBLPTRLH,0
00307A 0EE4           09678         MOVLW LOW (STR@LB26)
00307C 6EF6           09679         MOVWF TBLPTRL,0
                      09680         F@CALL PRINT@MSTR
  00003082            09681 F16_000018 EQU $ ; IN [GOSLEEP.INC] PAUSE 2000
003082 0E07           09682         MOVLW 7
003084 6E16           09683         MOVWF PP1H,0
003086 0ED0           09684         MOVLW 208
                      09685         F@CALL DLY@W
  0000308C            09686 F16_000026 EQU $ ; IN [GOSLEEP.INC] GOTO GOSLEEP      'GO BACK TO SLEEP
                      09687         F@JUMP GOSLEEP
  0000308E            09688 F16_EOF EQU $ ; GOSLEEP.INC
009C40                09689         ORG 40000
009C40 3241 4237 3338 09690         DB 65,50,55,66,56,51
009C46 0042           09691         DB 66,0
  00009C48            09692 F1_EOF EQU $ ; V4.0 RFID 2ND GENERATION.BAS
009C48                09694 __EOF
01 18 1F 81 84 0F C0 009695 CONFIG OSC = XT
       F E0 0F 40 
                      09696 CONFIG PWRT = ON
                      09697 CONFIG BOREN = OFF
                      09698 CONFIG MCLRE = ON
                      09699 CONFIG PBADEN = OFF
                      09700 CONFIG STVREN = OFF
                      09701 CONFIG LVP = ON
                      09702         END
MPASM  5.20                               A.S   7-23-2009  6:06:22         PAGE  4


SYMBOL TABLE
  LABEL                             VALUE 

ABDEN                             00000000
ABDOVF                            00000007
ACKDT                             00000005
ACKEN                             00000004
ACKSTAT                           00000006
ACQT0                             00000003
ACQT1                             00000004
ACQT2                             00000005
ADCON0                            00000FC2
ADCON1                            00000FC1
ADCON2                            00000FC0
ADCS0                             00000000
ADCS1                             00000001
ADCS2                             00000002
ADDEN                             00000003
ADEN                              00000003
ADFM                              00000007
ADIE                              00000006
ADIF                              00000006
ADIP                              00000006
ADON                              00000000
ADRES                             00000FC3
ADRESH                            00000FC4
ADRESL                            00000FC3
ADRESLH                           00000FC4
AL@MUL                            00000372
AN10                              00000001
AN11                              00000004
AN12                              00000000
AN4                               00000005
AN5                               00000000
AN6                               00000001
AN7                               00000002
AN8                               00000002
AN9                               00000003
BANK0_END                         255
BANK0_START                       128
BANK10_END                        2815
BANK10_START                      2560
BANK11_END                        3071
BANK11_START                      2816
BANK12_END                        3327
BANK12_START                      3072
BANK13_END                        3583
BANK13_START                      3328
BANK14_END                        3839
BANK14_START                      3584
BANK1_END                         511
BANK1_START                       256
BANK2_END                         767
BANK2_START                       512
BANK3_END                         1023
BANK3_START                       768
BANK4_END                         1279
BANK4_START                       1024
BANK5_END                         1535
BANK5_START                       1280
BANK6_END                         1791
BANK6_START                       1536
BANK7_END                         2047
BANK7_START                       1792
BANK8_END                         2303
BANK8_START                       2048
BANK9_END                         2559
BANK9_START                       2304
BANKA_END                         127
BANKA_START                       0
BAUDCON                           00000FB8
BAUDCTL                           00000FB8
BC@LL10                           000006C2
BC@LL100                          00000F0A
BC@LL102                          00000F0A
BC@LL108                          00000F8A
BC@LL109                          00000F9C
BC@LL110                          00000FC6
BC@LL111                          00001002
BC@LL113                          00001084
BC@LL115                          00001320
BC@LL117                          00001314
BC@LL119                          000011E0
BC@LL120                          0000130E
BC@LL122                          00001300
BC@LL124                          00001232
BC@LL125                          00001306
BC@LL126                          00001318
BC@LL128                          00001368
BC@LL13                           000006C6
BC@LL130                          0000138E
BC@LL131                          000013A0
BC@LL133                          00001466
BC@LL134                          00001468
BC@LL135                          000014A0
BC@LL137                          000014B2
BC@LL139                          000014E2
BC@LL14                           000006C8
BC@LL140                          000014D8
BC@LL141                          000014E2
BC@LL143                          00001612
BC@LL145                          00001732
BC@LL147                          000017D0
BC@LL149                          00001808
BC@LL15                           000006F4
BC@LL150                          0000180C
BC@LL152                          0000199E
BC@LL154                          00001966
BC@LL156                          0000185C
BC@LL157                          0000184E
BC@LL158                          00001858
BC@LL160                          0000195C
BC@LL162                          0000199C
BC@LL164                          000019CA
BC@LL166                          000019EC
BC@LL17                           00000706
BC@LL174                          00001BD8
BC@LL175                          00001C0A
BC@LL176                          00001D3E
BC@LL178                          00001CEA
BC@LL18                           00000708
BC@LL180                          00001D90
BC@LL181                          00001DCC
BC@LL183                          00001E6C
BC@LL185                          00001EDE
BC@LL187                          00001EDE
BC@LL189                          00001F1C
BC@LL190                          00001F40
BC@LL191                          00002064
BC@LL193                          0000201C
BC@LL195                          00001FF8
BC@LL197                          000020CE
BC@LL198                          0000213C
BC@LL199                          00002114
BC@LL2                            00000634
BC@LL20                           0000075C
BC@LL200                          0000212E
BC@LL201                          0000213A
BC@LL205                          00002380
BC@LL207                          000023F8
BC@LL209                          00002422
BC@LL211                          000024CA
BC@LL214                          000024E6
BC@LL221                          00002578
BC@LL224                          000025FC
BC@LL225                          000025CC
BC@LL228                          000025FA
BC@LL232                          000026D2
BC@LL233                          000026FC
BC@LL234                          000028C8
BC@LL236                          000027B0
BC@LL238                          00002748
BC@LL243                          00002836
BC@LL249                          0000290E
BC@LL251                          0000296C
BC@LL255                          000029AE
BC@LL257                          00002A06
BC@LL258                          00002A18
BC@LL259                          00002A78
BC@LL26                           000007DC
BC@LL261                          00002A62
BC@LL262                          00002A6A
BC@LL264                          00002AC6
BC@LL268                          00002AEC
BC@LL276                          00002C10
BC@LL28                           000007EA
BC@LL284                          00002D14
BC@LL286                          00002DB2
BC@LL287                          00002DDC
BC@LL288                          00002ECE
BC@LL294                          00002F64
BC@LL295                          00002F78
BC@LL296                          00002FE0
BC@LL3                            00000646
BC@LL30                           0000080A
BC@LL32                           0000085E
BC@LL34                           00000876
BC@LL40                           000008E0
BC@LL42                           00000924
BC@LL43                           00000946
BC@LL49                           00000A70
BC@LL5                            00000680
BC@LL51                           00000A70
BC@LL55                           00000B14
BC@LL56                           00000B18
BC@LL6                            0000065E
BC@LL60                           00000B90
BC@LL64                           00000BF8
BC@LL7                            00000668
BC@LL72                           00000CF2
BC@LL73                           00000D0E
BC@LL74                           00000F0A
BC@LL75                           00000D56
BC@LL78                           00000D52
BC@LL8                            00000686
BC@LL80                           00000E16
BC@LL84                           00000DA8
BC@LL88                           00000DF8
BC@LL90                           00000E12
BC@LL92                           00000F0A
BC@LL94                           00000F0A
BC@LL96                           00000F0A
BC@LL98                           00000F0A
BCLIE                             00000003
BCLIF                             00000003
BCLIP                             00000003
BF                                00000000
BGST                              00000005
BIT_BIT                           
BIT_BYTE                          
BIT_DWORD                         
BIT_FLOAT                         
BIT_WORD                          
BIT_WREG                          
BOR                               00000000
BOREN_NOSLP_2                     000000FD
BOREN_OFF_2                       000000F9
BOREN_ON_2                        000000FB
BOREN_SBORDIS_2                   000000FF
BORV_0_2                          000000E7
BORV_1_2                          000000EF
BORV_2_2                          000000F7
BORV_3_2                          000000FF
BPF                               00000000
BPFH                              00000001
BRG16                             00000003
BRGH                              00000002
BSR                               00000FE0
BUA                               40016
BUAH                              156
BYTE_BIT                          
BYTE_BYTE                         
BYTE_DWORD                        
BYTE_FLOAT                        
BYTE_WORD                         
BYTE_WREG                         
C                                 00000000
C1INV                             00000004
C1OUT                             00000006
C2INV                             00000005
C2OUT                             00000007
C@WRITE                           00000226
CCP1                              00000002
CCP1CON                           00000FBD
CCP1IE                            00000002
CCP1IF                            00000002
CCP1IP                            00000002
CCP1M0                            00000000
CCP1M1                            00000001
CCP1M2                            00000002
CCP1M3                            00000003
CCP1X                             00000005
CCP1Y                             00000004
CCP2CON                           00000FBA
CCP2IE                            00000000
CCP2IF                            00000000
CCP2IP                            00000000
CCP2M0                            00000000
CCP2M1                            00000001
CCP2M2                            00000002
CCP2M3                            00000003
CCP2MX_PORTBE_3                   000000FE
CCP2MX_PORTC_3                    000000FF
CCP2X                             00000005
CCP2Y                             00000004
CCP2_PORTB                        00000003
CCP2_PORTC                        00000001
CCPR1                             00000FBE
CCPR1H                            00000FBF
CCPR1L                            00000FBE
CCPR1LH                           00000FBF
CCPR2                             00000FBB
CCPR2H                            00000FBC
CCPR2L                            00000FBB
CCPR2LH                           00000FBC
CFGS                              00000006
CH@SND                            000001E4
CHECKSUM                          000003E5
CHECK_TAG                         000029D4
CHS0                              00000002
CHS1                              00000003
CHS2                              00000004
CHS3                              00000005
CIS                               00000003
CK                                00000006
CKE                               00000006
CKP                               00000004
CLOSE_FILE                        0000296C
CLRC                              BCF STATUS,0
CLRW                              CLRF WREG
CLRZ                              BCF STATUS,2
CLS                               00000038
CM0                               00000000
CM1                               00000001
CM2                               00000002
CMCON                             00000FB4
CMIE                              00000006
CMIF                              00000006
CMIP                              00000006
CN@EQ                             00000022
CONFIG1H                          00300001
CONFIG2H                          00300003
CONFIG2L                          00300002
CONFIG3H                          00300005
CONFIG4L                          00300006
CONFIG5H                          00300009
CONFIG5L                          00300008
CONFIG6H                          0030000B
CONFIG6L                          0030000A
CONFIG7H                          0030000D
CONFIG7L                          0030000C
CONFIG_REQ                        1
CP0_OFF_5                         000000FF
CP0_ON_5                          000000FE
CP1_OFF_5                         000000FF
CP1_ON_5                          000000FD
CP2_OFF_5                         000000FF
CP2_ON_5                          000000FB
CP@LB18                           00000FDA
CP@LB24                           00001CC6
CP@LB26                           00001FB0
CP@LB27                           0000205E
CP@LB28                           000023B8
CP@LB4                            000006EC
CP@LB9                            00000A24
CPB_OFF_5                         000000FF
CPB_ON_5                          000000BF
CPD_OFF_5                         000000FF
CPD_ON_5                          0000007F
CR@EXIT                           00000242
CREN                              00000004
CS                                00000002
CSRC                              00000007
CURS@                             00000052
CVR0                              00000000
CVR1                              00000001
CVR2                              00000002
CVR3                              00000003
CVRCON                            00000FB5
CVREN                             00000007
CVROE                             00000006
CVRR                              00000005
CVRSS                             00000004
D                                 00000005
D@DIG                             00000092
D@K                               00000366
D@VD                              00000344
D@VD2                             00000348
DC                                00000001
DC1B0                             00000004
DC1B1                             00000005
DC2B0                             00000004
DC2B1                             00000005
DDRA                              00000F92
DDRB                              00000F93
DDRC                              00000F94
DDRD                              00000F95
DDRE                              00000F96
DEBUG                             00000FD4
DEBUG_OFF_4                       000000FF
DEBUG_ON_4                        0000007F
DEVID1                            003FFFFE
DEVID2                            003FFFFF
DIVS@32X32EXIT                    00000322
DIVS@32X32LOOP                    000002D0
DIVS@32X32SKIP1                   000002A2
DIVS@32X32SKIP2                   000002B2
DIVS@32X32SKIP4                   00000306
DIVS@32X32SKIP5                   00000312
DL@MS                             00000248
DL@US                             00000262
DLUS@W                            00000264
DLY@P                             0000024C
DLY@W                             0000024A
DONE                              00000001
DV@LP                             0000034C
DWORD_BIT                         
DWORD_BYTE                        
DWORD_DWORD                       
DWORD_FLOAT                       
DWORD_WORD                        
DWORD_WREG                        
D_A                               00000005
EBTR0_OFF_7                       000000FF
EBTR0_ON_7                        000000FE
EBTR1_OFF_7                       000000FF
EBTR1_ON_7                        000000FD
EBTR2_OFF_7                       000000FF
EBTR2_ON_7                        000000FB
EBTRB_OFF_7                       000000FF
EBTRB_ON_7                        000000BF
ECCP1AS                           00000FB6
ECCPAS                            00000FB6
ECCPAS0                           00000004
ECCPAS1                           00000005
ECCPAS2                           00000006
ECCPASE                           00000007
EE@RD                             000001F8
EE@RD@W                           000001FC
EE@WR                             00000208
EE@WR@W                           0000020A
EEADR                             00000FA9
EEADRH                            00000FAA
EECON1                            00000FA6
EECON2                            00000FA7
EEDATA                            00000FA8
EEDATL                            00000FA8
EEIE                              00000004
EEIF                              00000004
EEIP                              00000004
EEPGD                             00000007
ETX                               000003E4
EX@SEND@IT                        000000C2
F10_000004                        000029D4
F10_000005                        000029D8
F10_000006                        000029EA
F10_000007                        000029EE
F10_000008                        000029FA
F10_000009                        00002A04
F10_000010                        00002A06
F10_000011                        00002A06
F10_000012                        00002A12
F10_000013                        00002A16
F10_000014                        00002A18
F10_000015                        00002A1A
F10_000016                        00002A3E
F10_000017                        00002A54
F10_000018                        00002A5A
F10_000019                        00002A62
F10_000020                        00002A62
F10_000021                        00002A66
F10_000022                        00002A6A
F10_000023                        00002A6C
F10_000024                        00002A78
F10_000025                        00002A86
F10_000026                        00002A9A
F10_000027                        00002ABC
F10_000028                        00002AC4
F10_000029                        00002AC6
F10_000031                        00002AC6
F10_000032                        00002AD0
F10_000034                        00002AEC
F10_EOF                           00002AEE
F10_SOF                           000029D4
F11_000012                        00002AEE
F11_000013                        00002AF6
F11_000014                        00002B0A
F11_000015                        00002B38
F11_000016                        00002B6C
F11_000017                        00002B9A
F11_000018                        00002BA2
F11_000020                        00002BAE
F11_000022                        00002BB2
F11_000023                        00002BC6
F11_000024                        00002BD2
F11_000025                        00002BE2
F11_000026                        00002BEA
F11_000027                        00002BF4
F11_000028                        00002C00
F11_000029                        00002C04
F11_000030                        00002C10
F11_000031                        00002C12
F11_EOF                           00002C14
F11_SOF                           00002AEE
F12_000013                        00002C14
F12_000014                        00002C1C
F12_000015                        00002C30
F12_000016                        00002C66
F12_000017                        00002CA2
F12_000018                        00002CAA
F12_000020                        00002CB6
F12_000021                        00002CCA
F12_000022                        00002CD2
F12_000023                        00002CE6
F12_000024                        00002CEE
F12_000025                        00002CF8
F12_000026                        00002D04
F12_000027                        00002D08
F12_000028                        00002D14
F12_000029                        00002D16
F12_000030                        00002D1A
F12_000031                        00002D1E
F12_000032                        00002D2A
F12_EOF                           00002D2C
F12_SOF                           00002C14
F13_000013                        00002D2C
F13_000015                        00002D30
F13_000016                        00002D48
F13_000017                        00002D58
F13_000019                        00002D6A
F13_000022                        00002D6E
F13_000023                        00002D72
F13_000024                        00002D7C
F13_000025                        00002D8C
F13_000026                        00002D96
F13_000027                        00002DA8
F13_000028                        00002DAC
F13_000029                        00002DB0
F13_000030                        00002DB2
F13_000031                        00002DB2
F13_000032                        00002DCA
F13_000033                        00002DCE
F13_000035                        00002DD8
F13_000036                        00002DDC
F13_000037                        00002DDE
F13_000038                        00002DF2
F13_000039                        00002E30
F13_000040                        00002E3A
F13_000041                        00002E44
F13_000042                        00002E4E
F13_000043                        00002E64
F13_000044                        00002EA2
F13_000045                        00002EAC
F13_000046                        00002EB6
F13_000047                        00002EC0
F13_000048                        00002EC4
F13_000049                        00002ECE
F13_000050                        00002ED2
F13_EOF                           00002ED4
F13_SOF                           00002D2C
F14_000014                        00002ED4
F14_000015                        00002ED8
F14_000016                        00002EF0
F14_000017                        00002F00
F14_000020                        00002F12
F14_000023                        00002F16
F14_000025                        00002F1A
F14_000026                        00002F2E
F14_000027                        00002F32
F14_000028                        00002F3E
F14_000029                        00002F48
F14_000030                        00002F5A
F14_000031                        00002F5E
F14_000032                        00002F62
F14_000033                        00002F64
F14_000036                        00002F64
F14_000037                        00002F6E
F14_000038                        00002F70
F14_000039                        00002F78
F14_000040                        00002F7A
F14_000041                        00002F8E
F14_000042                        00002FA6
F14_000043                        00002FB0
F14_000044                        00002FBA
F14_000045                        00002FC4
F14_000046                        00002FCE
F14_000047                        00002FD0
F14_000048                        00002FD6
F14_000051                        00002FE0
F14_000052                        00002FE4
F14_000053                        00002FF0
F14_000054                        00002FFA
F14_000055                        00002FFE
F14_EOF                           00003000
F14_SOF                           00002ED4
F15_000003                        00003000
F15_000004                        00003014
F15_000005                        00003036
F15_000006                        0000303E
F15_EOF                           00003040
F15_SOF                           00003000
F16_000003                        00003040
F16_000004                        00003044
F16_000005                        00003058
F16_000006                        00003062
F16_000007                        00003064
F16_000010                        00003066
F16_000011                        00003068
F16_000012                        0000306A
F16_000013                        0000306E
F16_000018                        00003082
F16_000026                        0000308C
F16_EOF                           0000308E
F16_SOF                           00003040
F1_000043                         00002394
F1_000045                         0000239A
F1_000048                         0000239C
F1_000049                         000023A0
F1_000050                         000023AA
F1_000052                         000023B2
F1_000053                         000023C0
F1_000054                         000023CA
F1_000055                         000023D4
F1_000056                         000023E0
F1_000057                         000023EC
F1_000058                         000023F8
F1_000062                         000023FA
F1_000063                         00002400
F1_000064                         00002404
F1_000065                         00002410
F1_000066                         0000241A
F1_000067                         0000241E
F1_000068                         00002422
F1_000071                         00002422
F1_000072                         00002426
F1_000073                         0000242A
F1_000074                         0000242E
F1_000078                         00002446
F1_000085                         00002450
F1_000087                         00002454
F1_000088                         00002458
F1_000090                         00002464
F1_000091                         00002468
F1_000092                         00002476
F1_000093                         0000247A
F1_000094                         0000248E
F1_000095                         000024A6
F1_000096                         000024AA
F1_000097                         000024AE
F1_000098                         000024BA
F1_000099                         000024C4
F1_000100                         000024CA
F1_000101                         000024CA
F1_000102                         000024CE
F1_000103                         000024DA
F1_000104                         000024E4
F1_000105                         000024E6
F1_000106                         000024E6
F1_EOF                            00009C48
F1_SOF                            0000238C
F2_EOF                            0000238C
F2_SOF                            0000060A
F3_EOF                            0000060A
F3_SOF                            0000060A
F4_000001                         0000060A
F4_000109                         0000060E
F4_000110                         0000061C
F4_000111                         00000634
F4_000112                         00000634
F4_000113                         00000646
F4_000114                         00000648
F4_000115                         0000064E
F4_000116                         0000065E
F4_000117                         0000065E
F4_000118                         00000662
F4_000119                         00000668
F4_000120                         0000066C
F4_000121                         00000670
F4_000122                         00000680
F4_000123                         00000680
F4_000124                         00000686
F4_000125                         00000688
F4_000128                         0000068A
F4_000129                         00000690
F4_000130                         0000069A
F4_000131                         0000069C
F4_000132                         000006AA
F4_000133                         000006B8
F4_000134                         000006C2
F4_000135                         000006C2
F4_000136                         000006C6
F4_000137                         000006C6
F4_000151                         000006C8
F4_000152                         000006C8
F4_000153                         000006CC
F4_000154                         000006D2
F4_000155                         000006F4
F4_000156                         000006FE
F4_000157                         00000706
F4_000158                         00000706
F4_000159                         00000708
F4_000160                         00000708
F4_000163                         0000070A
F4_000164                         0000070E
F4_000166                         00000714
F4_000168                         00000724
F4_000169                         00000728
F4_000170                         0000072E
F4_000171                         00000732
F4_000172                         00000736
F4_000173                         0000073A
F4_000174                         0000073E
F4_000175                         00000740
F4_000176                         00000742
F4_000177                         00000746
F4_000178                         0000074C
F4_000179                         0000074E
F4_000181                         0000075C
F4_000182                         00000762
F4_000184                         00000768
F4_000185                         0000076A
F4_000186                         0000077C
F4_000187                         00000782
F4_000188                         00000788
F4_000189                         0000078A
F4_000190                         0000079C
F4_000191                         000007A2
F4_000193                         000007A8
F4_000194                         000007AC
F4_000195                         000007B2
F4_000197                         000007B6
F4_000198                         000007B8
F4_000199                         000007BC
F4_000200                         000007C0
F4_000201                         000007C4
F4_000202                         000007C6
F4_000203                         000007CC
F4_000204                         000007DC
F4_000205                         000007EA
F4_000206                         000007EC
F4_000207                         000007F0
F4_000209                         000007F4
F4_000210                         000007F8
F4_000211                         000007FC
F4_000212                         00000808
F4_000213                         0000080A
F4_000215                         0000080A
F4_000218                         0000080C
F4_000219                         00000810
F4_000221                         00000816
F4_000223                         00000826
F4_000224                         0000082A
F4_000225                         00000830
F4_000226                         00000834
F4_000227                         00000838
F4_000228                         0000083C
F4_000229                         00000840
F4_000230                         00000842
F4_000231                         00000848
F4_000232                         0000084A
F4_000233                         0000084E
F4_000234                         00000850
F4_000236                         0000085E
F4_000237                         00000862
F4_000238                         00000866
F4_000239                         00000868
F4_000241                         00000876
F4_000242                         00000878
F4_000243                         0000087C
F4_000244                         0000088C
F4_000245                         00000892
F4_000246                         00000894
F4_000247                         00000898
F4_000248                         000008A8
F4_000250                         000008AE
F4_000251                         000008B2
F4_000252                         000008B6
F4_000253                         000008BA
F4_000254                         000008BE
F4_000255                         000008C4
F4_000256                         000008C6
F4_000258                         000008CA
F4_000259                         000008CE
F4_000260                         000008D2
F4_000261                         000008DE
F4_000262                         000008E0
F4_000264                         000008E0
F4_000267                         000008E2
F4_000268                         000008F0
F4_000269                         00000902
F4_000270                         00000924
F4_000271                         00000924
F4_000272                         00000936
F4_000273                         00000946
F4_000274                         00000948
F4_000277                         0000094A
F4_000278                         0000097A
F4_000279                         000009B6
F4_000280                         000009C6
F4_000281                         000009CC
F4_000283                         000009D0
F4_000284                         000009E6
F4_000285                         00000A5C
F4_000286                         00000A5E
F4_000287                         00000A70
F4_000288                         00000A70
F4_000289                         00000A86
F4_000290                         00000A98
F4_000291                         00000A9E
F4_000293                         00000AA2
F4_000294                         00000ABC
F4_000295                         00000AC4
F4_000296                         00000ACA
F4_000297                         00000ADC
F4_000298                         00000AE0
F4_000299                         00000AF8
F4_000300                         00000AFA
F4_000301                         00000B08
F4_000302                         00000B14
F4_000303                         00000B14
F4_000304                         00000B18
F4_000305                         00000B18
F4_000307                         00000B2E
F4_000308                         00000B36
F4_000309                         00000B38
F4_000312                         00000B3C
F4_000313                         00000B40
F4_000314                         00000B52
F4_000315                         00000B7C
F4_000316                         00000B8C
F4_000317                         00000B90
F4_000318                         00000B92
F4_000319                         00000B9C
F4_000320                         00000BA0
F4_000321                         00000BB4
F4_000322                         00000BE0
F4_000323                         00000BF4
F4_000324                         00000BF8
F4_000325                         00000BFA
F4_000326                         00000C04
F4_000329                         00000C06
F4_000330                         00000C08
F4_000331                         00000C0E
F4_000332                         00000C3C
F4_000333                         00000C70
F4_000334                         00000C80
F4_000335                         00000C86
F4_000337                         00000C8C
F4_000338                         00000CA2
F4_000339                         00000CB6
F4_000340                         00000CC4
F4_000341                         00000CD0
F4_000342                         00000CF2
F4_000343                         00000CF2
F4_000344                         00000D0E
F4_000345                         00000D10
F4_000346                         00000D1A
F4_000347                         00000D1A
F4_000348                         00000D26
F4_000349                         00000D4E
F4_000350                         00000D52
F4_000351                         00000D56
F4_000352                         00000D64
F4_000353                         00000D68
F4_000354                         00000D7A
F4_000355                         00000D9C
F4_000356                         00000DA2
F4_000357                         00000DA8
F4_000358                         00000DA8
F4_000359                         00000DB2
F4_000360                         00000DC8
F4_000361                         00000DEC
F4_000362                         00000DF2
F4_000363                         00000DF8
F4_000364                         00000DF8
F4_000365                         00000E02
F4_000366                         00000E16
F4_000367                         00000E24
F4_000368                         00000E3E
F4_000369                         00000E4E
F4_000370                         00000E60
F4_000371                         00000E7A
F4_000372                         00000E80
F4_000373                         00000E9A
F4_000374                         00000EAE
F4_000375                         00000EC4
F4_000376                         00000ECC
F4_000377                         00000EE2
F4_000378                         00000EFE
F4_000379                         00000F06
F4_000380                         00000F0A
F4_000381                         00000F0A
F4_000382                         00000F0A
F4_000383                         00000F0A
F4_000384                         00000F0A
F4_000385                         00000F0A
F4_000386                         00000F0A
F4_000387                         00000F20
F4_000388                         00000F32
F4_000389                         00000F38
F4_000391                         00000F3C
F4_000392                         00000F56
F4_000393                         00000F5E
F4_000394                         00000F60
F4_000397                         00000F64
F4_000398                         00000F72
F4_000399                         00000F8A
F4_000400                         00000F8A
F4_000401                         00000F9C
F4_000402                         00000F9E
F4_000405                         00000FA0
F4_000406                         00000FA8
F4_000407                         00000FB0
F4_000408                         00000FC2
F4_000409                         00000FC6
F4_000410                         00000FDA
F4_000411                         00000FDE
F4_000412                         00000FE0
F4_000413                         00000FE6
F4_000414                         00000FEA
F4_000415                         00000FEE
F4_000416                         00000FF4
F4_000417                         00000FF8
F4_000418                         00000FFE
F4_000419                         00001002
F4_000422                         00001004
F4_000423                         0000100C
F4_000424                         0000101E
F4_000425                         00001022
F4_000426                         00001026
F4_000427                         0000102C
F4_000428                         00001030
F4_000429                         00001034
F4_000432                         00001036
F4_000433                         0000103A
F4_000434                         0000103E
F4_000435                         00001044
F4_000436                         00001048
F4_000439                         0000104A
F4_000440                         00001056
F4_000441                         00001076
F4_000442                         00001082
F4_000443                         00001084
F4_000444                         00001086
F4_000445                         0000108C
F4_000446                         0000109C
F4_000447                         000010A8
F4_000448                         000010AA
F4_000449                         000010B6
F4_000450                         000010C2
F4_000451                         000010EC
F4_000452                         000010F4
F4_000453                         000010FA
F4_000454                         00001112
F4_000455                         00001116
F4_000456                         0000111C
F4_000457                         00001124
F4_000458                         00001128
F4_000459                         00001130
F4_000460                         00001176
F4_000461                         00001186
F4_000462                         00001196
F4_000463                         0000119A
F4_000464                         000011A0
F4_000466                         000011A6
F4_000467                         000011CE
F4_000468                         000011D4
F4_000470                         000011E0
F4_000471                         000011E0
F4_000472                         000011E6
F4_000473                         000011F6
F4_000474                         000011FE
F4_000475                         0000120E
F4_000476                         00001216
F4_000478                         0000121E
F4_000479                         00001222
F4_000480                         00001232
F4_000481                         0000124C
F4_000482                         0000125C
F4_000483                         00001260
F4_000485                         00001266
F4_000486                         00001268
F4_000487                         0000126A
F4_000488                         0000126E
F4_000489                         00001288
F4_000490                         0000128E
F4_000491                         000012D4
F4_000492                         000012E4
F4_000493                         000012F4
F4_000494                         000012F6
F4_000496                         00001300
F4_000497                         00001300
F4_000498                         00001306
F4_000499                         00001308
F4_000500                         0000130E
F4_000501                         00001314
F4_000502                         00001314
F4_000503                         00001318
F4_000504                         00001318
F4_000505                         00001320
F4_000506                         00001322
F4_000507                         00001326
F4_000508                         0000132A
F4_000509                         0000132E
F4_000512                         00001332
F4_000513                         00001338
F4_000514                         0000133E
F4_000517                         00001340
F4_000524                         0000134E
F4_000525                         00001354
F4_000526                         0000135E
F4_000527                         00001362
F4_000528                         00001368
F4_000529                         00001368
F4_000530                         00001376
F4_000531                         0000138E
F4_000532                         0000138E
F4_000533                         000013A0
F4_000534                         000013A2
F4_000535                         000013A8
F4_000541                         000013AC
F4_000580                         000013AC
F4_000581                         000013B0
F4_000582                         000013B2
F4_000583                         000013B4
F4_000584                         000013B8
F4_000585                         000013BC
F4_000586                         000013BE
F4_000587                         000013C0
F4_000588                         000013C4
F4_000589                         000013C8
F4_000590                         000013CA
F4_000591                         000013CC
F4_000592                         000013D0
F4_000593                         000013D4
F4_000594                         000013D6
F4_000595                         000013D8
F4_000596                         000013DC
F4_000597                         000013E0
F4_000598                         000013E2
F4_000599                         000013E4
F4_000601                         000013E8
F4_000602                         000013EC
F4_000603                         000013EE
F4_000604                         000013F0
F4_000605                         000013F4
F4_000608                         000013F6
F4_000609                         000013F8
F4_000610                         000013FA
F4_000611                         000013FC
F4_000612                         00001400
F4_000616                         00001402
F4_000617                         00001406
F4_000618                         0000140E
F4_000619                         00001412
F4_000620                         00001416
F4_000621                         00001418
F4_000622                         0000141A
F4_000623                         0000141C
F4_000624                         0000141E
F4_000625                         00001420
F4_000626                         00001424
F4_000628                         00001426
F4_000629                         0000142C
F4_000630                         00001430
F4_000631                         00001436
F4_000632                         00001438
F4_000633                         0000143A
F4_000634                         0000143C
F4_000635                         0000143E
F4_000636                         00001442
F4_000637                         00001446
F4_000638                         0000144A
F4_000639                         0000144E
F4_000640                         00001452
F4_000641                         0000145C
F4_000642                         00001460
F4_000643                         00001464
F4_000644                         00001466
F4_000646                         00001466
F4_000647                         00001468
F4_000648                         00001468
F4_000649                         0000146E
F4_000650                         00001470
F4_000651                         00001472
F4_000652                         00001474
F4_000653                         00001476
F4_000654                         00001478
F4_000655                         0000147C
F4_000656                         0000147E
F4_000657                         00001482
F4_000658                         00001486
F4_000659                         00001488
F4_000660                         000014A0
F4_000661                         000014A8
F4_000662                         000014AC
F4_000663                         000014B0
F4_000664                         000014B2
F4_000665                         000014B2
F4_000666                         000014B6
F4_000667                         000014BA
F4_000668                         000014BE
F4_000669                         000014C4
F4_000670                         000014C6
F4_000676                         000014CA
F4_000698                         000014CA
F4_000699                         000014D8
F4_000700                         000014D8
F4_000701                         000014DC
F4_000702                         000014E2
F4_000703                         000014E2
F4_000704                         000014FC
F4_000705                         0000150C
F4_000706                         00001510
F4_000708                         00001516
F4_000709                         00001524
F4_000710                         00001528
F4_000711                         0000152E
F4_000712                         00001534
F4_000713                         00001538
F4_000714                         0000153E
F4_000715                         00001544
F4_000716                         00001548
F4_000717                         0000154E
F4_000718                         00001554
F4_000719                         00001558
F4_000720                         0000155E
F4_000721                         0000156C
F4_000722                         00001572
F4_000723                         00001576
F4_000724                         00001592
F4_000725                         0000159A
F4_000726                         000015AA
F4_000727                         000015C4
F4_000728                         000015D4
F4_000729                         000015D8
F4_000731                         000015DE
F4_000732                         000015E6
F4_000733                         000015EA
F4_000734                         000015EE
F4_000735                         000015F2
F4_000736                         0000160C
F4_000737                         00001612
F4_000738                         00001612
F4_000742                         00001614
F4_000743                         00001642
F4_000744                         00001648
F4_000746                         00001650
F4_000747                         00001676
F4_000748                         0000167C
F4_000749                         00001682
F4_000750                         000016B0
F4_000751                         000016B6
F4_000752                         000016BC
F4_000753                         000016D6
F4_000754                         000016DC
F4_000755                         000016E2
F4_000756                         00001712
F4_000757                         00001718
F4_000763                         0000171A
F4_000787                         0000171A
F4_000788                         0000171C
F4_000789                         00001728
F4_000790                         0000172E
F4_000791                         00001732
F4_000792                         00001732
F4_000793                         00001738
F4_000794                         0000173C
F4_000795                         00001740
F4_000796                         00001744
F4_000797                         00001748
F4_000798                         0000174C
F4_000799                         00001790
F4_000800                         000017A0
F4_000801                         000017A4
F4_000802                         000017B4
F4_000803                         000017B6
F4_000805                         000017BC
F4_000806                         000017C6
F4_000807                         000017CC
F4_000808                         000017D0
F4_000809                         000017D0
F4_000810                         000017D6
F4_000811                         000017DE
F4_000812                         000017FE
F4_000813                         00001808
F4_000814                         00001808
F4_000815                         0000180C
F4_000816                         0000180E
F4_000817                         00001812
F4_000818                         00001818
F4_000819                         0000181A
F4_000825                         0000181E
F4_000853                         0000181E
F4_000854                         0000182A
F4_000855                         00001830
F4_000856                         00001840
F4_000857                         0000184E
F4_000858                         0000184E
F4_000859                         00001852
F4_000860                         00001858
F4_000861                         0000185C
F4_000862                         0000185E
F4_000863                         0000186A
F4_000864                         0000186C
F4_000865                         00001878
F4_000866                         000018A2
F4_000867                         000018AA
F4_000868                         000018B0
F4_000869                         000018C8
F4_000870                         000018CC
F4_000872                         000018D2
F4_000873                         000018DA
F4_000874                         000018DE
F4_000875                         000018E6
F4_000876                         0000192C
F4_000877                         0000193C
F4_000878                         0000194C
F4_000879                         00001950
F4_000881                         00001956
F4_000882                         0000195C
F4_000883                         0000195E
F4_000884                         00001966
F4_000885                         00001968
F4_000886                         0000196C
F4_000887                         00001978
F4_000888                         0000199E
F4_000889                         0000199E
F4_000895                         000019A0
F4_000924                         000019A0
F4_000949                         000019A0
F4_000950                         000019A4
F4_000951                         000019AC
F4_000952                         000019B0
F4_000953                         000019B4
F4_000954                         000019BA
F4_000955                         000019CA
F4_000956                         000019CE
F4_000957                         000019D4
F4_000958                         000019E2
F4_000959                         000019E8
F4_000960                         000019EC
F4_000961                         000019EC
F4_000962                         00001A06
F4_000963                         00001A16
F4_000964                         00001A1A
F4_000966                         00001A20
F4_000967                         00001A34
F4_000968                         00001A42
F4_000969                         00001A44
F4_000970                         00001A4A
F4_000971                         00001A54
F4_000972                         00001A58
F4_000973                         00001A6C
F4_000974                         00001A7A
F4_000975                         00001A84
F4_000976                         00001A8A
F4_000977                         00001A94
F4_000978                         00001AAA
F4_000979                         00001AB8
F4_000980                         00001AC4
F4_000981                         00001ACA
F4_000982                         00001AD4
F4_000983                         00001AE2
F4_000984                         00001AE6
F4_000985                         00001AEC
F4_000986                         00001AFA
F4_000987                         00001B00
F4_000988                         00001B0E
F4_000989                         00001B12
F4_000990                         00001B18
F4_000991                         00001B1E
F4_000992                         00001B22
F4_000993                         00001B28
F4_000994                         00001B2C
F4_000995                         00001B72
F4_000996                         00001B82
F4_000997                         00001B86
F4_000998                         00001B96
F4_000999                         00001B98
F4_001001                         00001B9E
F4_001002                         00001BA4
F4_001003                         00001BAC
F4_001004                         00001BB4
F4_001005                         00001BB6
F4_001006                         00001BBA
F4_001012                         00001BBE
F4_001030                         00001BBE
F4_001031                         00001BC2
F4_001032                         00001BCE
F4_001033                         00001BD4
F4_001034                         00001BD8
F4_001035                         00001BD8
F4_001036                         00001BDE
F4_001037                         00001BE2
F4_001038                         00001BE6
F4_001039                         00001BEA
F4_001040                         00001BEE
F4_001041                         00001BF2
F4_001042                         00001C02
F4_001043                         00001C0A
F4_001044                         00001C58
F4_001045                         00001C82
F4_001046                         00001C8A
F4_001047                         00001C90
F4_001048                         00001CC6
F4_001049                         00001CE0
F4_001050                         00001CE4
F4_001052                         00001CEA
F4_001053                         00001CEA
F4_001054                         00001CF2
F4_001055                         00001CF6
F4_001056                         00001CFE
F4_001057                         00001D3A
F4_001058                         00001D3E
F4_001059                         00001D68
F4_001060                         00001D70
F4_001061                         00001D76
F4_001062                         00001D86
F4_001063                         00001D90
F4_001064                         00001D90
F4_001065                         00001DCC
F4_001066                         00001DCE
F4_001067                         00001E14
F4_001068                         00001E2C
F4_001069                         00001E3C
F4_001070                         00001E3E
F4_001071                         00001E4E
F4_001072                         00001E52
F4_001074                         00001E58
F4_001075                         00001E62
F4_001076                         00001E68
F4_001077                         00001E6C
F4_001078                         00001E6C
F4_001079                         00001E94
F4_001080                         00001E9C
F4_001081                         00001EAA
F4_001082                         00001ECC
F4_001083                         00001ED4
F4_001084                         00001EDE
F4_001085                         00001EDE
F4_001086                         00001EDE
F4_001087                         00001EE6
F4_001088                         00001EEA
F4_001089                         00001EEC
F4_001090                         00001EFC
F4_001091                         00001EFE
F4_001097                         00001F02
F4_001108                         00001F02
F4_001109                         00001F06
F4_001110                         00001F12
F4_001111                         00001F18
F4_001112                         00001F1C
F4_001113                         00001F1C
F4_001114                         00001F22
F4_001115                         00001F26
F4_001116                         00001F2E
F4_001117                         00001F32
F4_001118                         00001F38
F4_001119                         00001F3C
F4_001120                         00001F40
F4_001121                         00001F42
F4_001122                         00001F6C
F4_001123                         00001F74
F4_001124                         00001F7A
F4_001125                         00001FB0
F4_001126                         00001FBC
F4_001127                         00001FC0
F4_001128                         00001FF2
F4_001129                         00001FF8
F4_001130                         00001FF8
F4_001131                         00002012
F4_001132                         00002016
F4_001134                         0000201C
F4_001135                         0000201C
F4_001136                         00002024
F4_001137                         00002028
F4_001138                         00002030
F4_001139                         00002038
F4_001140                         0000203C
F4_001141                         00002042
F4_001142                         00002050
F4_001143                         00002056
F4_001144                         00002064
F4_001145                         00002068
F4_001146                         0000209A
F4_001147                         000020A0
F4_001148                         000020A4
F4_001154                         000020A8
F4_001193                         000020A8
F4_001194                         000020B6
F4_001195                         000020C4
F4_001196                         000020CA
F4_001197                         000020CE
F4_001198                         000020CE
F4_001199                         000020D6
F4_001200                         000020DC
F4_001202                         000020E2
F4_001204                         00002108
F4_001205                         00002114
F4_001207                         00002122
F4_001208                         0000212E
F4_001210                         0000212E
F4_001211                         0000213A
F4_001212                         0000213C
F4_001213                         00002148
F4_001214                         0000214E
F4_001216                         00002154
F4_001217                         0000215A
F4_001218                         0000215E
F4_001219                         00002162
F4_001220                         00002166
F4_001221                         0000216A
F4_001222                         0000216E
F4_001223                         00002172
F4_001224                         00002176
F4_001225                         0000217A
F4_001226                         0000217E
F4_001227                         00002182
F4_001228                         00002186
F4_001229                         0000218A
F4_001230                         0000218E
F4_001231                         000021A2
F4_001232                         000021CE
F4_001233                         000021F8
F4_001234                         0000221C
F4_001235                         00002230
F4_001236                         0000224A
F4_001238                         00002262
F4_001239                         00002290
F4_001240                         000022BE
F4_001241                         000022EC
F4_001243                         000022F8
F4_001244                         0000230A
F4_001245                         00002318
F4_001246                         0000231C
F4_001247                         0000231E
F4_001248                         00002320
F4_001249                         00002322
F4_001250                         00002324
F4_001251                         00002326
F4_001252                         00002328
F4_001253                         0000232C
F4_001254                         0000232E
F4_001260                         00002332
F4_001318                         00002332
F4_001345                         00002332
F4_001346                         00002344
F4_001347                         00002346
F4_001348                         00002358
F4_001349                         0000236A
F4_001350                         00002370
F4_001351                         00002380
F4_001352                         0000238A
F4_EOF                            0000238C
F4_SOF                            0000060A
F5_000036                         0000238C
F5_EOF                            00002394
F5_SOF                            0000238C
F6_000012                         000024E8
F6_000013                         000024EC
F6_000014                         00002500
F6_000016                         00002516
F6_000017                         0000251A
F6_000018                         0000251E
F6_000020                         00002524
F6_000022                         00002558
F6_000023                         00002560
F6_000024                         00002566
F6_000025                         0000256A
F6_000029                         00002578
F6_000030                         0000258C
F6_000031                         00002598
F6_000032                         000025AE
F6_000033                         000025BA
F6_000034                         000025BC
F6_000036                         000025CC
F6_000037                         000025E0
F6_000038                         000025EC
F6_000039                         000025EE
F6_000040                         000025F0
F6_000042                         000025FA
F6_000043                         000025FC
F6_000044                         00002606
F6_000045                         0000260A
F6_000046                         00002616
F6_000048                         00002618
F6_000050                         0000261C
F6_000051                         00002620
F6_000052                         00002634
F6_000053                         0000263E
F6_EOF                            00002640
F6_SOF                            000024E8
F7_000012                         00002640
F7_000014                         00002644
F7_000015                         00002656
F7_000016                         00002678
F7_000018                         00002680
F7_000019                         00002698
F7_000020                         000026AA
F7_000021                         000026B2
F7_000022                         000026C0
F7_000023                         000026C4
F7_000025                         000026D0
F7_000026                         000026D2
F7_000029                         000026D2
F7_000030                         000026DC
F7_000031                         000026E6
F7_000033                         000026F2
F7_000035                         000026FC
F7_000037                         0000270E
F7_000039                         00002716
F7_000040                         00002724
F7_000042                         00002732
F7_000043                         00002740
F7_000044                         00002746
F7_000045                         00002748
F7_000046                         00002748
F7_000047                         0000274C
F7_000048                         00002760
F7_000049                         00002776
F7_000050                         00002780
F7_000051                         00002784
F7_000052                         00002786
F7_000054                         00002788
F7_000055                         0000278C
F7_000056                         000027A0
F7_000057                         000027A4
F7_000058                         000027AE
F7_000059                         000027B0
F7_000063                         000027B2
F7_000064                         000027C6
F7_000065                         000027DA
F7_000067                         000027E2
F7_000069                         000027EA
F7_000070                         000027F8
F7_000071                         000027FC
F7_000072                         00002810
F7_000073                         00002826
F7_000074                         00002830
F7_000075                         00002834
F7_000076                         00002836
F7_000078                         00002836
F7_000079                         0000284C
F7_000080                         00002860
F7_000082                         00002868
F7_000083                         0000286C
F7_000084                         0000286E
F7_000085                         00002880
F7_000086                         0000289A
F7_000087                         000028A2
F7_000088                         000028AC
F7_000089                         000028B6
F7_000090                         000028C2
F7_000092                         000028C4
F7_EOF                            000028C8
F7_SOF                            00002640
F8_000016                         000028C8
F8_000017                         000028E4
F8_000018                         000028F6
F8_000019                         000028FE
F8_000020                         0000290A
F8_000021                         0000290E
F8_000022                         0000290E
F8_000023                         00002912
F8_000025                         00002916
F8_000026                         00002932
F8_000027                         00002944
F8_000028                         0000294C
F8_000029                         0000295A
F8_000030                         0000295E
F8_000032                         0000296A
F8_000033                         0000296C
F8_000039                         0000296C
F8_000040                         00002970
F8_EOF                            00002972
F8_SOF                            000028C8
F9_000013                         00002972
F9_000015                         00002986
F9_000016                         000029A0
F9_000017                         000029AC
F9_000018                         000029AE
F9_000019                         000029AE
F9_000022                         000029B8
F9_000023                         000029BC
F9_000024                         000029C8
F9_000025                         000029D2
F9_EOF                            000029D4
F9_SOF                            00002972
F@CALL                            
F@JUMP                            
FCMEN_OFF_1                       000000BF
FCMEN_ON_1                        000000FF
FERR                              00000002
FLAG                              _B#VR1,1
FLOAT_BIT                         
FLOAT_BYTE                        
FLOAT_DWORD                       
FLOAT_FLOAT                       
FLOAT_WORD                        
FLOAT_WREG                        
FLTS                              00000002
FR@LB104                          00000E9E
FR@LB106                          00000ED2
FR@LB12                           0000069C
FR@LB168                          00001A24
FR@LB170                          00001A5C
FR@LB172                          00001A9A
FR@LB203                          00002348
FR@LB22                           0000076A
FR@LB223                          0000257C
FR@LB230                          00002646
FR@LB24                           0000078A
FR@LB241                          000027B6
FR@LB245                          0000283C
FR@LB247                          00002870
FR@LB253                          00002976
FR@LB266                          00002A8A
FR@LB270                          00002AF4
FR@LB272                          00002AFA
FR@LB274                          00002BB6
FR@LB278                          00002C1A
FR@LB280                          00002C20
FR@LB282                          00002CBA
FR@LB290                          00002DE2
FR@LB292                          00002E54
FR@LB298                          00002F7E
FR@LB300                          00003004
FR@LB36                           00000878
FR@LB38                           00000894
FR@LB45                           00000992
FR@LB47                           000009D6
FR@LB53                           00000AE8
FR@LB58                           00000B42
FR@LB62                           00000BA4
FR@LB66                           00000C4C
FR@LB68                           00000C92
FR@LB70                           00000CA6
FR@LB82                           00000D6A
FR@LB86                           00000DB8
FREE                              00000004
FSR0H                             00000FEA
FSR0L                             00000FE9
FSR0LH                            00000FEA
FSR1H                             00000FE2
FSR1L                             00000FE1
FSR1LH                            00000FE2
FSR2H                             00000FDA
FSR2L                             00000FD9
FSR2LH                            00000FDA
FTO@I_1                           00000432
FTO@I_2                           00000448
FTO@I_3                           0000044A
FTO@I_4                           0000044E
FTO@I_5                           0000045E
FTO@I_6                           0000047C
FTO@I_ASSIGNW                     00000496
FTO@I_OVERFLOW                    00000492
FTO@I_RES0                        0000048E
FTO@I_RET                         000004A0
G@OTO                             
GCEN                              00000007
GEN                               00000002
GEN3H                             00000003
GEN4                              00000004
GEN4H                             00000005
GENH                              00000006
GIE                               00000007
GIEH                              00000007
GIEL                              00000006
GO                                00000001
GO@TO                             
GOSLEEP                           00003040
GO_DONE                           00000001
GPR                               00000007
H@RSIN                            000001DE
HLVDCON                           00000FD2
HLVDEN                            00000004
HLVDIE                            00000002
HLVDIF                            00000002
HLVDIN                            00000005
HLVDIP                            00000002
HLVDL0                            00000000
HLVDL1                            00000001
HLVDL2                            00000002
HLVDL3                            00000003
HRI@L                             000001B2
HRI@L0                            000001AE
HRSIN                             000001D4
HRSIN2                            0000019C
HSERIAL_BAUD                      00002580
HSERIAL_RCSTA                     00000090
HSERIAL_SPBRG                     00000006
HSERIAL_TXSTA                     00000020
IBF                               00000007
IBOV                              00000005
IDLEN                             00000007
IDLOC0                            00200000
IDLOC1                            00200001
IDLOC2                            00200002
IDLOC3                            00200003
IDLOC4                            00200004
IDLOC5                            00200005
IDLOC6                            00200006
IDLOC7                            00200007
IESO_OFF_1                        0000007F
IESO_ON_1                         000000FF
INDEX                             000003F0
INDEX2                            000003F1
INDF0                             00000FEF
INDF1                             00000FE7
INDF2                             00000FDF
INIT_SD                           00002972
INT0                              00000000
INT0E                             00000004
INT0F                             00000001
INT0IE                            00000004
INT0IF                            00000001
INT1                              00000001
INT1E                             00000003
INT1F                             00000000
INT1IE                            00000003
INT1IF                            00000000
INT1IP                            00000006
INT1P                             00000006
INT2                              00000002
INT2E                             00000004
INT2F                             00000001
INT2IE                            00000004
INT2IF                            00000001
INT2IP                            00000007
INT2P                             00000007
INT@3232                          00000404
INTCON                            00000FF2
INTCON2                           00000FF1
INTCON3                           00000FF0
INTEDG0                           00000006
INTEDG1                           00000005
INTEDG2                           00000004
INTSRC                            00000007
IOFS                              00000002
IPEN                              00000007
IPR1                              00000F9F
IPR2                              00000FA2
IRCF0                             00000004
IRCF1                             00000005
IRCF2                             00000006
IRVST                             00000005
IVRST                             00000005
JUMP                              
KBI0                              00000004
KBI1                              00000005
KBI2                              00000006
KBI3                              00000007
L@DIV                             0000028A
L@MOD                             0000028A
LABEL_WORD                        
LATA                              00000F89
LATA0                             00000000
LATA1                             00000001
LATA2                             00000002
LATA3                             00000003
LATA4                             00000004
LATA5                             00000005
LATA6                             00000006
LATA7                             00000007
LATB                              00000F8A
LATB0                             00000000
LATB1                             00000001
LATB2                             00000002
LATB3                             00000003
LATB4                             00000004
LATB5                             00000005
LATB6                             00000006
LATB7                             00000007
LATC                              00000F8B
LATC0                             00000000
LATC1                             00000001
LATC2                             00000002
LATC3                             00000003
LATC4                             00000004
LATC5                             00000005
LATC6                             00000006
LATC7                             00000007
LATD                              00000F8C
LATD0                             00000000
LATD1                             00000001
LATD2                             00000002
LATD3                             00000003
LATD4                             00000004
LATD5                             00000005
LATD6                             00000006
LATD7                             00000007
LATE                              00000F8D
LATE0                             00000000
LATE1                             00000001
LATE2                             00000002
LCD#DTPIN                         0
LCD#DTPORT                        PORTD
LCD#ENPIN                         6
LCD#ENPORT                        PORTD
LCD#INTERFACE                     4
LCD#LINES                         2
LCD#RSPIN                         7
LCD#RSPORT                        PORTD
LCD#TYPE                          0
LCD@CLS                           00000034
LCD@CRS                           0000004E
LOAD@MSTR                         000003F4
LOAD@MSTRL                        000003F4
LPT1OSC_OFF_3                     000000FB
LPT1OSC_ON_3                      000000FF
LST_PRM_NAME                      000003F2
LST_PRM_TYPE                      00000002
LVDCON                            00000FD2
LVDEN                             00000004
LVDIE                             00000002
LVDIF                             00000002
LVDIN                             00000005
LVDIP                             00000002
LVDL0                             00000000
LVDL1                             00000001
LVDL2                             00000002
LVDL3                             00000003
LVP_OFF_4                         000000FB
LVP_ON_4                          000000FF
LVV0                              00000000
LVV1                              00000001
LVV2                              00000002
LVV3                              00000003
MAX_PARAMS                        0000000A
MCLR                              00000003
MCLRE_OFF_3                       0000007F
MCLRE_ON_3                        000000FF
MHA                               912
MHAH                              3
MODNUM                            000003E6
MODNUM#0                          000003E6
MODNUM#1                          000003E7
MODNUM#2                          000003E8
MODNUM#3                          000003E9
MODNUM#4                          000003EA
MODNUM#5                          000003EB
MODNUM#6                          000003EC
MOVFW                             
MYCOUNT                           000003EF
MYNUM                             000003F5
MYNUM#0                           000003F5
MYNUM#1                           000003F6
MYNUM#2                           000003F7
MYNUM#3                           000003F8
N                                 00000004
NEGW                              NEGF WREG
NEXTTAG                           00002A10
NOT_A                             00000005
NOT_ADDRESS                       00000005
NOT_BOR                           00000000
NOT_CS                            00000002
NOT_DONE                          00000001
NOT_MCLR                          00000003
NOT_PD                            00000002
NOT_POR                           00000001
NOT_RBPU                          00000007
NOT_RD                            00000000
NOT_RI                            00000004
NOT_SS                            00000005
NOT_T1SYNC                        00000002
NOT_T3SYNC                        00000002
NOT_TO                            00000003
NOT_W                             00000002
NOT_WR                            00000001
NOT_WRITE                         00000002
NOU                               2
NUM_BIT                           
NUM_BYTE                          
NUM_DWORD                         
NUM_FLOAT                         
NUM_FSR0                          
NUM_FSR1                          
NUM_FSR2                          
NUM_MH                            10
NUM_MHE                           4
NUM_UH                            200
NUM_UHE                           3
NUM_WORD                          
NUM_WREG                          
NX@LB105                          00000ECC
NX@LB107                          00000F06
NX@LB13                           000006BE
NX@LB169                          00001A54
NX@LB171                          00001A94
NX@LB173                          00001AD4
NX@LB204                          0000238A
NX@LB224                          00002606
NX@LB23                           00000788
NX@LB231                          00002680
NX@LB242                          000027E2
NX@LB246                          00002868
NX@LB248                          000028A2
NX@LB25                           000007A8
NX@LB254                          000029B8
NX@LB267                          00002AC4
NX@LB271                          00002BAE
NX@LB273                          00002BA2
NX@LB275                          00002BEA
NX@LB279                          00002CB6
NX@LB281                          00002CAA
NX@LB283                          00002CEE
NX@LB291                          00002E44
NX@LB293                          00002EB6
NX@LB299                          00002FBA
NX@LB301                          0000303E
NX@LB37                           00000892
NX@LB39                           000008AE
NX@LB46                           00000A98
NX@LB48                           00000A86
NX@LB54                           00000B2E
NX@LB59                           00000B9C
NX@LB63                           00000C04
NX@LB67                           00000F32
NX@LB69                           00000F20
NX@LB71                           00000D1A
NX@LB83                           00000DB2
NX@LB87                           00000E02
OBF                               00000006
OERR                              00000001
OSCCON                            00000FD3
OSCFIE                            00000007
OSCFIF                            00000007
OSCFIP                            00000007
OSCTUNE                           00000F9B
OSC_ECIO6_1                       000000F5
OSC_EC_1                          000000F4
OSC_HSPLL_1                       000000F6
OSC_HS_1                          000000F2
OSC_INTIO67_1                     000000F8
OSC_INTIO7_1                      000000F9
OSC_LP_1                          000000F0
OSC_RCIO6_1                       000000F7
OSC_RC_1                          000000F3
OSC_XT_1                          000000F1
OSTS                              00000003
OUT@DEC                           00000066
OUT@DECB                          00000060
OUT@DECC                          00000062
OV                                00000003
OVERLIBCODE                       0000238C
P                                 00000004
P1B                               00000005
P1C                               00000006
P1D                               00000007
P1M0                              00000006
P1M1                              00000007
PB@LB216                          000024E6
PB@LB217                          0000252C
PB@LB220                          00002546
PB@LB240                          00002784
PBADEN_OFF_3                      000000FD
PBADEN_ON_3                       000000FF
PBP#VAR0                          00000008
PBP#VAR0H                         00000009
PBP#VAR0HH                        0000000A
PBP#VAR0HHH                       0000000B
PBP#VAR1                          0000000C
PBP_AARG                          0000000D
PBP_AARGH                         0000000E
PBP_AARGHH                        0000000F
PBP_AARGHHH                       00000010
PC                                00000FF9
PCFG0                             00000000
PCFG1                             00000001
PCFG2                             00000002
PCFG3                             00000003
PCL                               00000FF9
PCLATH                            00000FFA
PCLATU                            00000FFB
PD                                00000002
PDC0                              00000000
PDC1                              00000001
PDC2                              00000002
PDC3                              00000003
PDC4                              00000004
PDC5                              00000005
PDC6                              00000006
PEIE                              00000006
PEN                               00000002
PGC                               00000006
PGD                               00000007
PGM                               00000005
PIE1                              00000F9D
PIE2                              00000FA0
PIR1                              00000F9E
PIR2                              00000FA1
PLLEN                             00000006
PLUSW0                            00000FEB
PLUSW1                            00000FE3
PLUSW2                            00000FDB
POR                               00000001
PORTA                             00000F80
PORTB                             00000F81
PORTC                             00000F82
PORTD                             00000F83
PORTE                             00000F84
POSTDEC0                          00000FED
POSTDEC1                          00000FE5
POSTDEC2                          00000FDD
POSTINC0                          00000FEE
POSTINC1                          00000FE6
POSTINC2                          00000FDE
PP0                               00000011
PP0H                              00000012
PP0HH                             00000013
PP0HHH                            00000014
PP1                               00000015
PP1H                              00000016
PP1HH                             00000017
PP1HHH                            00000018
PP2                               00000019
PP2H                              0000001A
PP2HH                             0000001B
PP2HHH                            0000001C
PP3                               0000001D
PP3H                              0000001E
PP4                               0000001F
PP5                               00000020
PP6                               00000021
PP6H                              00000022
PP7                               00000023
PP7H                              00000024
PP7HH                             00000025
PP7HHH                            00000026
PP8                               00000027
PP8H                              00000028
PPZ                               00000029
PPZH                              0000002A
PPZHH                             0000002B
PPZHHH                            0000002C
PP_ACKEN                          00000004
PP_ADON                           00000000
PP_CREN                           00000004
PP_EEPGD                          00000007
PP_GO_DONE                        00000001
PP_OERR                           00000001
PP_PEN                            00000002
PP_RCEN                           00000003
PP_RCIF                           00000005
PP_RD                             00000000
PP_RSEN                           00000001
PP_R_W                            00000002
PP_SEN                            00000000
PP_T2CKPS0                        00000000
PP_T2CKPS1                        00000001
PP_TMR2ON                         00000002
PP_TXIF                           00000004
PP_WR                             00000001
PP_WREN                           00000002
PR2                               00000FCB
PR@CC                             0000016E
PR@CM                             00000150
PR@EX                             00000198
PR@LP                             0000017A
PR@SD                             00000176
PREINC0                           00000FEC
PREINC1                           00000FE4
PREINC2                           00000FDC
PRINT                             000000F6
PRINT@MSTR                        000000E6
PRINT@MSTRL                       000000E6
PRM_1                             00000008
PRM_10                            00000000
PRM_2                             00000000
PRM_3                             00000000
PRM_4                             00000000
PRM_5                             00000000
PRM_6                             00000000
PRM_7                             00000000
PRM_8                             00000000
PRM_9                             00000000
PRM_COUNT                         00000000
PRODH                             00000FF4
PRODL                             00000FF3
PRODLH                            00000FF4
PROTON#CODE#START                 00000000
PROTON#MAIN#START                 000005F6
PRSEN                             00000007
PRT@1                             00000152
PRT@MTEXT                         000000F4
PRT@MTL1                          000000EA
PSA                               00000003
PSP0                              00000000
PSP1                              00000001
PSP2                              00000002
PSP3                              00000003
PSP4                              00000004
PSP5                              00000005
PSP6                              00000006
PSP7                              00000007
PSPIE                             00000007
PSPIF                             00000007
PSPIP                             00000007
PSPMODE                           00000004
PSSAC0                            00000002
PSSAC1                            00000003
PSSBD0                            00000000
PSSBD1                            00000001
PWM1CON                           00000FB7
PWRT_OFF_2                        000000FF
PWRT_ON_2                         000000FE
R                                 00000002
R@B                               
RA0                               00000000
RA1                               00000001
RA2                               00000002
RA3                               00000003
RA4                               00000004
RA5                               00000005
RA6                               00000006
RA7                               00000007
RAM_BANK                          00000000
RAM_BANKS                         15
RB0                               00000000
RB1                               00000001
RB2                               00000002
RB3                               00000003
RB4                               00000004
RB5                               00000005
RB6                               00000006
RB7                               00000007
RBIE                              00000003
RBIF                              00000000
RBIP                              00000000
RBPU                              00000007
RC0                               00000000
RC1                               00000001
RC2                               00000002
RC3                               00000003
RC4                               00000004
RC5                               00000005
RC6                               00000006
RC7                               00000007
RCEN                              00000003
RCIDL                             00000006
RCIE                              00000005
RCIF                              00000005
RCIP                              00000005
RCMT                              00000006
RCON                              00000FD0
RCREG                             00000FAE
RCSTA                             00000FAB
RD                                00000000
RD0                               00000000
RD1                               00000001
RD16                              00000007
RD2                               00000002
RD3                               00000003
RD4                               00000004
RD5                               00000005
RD6                               00000006
RD7                               00000007
RE0                               00000000
RE1                               00000001
RE2                               00000002
RE3                               00000003
READ_MOD                          00003000
READ_SD                           00002640
READ_TAG                          000024E8
RESPONSE                          000003ED
RETURN_TYPE                       00000002
RETURN_VAR                        000003ED
RFIDENABLE                        PORTD,4
RI                                00000004
RLF                               
RRF                               
RSEN                              00000001
RX                                00000007
RX9                               00000006
RX9D                              00000000
R_W                               00000002
S                                 00000003
S@B                               
SB@STROUT                         000000C4
SB@STROUTLP                       000000C6
SBOREN                            00000006
SCK                               00000003
SCKP                              00000004
SCL                               00000003
SCS0                              00000000
SCS1                              00000001
SDA                               00000004
SDI                               00000004
SDO                               00000005
SD_ADDRESS                        00000038
SD_ADDRESSH                       00000039
SD_ADDRESSHH                      0000003A
SD_ADDRESSHHH                     0000003B
SD_APPEND_FILE                    
SD_APPEND_FILE#REQ                1
SD_APPEND_FILE_RETURN             00000001
SD_APPEND_FILE_SUB                00001BBE
SD_ASSEMBLE_FAT_SECTOR            00000FA0
SD_ASSEMBLE_FAT_SECTOR_END_CLOSE  00001036
SD_ASSEMBLE_FAT_SECTOR_END_CONT   00001004
SD_BOOT_RECORD                    00000265
SD_BOOT_RECORDH                   00000266
SD_BUFFER0                        00000041
SD_BUFFER0#0                      00000041
SD_BUFFER0#1                      00000042
SD_BUFFER0#10                     0000004B
SD_BUFFER0#100                    000000A5
SD_BUFFER0#101                    000000A6
SD_BUFFER0#102                    000000A7
SD_BUFFER0#103                    000000A8
SD_BUFFER0#104                    000000A9
SD_BUFFER0#105                    000000AA
SD_BUFFER0#106                    000000AB
SD_BUFFER0#107                    000000AC
SD_BUFFER0#108                    000000AD
SD_BUFFER0#109                    000000AE
SD_BUFFER0#11                     0000004C
SD_BUFFER0#110                    000000AF
SD_BUFFER0#111                    000000B0
SD_BUFFER0#112                    000000B1
SD_BUFFER0#113                    000000B2
SD_BUFFER0#114                    000000B3
SD_BUFFER0#115                    000000B4
SD_BUFFER0#116                    000000B5
SD_BUFFER0#117                    000000B6
SD_BUFFER0#118                    000000B7
SD_BUFFER0#119                    000000B8
SD_BUFFER0#12                     0000004D
SD_BUFFER0#120                    000000B9
SD_BUFFER0#121                    000000BA
SD_BUFFER0#122                    000000BB
SD_BUFFER0#123                    000000BC
SD_BUFFER0#124                    000000BD
SD_BUFFER0#125                    000000BE
SD_BUFFER0#126                    000000BF
SD_BUFFER0#127                    000000C0
SD_BUFFER0#128                    000000C1
SD_BUFFER0#129                    000000C2
SD_BUFFER0#13                     0000004E
SD_BUFFER0#130                    000000C3
SD_BUFFER0#131                    000000C4
SD_BUFFER0#132                    000000C5
SD_BUFFER0#133                    000000C6
SD_BUFFER0#134                    000000C7
SD_BUFFER0#135                    000000C8
SD_BUFFER0#136                    000000C9
SD_BUFFER0#137                    000000CA
SD_BUFFER0#138                    000000CB
SD_BUFFER0#139                    000000CC
SD_BUFFER0#14                     0000004F
SD_BUFFER0#140                    000000CD
SD_BUFFER0#141                    000000CE
SD_BUFFER0#142                    000000CF
SD_BUFFER0#143                    000000D0
SD_BUFFER0#144                    000000D1
SD_BUFFER0#145                    000000D2
SD_BUFFER0#146                    000000D3
SD_BUFFER0#147                    000000D4
SD_BUFFER0#148                    000000D5
SD_BUFFER0#149                    000000D6
SD_BUFFER0#15                     00000050
SD_BUFFER0#150                    000000D7
SD_BUFFER0#151                    000000D8
SD_BUFFER0#152                    000000D9
SD_BUFFER0#153                    000000DA
SD_BUFFER0#154                    000000DB
SD_BUFFER0#155                    000000DC
SD_BUFFER0#156                    000000DD
SD_BUFFER0#157                    000000DE
SD_BUFFER0#158                    000000DF
SD_BUFFER0#159                    000000E0
SD_BUFFER0#16                     00000051
SD_BUFFER0#160                    000000E1
SD_BUFFER0#161                    000000E2
SD_BUFFER0#162                    000000E3
SD_BUFFER0#163                    000000E4
SD_BUFFER0#164                    000000E5
SD_BUFFER0#165                    000000E6
SD_BUFFER0#166                    000000E7
SD_BUFFER0#167                    000000E8
SD_BUFFER0#168                    000000E9
SD_BUFFER0#169                    000000EA
SD_BUFFER0#17                     00000052
SD_BUFFER0#170                    000000EB
SD_BUFFER0#171                    000000EC
SD_BUFFER0#172                    000000ED
SD_BUFFER0#173                    000000EE
SD_BUFFER0#174                    000000EF
SD_BUFFER0#175                    000000F0
SD_BUFFER0#176                    000000F1
SD_BUFFER0#177                    000000F2
SD_BUFFER0#178                    000000F3
SD_BUFFER0#179                    000000F4
SD_BUFFER0#18                     00000053
SD_BUFFER0#180                    000000F5
SD_BUFFER0#181                    000000F6
SD_BUFFER0#182                    000000F7
SD_BUFFER0#183                    000000F8
SD_BUFFER0#184                    000000F9
SD_BUFFER0#185                    000000FA
SD_BUFFER0#186                    000000FB
SD_BUFFER0#187                    000000FC
SD_BUFFER0#188                    000000FD
SD_BUFFER0#189                    000000FE
SD_BUFFER0#19                     00000054
SD_BUFFER0#190                    000000FF
SD_BUFFER0#191                    00000100
SD_BUFFER0#192                    00000101
SD_BUFFER0#193                    00000102
SD_BUFFER0#194                    00000103
SD_BUFFER0#195                    00000104
SD_BUFFER0#196                    00000105
SD_BUFFER0#197                    00000106
SD_BUFFER0#198                    00000107
SD_BUFFER0#199                    00000108
SD_BUFFER0#2                      00000043
SD_BUFFER0#20                     00000055
SD_BUFFER0#200                    00000109
SD_BUFFER0#201                    0000010A
SD_BUFFER0#202                    0000010B
SD_BUFFER0#203                    0000010C
SD_BUFFER0#204                    0000010D
SD_BUFFER0#205                    0000010E
SD_BUFFER0#206                    0000010F
SD_BUFFER0#207                    00000110
SD_BUFFER0#208                    00000111
SD_BUFFER0#209                    00000112
SD_BUFFER0#21                     00000056
SD_BUFFER0#210                    00000113
SD_BUFFER0#211                    00000114
SD_BUFFER0#212                    00000115
SD_BUFFER0#213                    00000116
SD_BUFFER0#214                    00000117
SD_BUFFER0#215                    00000118
SD_BUFFER0#216                    00000119
SD_BUFFER0#217                    0000011A
SD_BUFFER0#218                    0000011B
SD_BUFFER0#219                    0000011C
SD_BUFFER0#22                     00000057
SD_BUFFER0#220                    0000011D
SD_BUFFER0#221                    0000011E
SD_BUFFER0#222                    0000011F
SD_BUFFER0#223                    00000120
SD_BUFFER0#224                    00000121
SD_BUFFER0#225                    00000122
SD_BUFFER0#226                    00000123
SD_BUFFER0#227                    00000124
SD_BUFFER0#228                    00000125
SD_BUFFER0#229                    00000126
SD_BUFFER0#23                     00000058
SD_BUFFER0#230                    00000127
SD_BUFFER0#231                    00000128
SD_BUFFER0#232                    00000129
SD_BUFFER0#233                    0000012A
SD_BUFFER0#234                    0000012B
SD_BUFFER0#235                    0000012C
SD_BUFFER0#236                    0000012D
SD_BUFFER0#237                    0000012E
SD_BUFFER0#238                    0000012F
SD_BUFFER0#239                    00000130
SD_BUFFER0#24                     00000059
SD_BUFFER0#240                    00000131
SD_BUFFER0#241                    00000132
SD_BUFFER0#242                    00000133
SD_BUFFER0#243                    00000134
SD_BUFFER0#244                    00000135
SD_BUFFER0#245                    00000136
SD_BUFFER0#246                    00000137
SD_BUFFER0#247                    00000138
SD_BUFFER0#248                    00000139
SD_BUFFER0#249                    0000013A
SD_BUFFER0#25                     0000005A
SD_BUFFER0#250                    0000013B
SD_BUFFER0#251                    0000013C
SD_BUFFER0#252                    0000013D
SD_BUFFER0#253                    0000013E
SD_BUFFER0#254                    0000013F
SD_BUFFER0#255                    00000140
SD_BUFFER0#26                     0000005B
SD_BUFFER0#27                     0000005C
SD_BUFFER0#28                     0000005D
SD_BUFFER0#29                     0000005E
SD_BUFFER0#3                      00000044
SD_BUFFER0#30                     0000005F
SD_BUFFER0#31                     00000060
SD_BUFFER0#32                     00000061
SD_BUFFER0#33                     00000062
SD_BUFFER0#34                     00000063
SD_BUFFER0#35                     00000064
SD_BUFFER0#36                     00000065
SD_BUFFER0#37                     00000066
SD_BUFFER0#38                     00000067
SD_BUFFER0#39                     00000068
SD_BUFFER0#4                      00000045
SD_BUFFER0#40                     00000069
SD_BUFFER0#41                     0000006A
SD_BUFFER0#42                     0000006B
SD_BUFFER0#43                     0000006C
SD_BUFFER0#44                     0000006D
SD_BUFFER0#45                     0000006E
SD_BUFFER0#46                     0000006F
SD_BUFFER0#47                     00000070
SD_BUFFER0#48                     00000071
SD_BUFFER0#49                     00000072
SD_BUFFER0#5                      00000046
SD_BUFFER0#50                     00000073
SD_BUFFER0#51                     00000074
SD_BUFFER0#52                     00000075
SD_BUFFER0#53                     00000076
SD_BUFFER0#54                     00000077
SD_BUFFER0#55                     00000078
SD_BUFFER0#56                     00000079
SD_BUFFER0#57                     0000007A
SD_BUFFER0#58                     0000007B
SD_BUFFER0#59                     0000007C
SD_BUFFER0#6                      00000047
SD_BUFFER0#60                     0000007D
SD_BUFFER0#61                     0000007E
SD_BUFFER0#62                     0000007F
SD_BUFFER0#63                     00000080
SD_BUFFER0#64                     00000081
SD_BUFFER0#65                     00000082
SD_BUFFER0#66                     00000083
SD_BUFFER0#67                     00000084
SD_BUFFER0#68                     00000085
SD_BUFFER0#69                     00000086
SD_BUFFER0#7                      00000048
SD_BUFFER0#70                     00000087
SD_BUFFER0#71                     00000088
SD_BUFFER0#72                     00000089
SD_BUFFER0#73                     0000008A
SD_BUFFER0#74                     0000008B
SD_BUFFER0#75                     0000008C
SD_BUFFER0#76                     0000008D
SD_BUFFER0#77                     0000008E
SD_BUFFER0#78                     0000008F
SD_BUFFER0#79                     00000090
SD_BUFFER0#8                      00000049
SD_BUFFER0#80                     00000091
SD_BUFFER0#81                     00000092
SD_BUFFER0#82                     00000093
SD_BUFFER0#83                     00000094
SD_BUFFER0#84                     00000095
SD_BUFFER0#85                     00000096
SD_BUFFER0#86                     00000097
SD_BUFFER0#87                     00000098
SD_BUFFER0#88                     00000099
SD_BUFFER0#89                     0000009A
SD_BUFFER0#9                      0000004A
SD_BUFFER0#90                     0000009B
SD_BUFFER0#91                     0000009C
SD_BUFFER0#92                     0000009D
SD_BUFFER0#93                     0000009E
SD_BUFFER0#94                     0000009F
SD_BUFFER0#95                     000000A0
SD_BUFFER0#96                     000000A1
SD_BUFFER0#97                     000000A2
SD_BUFFER0#98                     000000A3
SD_BUFFER0#99                     000000A4
SD_BUFFER1                        00000141
SD_BUFFER1#0                      00000141
SD_BUFFER1#1                      00000142
SD_BUFFER1#10                     0000014B
SD_BUFFER1#100                    000001A5
SD_BUFFER1#101                    000001A6
SD_BUFFER1#102                    000001A7
SD_BUFFER1#103                    000001A8
SD_BUFFER1#104                    000001A9
SD_BUFFER1#105                    000001AA
SD_BUFFER1#106                    000001AB
SD_BUFFER1#107                    000001AC
SD_BUFFER1#108                    000001AD
SD_BUFFER1#109                    000001AE
SD_BUFFER1#11                     0000014C
SD_BUFFER1#110                    000001AF
SD_BUFFER1#111                    000001B0
SD_BUFFER1#112                    000001B1
SD_BUFFER1#113                    000001B2
SD_BUFFER1#114                    000001B3
SD_BUFFER1#115                    000001B4
SD_BUFFER1#116                    000001B5
SD_BUFFER1#117                    000001B6
SD_BUFFER1#118                    000001B7
SD_BUFFER1#119                    000001B8
SD_BUFFER1#12                     0000014D
SD_BUFFER1#120                    000001B9
SD_BUFFER1#121                    000001BA
SD_BUFFER1#122                    000001BB
SD_BUFFER1#123                    000001BC
SD_BUFFER1#124                    000001BD
SD_BUFFER1#125                    000001BE
SD_BUFFER1#126                    000001BF
SD_BUFFER1#127                    000001C0
SD_BUFFER1#128                    000001C1
SD_BUFFER1#129                    000001C2
SD_BUFFER1#13                     0000014E
SD_BUFFER1#130                    000001C3
SD_BUFFER1#131                    000001C4
SD_BUFFER1#132                    000001C5
SD_BUFFER1#133                    000001C6
SD_BUFFER1#134                    000001C7
SD_BUFFER1#135                    000001C8
SD_BUFFER1#136                    000001C9
SD_BUFFER1#137                    000001CA
SD_BUFFER1#138                    000001CB
SD_BUFFER1#139                    000001CC
SD_BUFFER1#14                     0000014F
SD_BUFFER1#140                    000001CD
SD_BUFFER1#141                    000001CE
SD_BUFFER1#142                    000001CF
SD_BUFFER1#143                    000001D0
SD_BUFFER1#144                    000001D1
SD_BUFFER1#145                    000001D2
SD_BUFFER1#146                    000001D3
SD_BUFFER1#147                    000001D4
SD_BUFFER1#148                    000001D5
SD_BUFFER1#149                    000001D6
SD_BUFFER1#15                     00000150
SD_BUFFER1#150                    000001D7
SD_BUFFER1#151                    000001D8
SD_BUFFER1#152                    000001D9
SD_BUFFER1#153                    000001DA
SD_BUFFER1#154                    000001DB
SD_BUFFER1#155                    000001DC
SD_BUFFER1#156                    000001DD
SD_BUFFER1#157                    000001DE
SD_BUFFER1#158                    000001DF
SD_BUFFER1#159                    000001E0
SD_BUFFER1#16                     00000151
SD_BUFFER1#160                    000001E1
SD_BUFFER1#161                    000001E2
SD_BUFFER1#162                    000001E3
SD_BUFFER1#163                    000001E4
SD_BUFFER1#164                    000001E5
SD_BUFFER1#165                    000001E6
SD_BUFFER1#166                    000001E7
SD_BUFFER1#167                    000001E8
SD_BUFFER1#168                    000001E9
SD_BUFFER1#169                    000001EA
SD_BUFFER1#17                     00000152
SD_BUFFER1#170                    000001EB
SD_BUFFER1#171                    000001EC
SD_BUFFER1#172                    000001ED
SD_BUFFER1#173                    000001EE
SD_BUFFER1#174                    000001EF
SD_BUFFER1#175                    000001F0
SD_BUFFER1#176                    000001F1
SD_BUFFER1#177                    000001F2
SD_BUFFER1#178                    000001F3
SD_BUFFER1#179                    000001F4
SD_BUFFER1#18                     00000153
SD_BUFFER1#180                    000001F5
SD_BUFFER1#181                    000001F6
SD_BUFFER1#182                    000001F7
SD_BUFFER1#183                    000001F8
SD_BUFFER1#184                    000001F9
SD_BUFFER1#185                    000001FA
SD_BUFFER1#186                    000001FB
SD_BUFFER1#187                    000001FC
SD_BUFFER1#188                    000001FD
SD_BUFFER1#189                    000001FE
SD_BUFFER1#19                     00000154
SD_BUFFER1#190                    000001FF
SD_BUFFER1#191                    00000200
SD_BUFFER1#192                    00000201
SD_BUFFER1#193                    00000202
SD_BUFFER1#194                    00000203
SD_BUFFER1#195                    00000204
SD_BUFFER1#196                    00000205
SD_BUFFER1#197                    00000206
SD_BUFFER1#198                    00000207
SD_BUFFER1#199                    00000208
SD_BUFFER1#2                      00000143
SD_BUFFER1#20                     00000155
SD_BUFFER1#200                    00000209
SD_BUFFER1#201                    0000020A
SD_BUFFER1#202                    0000020B
SD_BUFFER1#203                    0000020C
SD_BUFFER1#204                    0000020D
SD_BUFFER1#205                    0000020E
SD_BUFFER1#206                    0000020F
SD_BUFFER1#207                    00000210
SD_BUFFER1#208                    00000211
SD_BUFFER1#209                    00000212
SD_BUFFER1#21                     00000156
SD_BUFFER1#210                    00000213
SD_BUFFER1#211                    00000214
SD_BUFFER1#212                    00000215
SD_BUFFER1#213                    00000216
SD_BUFFER1#214                    00000217
SD_BUFFER1#215                    00000218
SD_BUFFER1#216                    00000219
SD_BUFFER1#217                    0000021A
SD_BUFFER1#218                    0000021B
SD_BUFFER1#219                    0000021C
SD_BUFFER1#22                     00000157
SD_BUFFER1#220                    0000021D
SD_BUFFER1#221                    0000021E
SD_BUFFER1#222                    0000021F
SD_BUFFER1#223                    00000220
SD_BUFFER1#224                    00000221
SD_BUFFER1#225                    00000222
SD_BUFFER1#226                    00000223
SD_BUFFER1#227                    00000224
SD_BUFFER1#228                    00000225
SD_BUFFER1#229                    00000226
SD_BUFFER1#23                     00000158
SD_BUFFER1#230                    00000227
SD_BUFFER1#231                    00000228
SD_BUFFER1#232                    00000229
SD_BUFFER1#233                    0000022A
SD_BUFFER1#234                    0000022B
SD_BUFFER1#235                    0000022C
SD_BUFFER1#236                    0000022D
SD_BUFFER1#237                    0000022E
SD_BUFFER1#238                    0000022F
SD_BUFFER1#239                    00000230
SD_BUFFER1#24                     00000159
SD_BUFFER1#240                    00000231
SD_BUFFER1#241                    00000232
SD_BUFFER1#242                    00000233
SD_BUFFER1#243                    00000234
SD_BUFFER1#244                    00000235
SD_BUFFER1#245                    00000236
SD_BUFFER1#246                    00000237
SD_BUFFER1#247                    00000238
SD_BUFFER1#248                    00000239
SD_BUFFER1#249                    0000023A
SD_BUFFER1#25                     0000015A
SD_BUFFER1#250                    0000023B
SD_BUFFER1#251                    0000023C
SD_BUFFER1#252                    0000023D
SD_BUFFER1#253                    0000023E
SD_BUFFER1#254                    0000023F
SD_BUFFER1#255                    00000240
SD_BUFFER1#26                     0000015B
SD_BUFFER1#27                     0000015C
SD_BUFFER1#28                     0000015D
SD_BUFFER1#29                     0000015E
SD_BUFFER1#3                      00000144
SD_BUFFER1#30                     0000015F
SD_BUFFER1#31                     00000160
SD_BUFFER1#32                     00000161
SD_BUFFER1#33                     00000162
SD_BUFFER1#34                     00000163
SD_BUFFER1#35                     00000164
SD_BUFFER1#36                     00000165
SD_BUFFER1#37                     00000166
SD_BUFFER1#38                     00000167
SD_BUFFER1#39                     00000168
SD_BUFFER1#4                      00000145
SD_BUFFER1#40                     00000169
SD_BUFFER1#41                     0000016A
SD_BUFFER1#42                     0000016B
SD_BUFFER1#43                     0000016C
SD_BUFFER1#44                     0000016D
SD_BUFFER1#45                     0000016E
SD_BUFFER1#46                     0000016F
SD_BUFFER1#47                     00000170
SD_BUFFER1#48                     00000171
SD_BUFFER1#49                     00000172
SD_BUFFER1#5                      00000146
SD_BUFFER1#50                     00000173
SD_BUFFER1#51                     00000174
SD_BUFFER1#52                     00000175
SD_BUFFER1#53                     00000176
SD_BUFFER1#54                     00000177
SD_BUFFER1#55                     00000178
SD_BUFFER1#56                     00000179
SD_BUFFER1#57                     0000017A
SD_BUFFER1#58                     0000017B
SD_BUFFER1#59                     0000017C
SD_BUFFER1#6                      00000147
SD_BUFFER1#60                     0000017D
SD_BUFFER1#61                     0000017E
SD_BUFFER1#62                     0000017F
SD_BUFFER1#63                     00000180
SD_BUFFER1#64                     00000181
SD_BUFFER1#65                     00000182
SD_BUFFER1#66                     00000183
SD_BUFFER1#67                     00000184
SD_BUFFER1#68                     00000185
SD_BUFFER1#69                     00000186
SD_BUFFER1#7                      00000148
SD_BUFFER1#70                     00000187
SD_BUFFER1#71                     00000188
SD_BUFFER1#72                     00000189
SD_BUFFER1#73                     0000018A
SD_BUFFER1#74                     0000018B
SD_BUFFER1#75                     0000018C
SD_BUFFER1#76                     0000018D
SD_BUFFER1#77                     0000018E
SD_BUFFER1#78                     0000018F
SD_BUFFER1#79                     00000190
SD_BUFFER1#8                      00000149
SD_BUFFER1#80                     00000191
SD_BUFFER1#81                     00000192
SD_BUFFER1#82                     00000193
SD_BUFFER1#83                     00000194
SD_BUFFER1#84                     00000195
SD_BUFFER1#85                     00000196
SD_BUFFER1#86                     00000197
SD_BUFFER1#87                     00000198
SD_BUFFER1#88                     00000199
SD_BUFFER1#89                     0000019A
SD_BUFFER1#9                      0000014A
SD_BUFFER1#90                     0000019B
SD_BUFFER1#91                     0000019C
SD_BUFFER1#92                     0000019D
SD_BUFFER1#93                     0000019E
SD_BUFFER1#94                     0000019F
SD_BUFFER1#95                     000001A0
SD_BUFFER1#96                     000001A1
SD_BUFFER1#97                     000001A2
SD_BUFFER1#98                     000001A3
SD_BUFFER1#99                     000001A4
SD_BUFFER_IDX                     00000247
SD_BUFFER_IDXH                    00000248
SD_BUFFER_POS                     0000024E
SD_BUFFER_POSH                    0000024F
SD_BYTE0                          00000241
SD_BYTE1                          00000242
SD_BYTE2                          00000243
SD_BYTE3                          00000244
SD_BYTE4                          00000245
SD_BYTE5                          00000246
SD_BYTER                          00000032
SD_BYTES_PER_SEC                  0000025F
SD_BYTES_PER_SECH                 00000260
SD_BYTES_READ                     000002E1
SD_BYTES_READH                    000002E2
SD_BYTES_READHH                   000002E3
SD_BYTES_READHHH                  000002E4
SD_BYTE_RW                        00000249
SD_CHECK_FOR_FILE                 
SD_CHECK_FOR_FILE#REQ             1
SD_CHECK_FOR_FILE_RETURN          00000001
SD_CHECK_FOR_FILE_SUB             00001332
SD_CLK                            PORTC,3
SD_CLOSE_FILE                     
SD_CLOSE_FILE#REQ                 1
SD_CLOSE_FILE_RETURN              00000000
SD_CLOSE_FILE_SUB                 000014CA
SD_CLUSTER_NUM                    000002C5
SD_CLUSTER_NUMH                   000002C6
SD_CLUSTER_NUM_PREV               000002C7
SD_CLUSTER_NUM_PREVH              000002C8
SD_CLUSTER_SEQ_IDX                000002DA
SD_CLUSTER_SEQ_IDXH               000002DB
SD_CLUSTER_SEQ_IDX_PREV           000002DE
SD_CLUSTER_SEQ_IDX_PREVH          000002DF
SD_CLUSTER_SEQ_NUM                000002D8
SD_CLUSTER_SEQ_NUMH               000002D9
SD_CLUSTER_SEQ_NUM_PREV           000002DC
SD_CLUSTER_SEQ_NUM_PREVH          000002DD
SD_CS                             PORTC,2
SD_DATA_AREA                      00000273
SD_DATA_AREAH                     00000274
SD_DATA_AREAHH                    00000275
SD_DATA_AREAHHH                   00000276
SD_DATA_BUFFER_POS                0000028F
SD_DATA_BUFFER_POSH               00000290
SD_DATA_IO                        0000024D
SD_DATA_SEC                       0000028B
SD_DATA_SECH                      0000028C
SD_DATA_SECHH                     0000028D
SD_DATA_SECHHH                    0000028E
SD_DAY                            000002EF
SD_DELETE_FILE                    
SD_DELETE_FILE#REQ                1
SD_DELETE_FILE_RETURN             00000000
SD_DELETE_FILE_SUB                00001F02
SD_DETECT                         PORTA,1
SD_DI                             PORTC,5
SD_DIR_DIRECTION                  000002E8
SD_DISK_SIZE_KB                   SD_BYTES_READ
SD_DISK_SIZE_KBH                  SD_BYTES_READH
SD_DISK_SIZE_KBHH                 SD_BYTES_READHH
SD_DISK_SIZE_KBHHH                SD_BYTES_READHHH
SD_DO                             PORTC,4
SD_EOF                            _B#VR1,0
SD_EXTENDED_RETURN                0000024B
SD_EXTENDED_RETURN_INT            000002E9
SD_EXTENDED_RETURN_ROOT_DIR       0000024C
SD_FAT1                           00000267
SD_FAT1H                          00000268
SD_FAT1HH                         00000269
SD_FAT1HHH                        0000026A
SD_FAT2                           0000026B
SD_FAT2H                          0000026C
SD_FAT2HH                         0000026D
SD_FAT2HHH                        0000026E
SD_FAT_BUFFER_POS                 0000027D
SD_FAT_BUFFER_POSH                0000027E
SD_FAT_BUFFER_POS_PREV            00000283
SD_FAT_BUFFER_POS_PREVH           00000284
SD_FAT_ENTRY                      00000277
SD_FAT_ENTRYH                     00000278
SD_FAT_SEC                        00000279
SD_FAT_SECH                       0000027A
SD_FAT_SECHH                      0000027B
SD_FAT_SECHHH                     0000027C
SD_FAT_SEC_PREV                   0000027F
SD_FAT_SEC_PREVH                  00000280
SD_FAT_SEC_PREVHH                 00000281
SD_FAT_SEC_PREVHHH                00000282
SD_FILE_EXT                       0000029A
SD_FILE_EXT#0                     0000029A
SD_FILE_EXT#1                     0000029B
SD_FILE_EXT#2                     0000029C
SD_FILE_EXT#3                     0000029D
SD_FILE_NAME                      00000291
SD_FILE_NAME#0                    00000291
SD_FILE_NAME#1                    00000292
SD_FILE_NAME#2                    00000293
SD_FILE_NAME#3                    00000294
SD_FILE_NAME#4                    00000295
SD_FILE_NAME#5                    00000296
SD_FILE_NAME#6                    00000297
SD_FILE_NAME#7                    00000298
SD_FILE_NAME#8                    00000299
SD_FILE_NUM                       000002E6
SD_FILE_NUMH                      000002E7
SD_FILE_SIZE                      000002CC
SD_FILE_SIZEH                     000002CD
SD_FILE_SIZEHH                    000002CE
SD_FILE_SIZEHHH                   000002CF
SD_FILE_SIZE_LEFT                 000002EA
SD_FILE_SIZE_LEFTH                000002EB
SD_FILE_SIZE_LEFTHH               000002EC
SD_FILE_SIZE_LEFTHHH              000002ED
SD_FIND_FREE_CLUSTER              0000094A
SD_FIND_ROOT_DIR_ENTRY            00000C06
SD_FIND_ROOT_DIR_ENTRY_F          000002E0
SD_FIRST                          0
SD_FREE_CLUSTER_NUM               SD_CLUSTER_SEQ_NUM
SD_FREE_CLUSTER_NUMH              SD_CLUSTER_SEQ_NUMH
SD_FREE_SPACE_KB                  SD_BYTES_READ
SD_FREE_SPACE_KBH                 SD_BYTES_READH
SD_FREE_SPACE_KBHH                SD_BYTES_READHH
SD_FREE_SPACE_KBHHH               SD_BYTES_READHHH
SD_HOURS                          000002F5
SD_IDX                            00000033
SD_INIT_FS_MSSP                   
SD_INIT_FS_MSSP#REQ               1
SD_INIT_FS_MSSP_LST_PRM           00000000
SD_INIT_FS_MSSP_RETURN            00000001
SD_INIT_FS_MSSP_SUB               000020A8
SD_INIT_MSSP                      
SD_INIT_MSSP#REQ                  1
SD_INIT_MSSP_LST_PRM              00000001
SD_INIT_MSSP_RETURN               00000001
SD_INIT_MSSP_SUB                  00001402
SD_INSERT_BYTE_INTO_BUFFER        00000F64
SD_IO                             000003EE
SD_IO_BYTE                        000002D0
SD_IO_STRING                      000002FB
SD_IO_STRING#0                    000002FB
SD_IO_STRING#1                    000002FC
SD_IO_STRING#10                   00000305
SD_IO_STRING#100                  0000035F
SD_IO_STRING#101                  00000360
SD_IO_STRING#102                  00000361
SD_IO_STRING#103                  00000362
SD_IO_STRING#104                  00000363
SD_IO_STRING#105                  00000364
SD_IO_STRING#106                  00000365
SD_IO_STRING#107                  00000366
SD_IO_STRING#108                  00000367
SD_IO_STRING#109                  00000368
SD_IO_STRING#11                   00000306
SD_IO_STRING#110                  00000369
SD_IO_STRING#111                  0000036A
SD_IO_STRING#112                  0000036B
SD_IO_STRING#113                  0000036C
SD_IO_STRING#114                  0000036D
SD_IO_STRING#115                  0000036E
SD_IO_STRING#116                  0000036F
SD_IO_STRING#117                  00000370
SD_IO_STRING#118                  00000371
SD_IO_STRING#119                  00000372
SD_IO_STRING#12                   00000307
SD_IO_STRING#120                  00000373
SD_IO_STRING#121                  00000374
SD_IO_STRING#122                  00000375
SD_IO_STRING#123                  00000376
SD_IO_STRING#124                  00000377
SD_IO_STRING#125                  00000378
SD_IO_STRING#126                  00000379
SD_IO_STRING#127                  0000037A
SD_IO_STRING#128                  0000037B
SD_IO_STRING#129                  0000037C
SD_IO_STRING#13                   00000308
SD_IO_STRING#130                  0000037D
SD_IO_STRING#131                  0000037E
SD_IO_STRING#132                  0000037F
SD_IO_STRING#133                  00000380
SD_IO_STRING#134                  00000381
SD_IO_STRING#135                  00000382
SD_IO_STRING#136                  00000383
SD_IO_STRING#137                  00000384
SD_IO_STRING#138                  00000385
SD_IO_STRING#139                  00000386
SD_IO_STRING#14                   00000309
SD_IO_STRING#140                  00000387
SD_IO_STRING#141                  00000388
SD_IO_STRING#142                  00000389
SD_IO_STRING#143                  0000038A
SD_IO_STRING#144                  0000038B
SD_IO_STRING#145                  0000038C
SD_IO_STRING#146                  0000038D
SD_IO_STRING#147                  0000038E
SD_IO_STRING#148                  0000038F
SD_IO_STRING#149                  00000390
SD_IO_STRING#15                   0000030A
SD_IO_STRING#150                  00000391
SD_IO_STRING#151                  00000392
SD_IO_STRING#152                  00000393
SD_IO_STRING#153                  00000394
SD_IO_STRING#154                  00000395
SD_IO_STRING#155                  00000396
SD_IO_STRING#156                  00000397
SD_IO_STRING#157                  00000398
SD_IO_STRING#158                  00000399
SD_IO_STRING#159                  0000039A
SD_IO_STRING#16                   0000030B
SD_IO_STRING#160                  0000039B
SD_IO_STRING#161                  0000039C
SD_IO_STRING#162                  0000039D
SD_IO_STRING#163                  0000039E
SD_IO_STRING#164                  0000039F
SD_IO_STRING#165                  000003A0
SD_IO_STRING#166                  000003A1
SD_IO_STRING#167                  000003A2
SD_IO_STRING#168                  000003A3
SD_IO_STRING#169                  000003A4
SD_IO_STRING#17                   0000030C
SD_IO_STRING#170                  000003A5
SD_IO_STRING#171                  000003A6
SD_IO_STRING#172                  000003A7
SD_IO_STRING#173                  000003A8
SD_IO_STRING#174                  000003A9
SD_IO_STRING#175                  000003AA
SD_IO_STRING#176                  000003AB
SD_IO_STRING#177                  000003AC
SD_IO_STRING#178                  000003AD
SD_IO_STRING#179                  000003AE
SD_IO_STRING#18                   0000030D
SD_IO_STRING#180                  000003AF
SD_IO_STRING#181                  000003B0
SD_IO_STRING#182                  000003B1
SD_IO_STRING#183                  000003B2
SD_IO_STRING#184                  000003B3
SD_IO_STRING#185                  000003B4
SD_IO_STRING#186                  000003B5
SD_IO_STRING#187                  000003B6
SD_IO_STRING#188                  000003B7
SD_IO_STRING#189                  000003B8
SD_IO_STRING#19                   0000030E
SD_IO_STRING#190                  000003B9
SD_IO_STRING#191                  000003BA
SD_IO_STRING#192                  000003BB
SD_IO_STRING#193                  000003BC
SD_IO_STRING#194                  000003BD
SD_IO_STRING#195                  000003BE
SD_IO_STRING#196                  000003BF
SD_IO_STRING#197                  000003C0
SD_IO_STRING#198                  000003C1
SD_IO_STRING#199                  000003C2
SD_IO_STRING#2                    000002FD
SD_IO_STRING#20                   0000030F
SD_IO_STRING#200                  000003C3
SD_IO_STRING#21                   00000310
SD_IO_STRING#22                   00000311
SD_IO_STRING#23                   00000312
SD_IO_STRING#24                   00000313
SD_IO_STRING#25                   00000314
SD_IO_STRING#26                   00000315
SD_IO_STRING#27                   00000316
SD_IO_STRING#28                   00000317
SD_IO_STRING#29                   00000318
SD_IO_STRING#3                    000002FE
SD_IO_STRING#30                   00000319
SD_IO_STRING#31                   0000031A
SD_IO_STRING#32                   0000031B
SD_IO_STRING#33                   0000031C
SD_IO_STRING#34                   0000031D
SD_IO_STRING#35                   0000031E
SD_IO_STRING#36                   0000031F
SD_IO_STRING#37                   00000320
SD_IO_STRING#38                   00000321
SD_IO_STRING#39                   00000322
SD_IO_STRING#4                    000002FF
SD_IO_STRING#40                   00000323
SD_IO_STRING#41                   00000324
SD_IO_STRING#42                   00000325
SD_IO_STRING#43                   00000326
SD_IO_STRING#44                   00000327
SD_IO_STRING#45                   00000328
SD_IO_STRING#46                   00000329
SD_IO_STRING#47                   0000032A
SD_IO_STRING#48                   0000032B
SD_IO_STRING#49                   0000032C
SD_IO_STRING#5                    00000300
SD_IO_STRING#50                   0000032D
SD_IO_STRING#51                   0000032E
SD_IO_STRING#52                   0000032F
SD_IO_STRING#53                   00000330
SD_IO_STRING#54                   00000331
SD_IO_STRING#55                   00000332
SD_IO_STRING#56                   00000333
SD_IO_STRING#57                   00000334
SD_IO_STRING#58                   00000335
SD_IO_STRING#59                   00000336
SD_IO_STRING#6                    00000301
SD_IO_STRING#60                   00000337
SD_IO_STRING#61                   00000338
SD_IO_STRING#62                   00000339
SD_IO_STRING#63                   0000033A
SD_IO_STRING#64                   0000033B
SD_IO_STRING#65                   0000033C
SD_IO_STRING#66                   0000033D
SD_IO_STRING#67                   0000033E
SD_IO_STRING#68                   0000033F
SD_IO_STRING#69                   00000340
SD_IO_STRING#7                    00000302
SD_IO_STRING#70                   00000341
SD_IO_STRING#71                   00000342
SD_IO_STRING#72                   00000343
SD_IO_STRING#73                   00000344
SD_IO_STRING#74                   00000345
SD_IO_STRING#75                   00000346
SD_IO_STRING#76                   00000347
SD_IO_STRING#77                   00000348
SD_IO_STRING#78                   00000349
SD_IO_STRING#79                   0000034A
SD_IO_STRING#8                    00000303
SD_IO_STRING#80                   0000034B
SD_IO_STRING#81                   0000034C
SD_IO_STRING#82                   0000034D
SD_IO_STRING#83                   0000034E
SD_IO_STRING#84                   0000034F
SD_IO_STRING#85                   00000350
SD_IO_STRING#86                   00000351
SD_IO_STRING#87                   00000352
SD_IO_STRING#88                   00000353
SD_IO_STRING#89                   00000354
SD_IO_STRING#9                    00000304
SD_IO_STRING#90                   00000355
SD_IO_STRING#91                   00000356
SD_IO_STRING#92                   00000357
SD_IO_STRING#93                   00000358
SD_IO_STRING#94                   00000359
SD_IO_STRING#95                   0000035A
SD_IO_STRING#96                   0000035B
SD_IO_STRING#97                   0000035C
SD_IO_STRING#98                   0000035D
SD_IO_STRING#99                   0000035E
SD_IO_STRING_LENGTH               000002F9
SD_IO_STRING_POS                  000002FA
SD_IS_DIRTY                       000002F6
SD_LAST_CLUSTER                   000002C9
SD_LAST_CLUSTERH                  000002CA
SD_MINUTES                        000002F4
SD_MODIFY_FILE_NAME               00000B3C
SD_MONTH                          000002F0
SD_MSECONDS                       000002F2
SD_NEW_FILE                       
SD_NEW_FILE#REQ                   1
SD_NEW_FILE_RETURN                00000000
SD_NEW_FILE_SUB                   000019A0
SD_NEXT                           1
SD_NULL_F                         000002C4
SD_NUM_OF_FATS                    0000025A
SD_NUM_OF_ROOT_ENTRIES            00000261
SD_NUM_OF_ROOT_ENTRIESH           00000262
SD_NUM_OF_SECS                    0000025B
SD_NUM_OF_SECSH                   0000025C
SD_NUM_OF_SECSHH                  0000025D
SD_NUM_OF_SECSHHH                 0000025E
SD_OPEN_FILE                      
SD_OPEN_FILE#REQ                  1
SD_OPEN_FILE_RETURN               00000001
SD_OPEN_FILE_SUB                  0000171A
SD_PREVIOUS                       2
SD_READ_BYTE_FROM_FILE            
SD_READ_BYTE_FROM_FILE#REQ        1
SD_READ_BYTE_FROM_FILE_RETURN     00000001
SD_READ_BYTE_FROM_FILE_SUB        0000181E
SD_READ_FAT_ENTRY                 000008E2
SD_READ_SECTOR                    0000080C
SD_READ_SECTOR_END                000008E0
SD_READ_SECTOR_ERROR              000008CA
SD_READ_SECTOR_START              00000814
SD_READ_SUB                       00001340
SD_RECEIVE_BYTE                   000013F6
SD_RESERVED_SECS                  00000256
SD_RESERVED_SECSH                 00000257
SD_RETURN                         00000040
SD_RETURN_F                       000002F8
SD_ROOT_DIR                       0000026F
SD_ROOT_DIRH                      00000270
SD_ROOT_DIRHH                     00000271
SD_ROOT_DIRHHH                    00000272
SD_ROOT_DIR_FILE                  0000029E
SD_ROOT_DIR_FILE#0                0000029E
SD_ROOT_DIR_FILE#1                0000029F
SD_ROOT_DIR_FILE#10               000002A8
SD_ROOT_DIR_FILE#11               000002A9
SD_ROOT_DIR_FILE#12               000002AA
SD_ROOT_DIR_FILE#13               000002AB
SD_ROOT_DIR_FILE#14               000002AC
SD_ROOT_DIR_FILE#15               000002AD
SD_ROOT_DIR_FILE#16               000002AE
SD_ROOT_DIR_FILE#17               000002AF
SD_ROOT_DIR_FILE#18               000002B0
SD_ROOT_DIR_FILE#19               000002B1
SD_ROOT_DIR_FILE#2                000002A0
SD_ROOT_DIR_FILE#20               000002B2
SD_ROOT_DIR_FILE#21               000002B3
SD_ROOT_DIR_FILE#22               000002B4
SD_ROOT_DIR_FILE#23               000002B5
SD_ROOT_DIR_FILE#24               000002B6
SD_ROOT_DIR_FILE#25               000002B7
SD_ROOT_DIR_FILE#26               000002B8
SD_ROOT_DIR_FILE#27               000002B9
SD_ROOT_DIR_FILE#28               000002BA
SD_ROOT_DIR_FILE#29               000002BB
SD_ROOT_DIR_FILE#3                000002A1
SD_ROOT_DIR_FILE#30               000002BC
SD_ROOT_DIR_FILE#31               000002BD
SD_ROOT_DIR_FILE#4                000002A2
SD_ROOT_DIR_FILE#5                000002A3
SD_ROOT_DIR_FILE#6                000002A4
SD_ROOT_DIR_FILE#7                000002A5
SD_ROOT_DIR_FILE#8                000002A6
SD_ROOT_DIR_FILE#9                000002A7
SD_ROOT_DIR_FILE_POS              00000250
SD_ROOT_DIR_POS                   00000289
SD_ROOT_DIR_POSH                  0000028A
SD_ROOT_DIR_SEC                   00000285
SD_ROOT_DIR_SECH                  00000286
SD_ROOT_DIR_SECHH                 00000287
SD_ROOT_DIR_SECHHH                00000288
SD_RW_OPTION                      0000024A
SD_RW_PTR                         SD_BYTES_READ
SD_RW_PTRH                        SD_BYTES_READH
SD_RW_PTRHH                       SD_BYTES_READHH
SD_RW_PTRHHH                      SD_BYTES_READHHH
SD_SECONDS                        000002F3
SD_SECS_IN_ROOT                   00000263
SD_SECS_IN_ROOTH                  00000264
SD_SECS_PER_CLUSTER               00000255
SD_SECS_PER_FAT                   00000258
SD_SECS_PER_FATH                  00000259
SD_SECTOR_NUM                     00000034
SD_SECTOR_NUMH                    00000035
SD_SECTOR_NUMHH                   00000036
SD_SECTOR_NUMHHH                  00000037
SD_SECTOR_SUB                     0000068A
SD_SEC_IN_CLUSTER                 000002CB
SD_SEC_NUM                        00000251
SD_SEC_NUMH                       00000252
SD_SEC_NUMHH                      00000253
SD_SEC_NUMHHH                     00000254
SD_SEEK_RESPONSE                  000006C8
SD_SEEK_RESPONSE_IDX              0000003C
SD_SEEK_RESPONSE_IDXH             0000003D
SD_SEEK_RESPONSE_REQD             0000003E
SD_SEEK_RESPONSE_RETURN           0000003F
SD_SEND_BYTE                      000013E8
SD_SEND_CMD                       000013AC
SD_SET_FILE_TIME_CREATE           00001614
SD_SET_FILE_TIME_MODIFIED         0000164E
SD_SPI_BF                         SSPSTAT,0
SD_SPI_FOSC_04                    0
SD_SPI_FOSC_16                    1
SD_SPI_FOSC_64                    2
SD_SPI_IF                         PIR1,3
SD_SSPSTAT                        000002F7
SD_STORE_CLUSTER_SEQ              00000B2E
SD_STORE_FAT_POSITION             00000AA2
SD_STORE_ROOT_DIRECT_POSITION     00000F3C
SD_TEMP                           000002D2
SD_TEMPH                          000002D3
SD_TEMP_BYTE                      000002D1
SD_TEMP_DWORD                     000002D4
SD_TEMP_DWORDH                    000002D5
SD_TEMP_DWORDHH                   000002D6
SD_TEMP_DWORDHHH                  000002D7
SD_TIMEOUT                        000002EE
SD_WRITE_BUFFER_POS               000002C2
SD_WRITE_BUFFER_POSH              000002C3
SD_WRITE_BYTE_TO_FILE             
SD_WRITE_BYTE_TO_FILE#REQ         1
SD_WRITE_BYTE_TO_FILE_LST_PRM     00000000
SD_WRITE_BYTE_TO_FILE_RETURN      00000000
SD_WRITE_BYTE_TO_FILE_SUB         0000104A
SD_WRITE_SECTOR                   0000070A
SD_WRITE_SECTOR_END               0000080A
SD_WRITE_SECTOR_ERROR             000007F4
SD_WRITE_SECTOR_START             00000712
SD_WRITE_SEC_NUM                  000002BE
SD_WRITE_SEC_NUMH                 000002BF
SD_WRITE_SEC_NUMHH                000002C0
SD_WRITE_SEC_NUMHHH               000002C1
SD_WRITE_STRING_TO_FILE           
SD_WRITE_STRING_TO_FILE#REQ       1
SD_WRITE_STRING_TO_FILE_RETURN    00000000
SD_WRITE_STRING_TO_FILE_SUB       00002332
SD_WRITE_SUB                      0000060E
SD_YEAR                           000002F1
SEN                               00000000
SEND@IT                           000000A2
SENDB                             00000003
SETC                              BSF STATUS,0
SETZ                              BSF STATUS,2
SKPC                              BTFSS STATUS,0
SKPNC                             BTFSC STATUS,0
SKPNZ                             BTFSC STATUS,2
SKPZ                              BTFSS STATUS,2
SL@LB32                           00001664
SL@LB33                           000016A0
SMP                               00000007
SP#P9                             0000002D
SP0                               00000000
SP1                               00000001
SP2                               00000002
SP3                               00000003
SP4                               00000004
SPBRG                             00000FAF
SPBRGH                            00000FB0
SPEN                              00000007
SREN                              00000005
SS                                00000005
SSPADD                            00000FC8
SSPBUF                            00000FC9
SSPCON1                           00000FC6
SSPCON2                           00000FC5
SSPEN                             00000005
SSPIE                             00000003
SSPIF                             00000003
SSPIP                             00000003
SSPM0                             00000000
SSPM1                             00000001
SSPM2                             00000002
SSPM3                             00000003
SSPOV                             00000006
SSPSTAT                           00000FC7
START                             00002450
START2                            00002450
STATUS                            00000FD8
STKFUL                            00000007
STKOVF                            00000007
STKPTR                            00000FFC
STKPTR0                           00000000
STKPTR1                           00000001
STKPTR2                           00000002
STKPTR3                           00000003
STKPTR4                           00000004
STKUNF                            00000006
STR@LB1                           000004A4
STR@LB10                          00000510
STR@LB11                          00000520
STR@LB12                          00000530
STR@LB13                          0000053A
STR@LB14                          00000544
STR@LB15                          00000550
STR@LB16                          0000055C
STR@LB17                          00000566
STR@LB18                          00000576
STR@LB19                          00000580
STR@LB2                           000004AE
STR@LB20                          0000058A
STR@LB21                          00000598
STR@LB22                          000005AC
STR@LB23                          000005B6
STR@LB24                          000005C6
STR@LB25                          000005D2
STR@LB26                          000005E4
STR@LB3                           000004B8
STR@LB4                           000004C6
STR@LB5                           000004D2
STR@LB6                           000004E0
STR@LB7                           000004EA
STR@LB8                           000004F8
STR@LB9                           00000506
STVREN_OFF_4                      000000FE
STVREN_ON_4                       000000FF
SWDTE                             00000000
SWDTEN                            00000000
SYNC                              00000004
T016BIT                           00000006
T08BIT                            00000006
T0CKI                             00000004
T0CON                             00000FD5
T0CS                              00000005
T0IE                              00000005
T0IF                              00000002
T0PS0                             00000000
T0PS1                             00000001
T0PS2                             00000002
T0SE                              00000004
T13CKI                            00000000
T1CKI                             00000000
T1CKPS0                           00000004
T1CKPS1                           00000005
T1CON                             00000FCD
T1OSCEN                           00000003
T1OSI                             00000001
T1OSO                             00000000
T1RUN                             00000006
T1SYNC                            00000002
T2CKPS0                           00000000
T2CKPS1                           00000001
T2CON                             00000FCA
T2OUTPS0                          00000003
T2OUTPS1                          00000004
T2OUTPS2                          00000005
T2OUTPS3                          00000006
T3CCP1                            00000003
T3CCP2                            00000006
T3CKPS0                           00000004
T3CKPS1                           00000005
T3CON                             00000FB1
T3SYNC                            00000002
T@E                               0000000C
T@EB                              00000008
T@EW                              0000000A
T@GE                              00000012
T@ST                              00000016
TABLAT                            00000FF5
TAGIN                             000003C6
TAGIN#0                           000003C6
TAGIN#1                           000003C7
TAGIN#2                           000003C8
TAGIN#3                           000003C9
TAGIN#4                           000003CA
TAGIN#5                           000003CB
TAGIN#6                           000003CC
TAGIN#7                           000003CD
TAGIN#8                           000003CE
TAGIN#9                           000003CF
TAGOFFSET                         4
TBLPTRH                           00000FF7
TBLPTRL                           00000FF6
TBLPTRLH                          00000FF7
TBLPTRLHH                         00000FF8
TBLPTRU                           00000FF8
TIMEOUT                           00002618
TMR0H                             00000FD7
TMR0IE                            00000005
TMR0IF                            00000002
TMR0IP                            00000002
TMR0L                             00000FD6
TMR0LH                            00000FD7
TMR0ON                            00000007
TMR1CS                            00000001
TMR1H                             00000FCF
TMR1IE                            00000000
TMR1IF                            00000000
TMR1IP                            00000000
TMR1L                             00000FCE
TMR1LH                            00000FCF
TMR1ON                            00000000
TMR2                              00000FCC
TMR2IE                            00000001
TMR2IF                            00000001
TMR2IP                            00000001
TMR2ON                            00000002
TMR3CS                            00000001
TMR3H                             00000FB3
TMR3IE                            00000001
TMR3IF                            00000001
TMR3IP                            00000001
TMR3L                             00000FB2
TMR3LH                            00000FB3
TMR3ON                            00000000
TO                                00000003
TOS                               00000FFD
TOSH                              00000FFE
TOSL                              00000FFD
TOSLH                             00000FFE
TOSU                              00000FFF
TOUTPS0                           00000003
TOUTPS1                           00000004
TOUTPS2                           00000005
TOUTPS3                           00000006
TRISA                             00000F92
TRISA0                            00000000
TRISA1                            00000001
TRISA2                            00000002
TRISA3                            00000003
TRISA4                            00000004
TRISA5                            00000005
TRISA6                            00000006
TRISA7                            00000007
TRISB                             00000F93
TRISB0                            00000000
TRISB1                            00000001
TRISB2                            00000002
TRISB3                            00000003
TRISB4                            00000004
TRISB5                            00000005
TRISB6                            00000006
TRISB7                            00000007
TRISC                             00000F94
TRISC0                            00000000
TRISC1                            00000001
TRISC2                            00000002
TRISC3                            00000003
TRISC4                            00000004
TRISC5                            00000005
TRISC6                            00000006
TRISC7                            00000007
TRISD                             00000F95
TRISD0                            00000000
TRISD1                            00000001
TRISD2                            00000002
TRISD3                            00000003
TRISD4                            00000004
TRISD5                            00000005
TRISD6                            00000006
TRISD7                            00000007
TRISE                             00000F96
TRISE0                            00000000
TRISE1                            00000001
TRISE2                            00000002
TRISE4                            00000004
TRISE5                            00000005
TRISE6                            00000006
TRISE7                            00000007
TRMT                              00000001
TUN0                              00000000
TUN1                              00000001
TUN2                              00000002
TUN3                              00000003
TUN4                              00000004
TV1                               000003F2
TX                                00000006
TX9                               00000006
TX9D                              00000000
TXEN                              00000005
TXIE                              00000004
TXIF                              00000004
TXIP                              00000004
TXREG                             00000FAD
TXSTA                             00000FAC
UA                                00000001
UHA                               16
UPA_H                             1
UPA_L                             0
USERIN                            000003D0
USERIN#0                          000003D0
USERIN#1                          000003D1
USERIN#2                          000003D2
USERIN#3                          000003D3
USER_POINTER                      000003C4
USER_POINTERH                     000003C5
UTAG                              000003D4
UTAG#0                            000003D4
UTAG#1                            000003D5
UTAG#10                           000003DE
UTAG#11                           000003DF
UTAG#12                           000003E0
UTAG#13                           000003E1
UTAG#14                           000003E2
UTAG#15                           000003E3
UTAG#2                            000003D6
UTAG#3                            000003D7
UTAG#4                            000003D8
UTAG#5                            000003D9
UTAG#6                            000003DA
UTAG#7                            000003DB
UTAG#8                            000003DC
UTAG#9                            000003DD
VCFG0                             00000004
VCFG1                             00000005
VDIRMAG                           00000007
VPP                               00000003
WCOL                              00000007
WDTCON                            00000FD1
WDTPS_1024_2                      000000F5
WDTPS_128_2                       000000EF
WDTPS_16384_2                     000000FD
WDTPS_16_2                        000000E9
WDTPS_1_2                         000000E1
WDTPS_2048_2                      000000F7
WDTPS_256_2                       000000F1
WDTPS_2_2                         000000E3
WDTPS_32768_2                     000000FF
WDTPS_32_2                        000000EB
WDTPS_4096_2                      000000F9
WDTPS_4_2                         000000E5
WDTPS_512_2                       000000F3
WDTPS_64_2                        000000ED
WDTPS_8192_2                      000000FB
WDTPS_8_2                         000000E7
WDT_OFF_2                         000000FE
WDT_ON_2                          000000FF
WORD_BIT                          
WORD_BYTE                         
WORD_DWORD                        
WORD_FLOAT                        
WORD_VAR                          000003F3
WORD_VARH                         000003F4
WORD_WORD                         
WORD_WREG                         
WR                                00000001
WREG                              00000FE8
WREG_BIT                          
WREG_BYTE                         
WREG_DWORD                        
WREG_FLOAT                        
WREG_WORD                         
WREN                              00000002
WRERR                             00000003
WRITEH                            00002AEE
WRITE_MANAGER                     00002C14
WRITE_M_SD                        00002D2C
WRITE_SD                          000028C8
WRITE_USERS_SD                    00002ED4
WRT0_OFF_6                        000000FF
WRT0_ON_6                         000000FE
WRT1_OFF_6                        000000FF
WRT1_ON_6                         000000FD
WRT2_OFF_6                        000000FF
WRT2_ON_6                         000000FB
WRTB_OFF_6                        000000FF
WRTB_ON_6                         000000BF
WRTC_OFF_6                        000000FF
WRTC_ON_6                         000000DF
WRTD_OFF_6                        000000FF
WRTD_ON_6                         0000007F
WUE                               00000001
XINST_OFF_4                       000000BF
XINST_ON_4                        000000FF
XTAL                              4
Z                                 00000002
_ADC                              13
_ADC_RES                          10
_AEXP                             0000002E
_B#VR1                            000002E5
_CORE                             16
_CWRITE_BLOCK                     8
_EEPROM                           1024
_FLASH                            1
_FP_FLAGS                         0000002F
_FP_TEMP                          00000030
_I2C_SCL_PIN                      00000003
_I2C_SCL_PORT                     00000F94
_I2C_SDA_PIN                      00000004
_I2C_SDA_PORT                     00000F94
_MAXMEM                           49152
_MAXRAM                           3968
_RAM_END                          3968
_SIGN                             00000031
_SYSTEM_VARIABLE_COUNT            50
_USART                            1
_USB                              0
__18F4525                         1
__EOF                             00009C48
__HSERIAL_BAUD                    9600
__HSERIAL_RCSTA                   144
__HSERIAL_TXSTA                   32
__IDLOC0                          00200000
__IDLOC1                          00200001
__IDLOC2                          00200002
__IDLOC3                          00200003
__IDLOC4                          00200004
__IDLOC5                          00200005
__IDLOC6                          00200006
__IDLOC7                          00200007
__KEYPAD_PORT                     PORTB
__LCD_DTPIN                       0
__LCD_DTPORT                      PORTD
__LCD_ENPIN                       6
__LCD_ENPORT                      PORTD
__LCD_INTERFACE                   4
__LCD_LINES                       2
__LCD_RSPIN                       7
__LCD_RSPORT                      PORTD
__LCD_TYPE                        0
__XTAL                            4


MEMORY USAGE MAP ('X' = USED,  '-' = UNUSED)

0000 : XXXX----XXXXXXXX XXXXXXXXXXXXXXXX XXXXXXXXXXXXXXXX XXXXXXXXXXXXXXXX
0040 : XXXXXXXXXXXXXXXX XXXXXXXXXXXXXXXX XXXXXXXXXXXXXXXX XXXXXXXXXXXXXXXX
0080 : XXXXXXXXXXXXXXXX XXXXXXXXXXXXXXXX XXXXXXXXXXXXXXXX XXXXXXXXXXXXXXXX
00C0 : XXXXXXXXXXXXXXXX XXXXXXXXXXXXXXXX XXXXXXXXXXXXXXXX XXXXXXXXXXXXXXXX
0100 : XXXXXXXXXXXXXXXX XXXXXXXXXXXXXXXX XXXXXXXXXXXXXXXX XXXXXXXXXXXXXXXX
0140 : XXXXXXXXXXXXXXXX XXXXXXXXXXXXXXXX XXXXXXXXXXXXXXXX XXXXXXXXXXXXXXXX
0180 : XXXXXXXXXXXXXXXX XXXXXXXXXXXXXXXX XXXXXXXXXXXXXXXX XXXXXXXXXXXXXXXX
01C0 : XXXXXXXXXXXXXXXX XXXXXXXXXXXXXXXX XXXXXXXXXXXXXXXX XXXXXXXXXXXXXXXX
0200 : XXXXXXXXXXXXXXXX XXXXXXXXXXXXXXXX XXXXXXXXXXXXXXXX XXXXXXXXXXXXXXXX
0240 : XXXXXXXXXXXXXXXX XXXXXXXXXXXXXXXX XXXXXXXXXXXXXXXX XXXXXXXXXXXXXXXX
0280 : XXXXXXXXXXXXXXXX XXXXXXXXXXXXXXXX XXXXXXXXXXXXXXXX XXXXXXXXXXXXXXXX
02C0 : XXXXXXXXXXXXXXXX XXXXXXXXXXXXXXXX XXXXXXXXXXXXXXXX XXXXXXXXXXXXXXXX
0300 : XXXXXXXXXXXXXXXX XXXXXXXXXXXXXXXX XXXXXXXXXXXXXXXX XXXXXXXXXXXXXXXX
0340 : XXXXXXXXXXXXXXXX XXXXXXXXXXXXXXXX XXXXXXXXXXXXXXXX XXXXXXXXXXXXXXXX
0380 : XXXXXXXXXXXXXXXX XXXXXXXXXXXXXXXX XXXXXXXXXXXXXXXX XXXXXXXXXXXXXXXX
03C0 : XXXXXXXXXXXXXXXX XXXXXXXXXXXXXXXX XXXXXXXXXXXXXXXX XXXXXXXXXXXXXXXX
0400 : XXXXXXXXXXXXXXXX XXXXXXXXXXXXXXXX XXXXXXXXXXXXXXXX XXXXXXXXXXXXXXXX
0440 : XXXXXXXXXXXXXXXX XXXXXXXXXXXXXXXX XXXXXXXXXXXXXXXX XXXXXXXXXXXXXXXX
0480 : XXXXXXXXXXXXXXXX XXXXXXXXXXXXXXXX XXXXXXXXXXXXXXXX XXXXXXXXXXXXXXXX
04C0 : XXXXXXXXXXXXXXXX XXXXXXXXXXXXXXXX XXXXXXXXXXXXXXXX XXXXXXXXXXXXXXXX
0500 : XXXXXXXXXXXXXXXX XXXXXXXXXXXXXXXX XXXXXXXXXXXXXXXX XXXXXXXXXXXXXXXX
0540 : XXXXXXXXXXXXXXXX XXXXXXXXXXXXXXXX XXXXXXXXXXXXXXXX XXXXXXXXXXXXXXXX
0580 : XXXXXXXXXXXXXXXX XXXXXXXXXXXXXXXX XXXXXXXXXXXXXXXX XXXXXXXXXXXXXXXX
05C0 : XXXXXXXXXXXXXXXX XXXXXXXXXXXXXXXX XXXXXXXXXXXXXXXX XXXXXXXXXXXXXXXX
0600 : XXXXXXXXXXXXXXXX XXXXXXXXXXXXXXXX XXXXXXXXXXXXXXXX XXXXXXXXXXXXXXXX
0640 : XXXXXXXXXXXXXXXX XXXXXXXXXXXXXXXX XXXXXXXXXXXXXXXX XXXXXXXXXXXXXXXX
0680 : XXXXXXXXXXXXXXXX XXXXXXXXXXXXXXXX XXXXXXXXXXXXXXXX XXXXXXXXXXXXXXXX
06C0 : XXXXXXXXXXXXXXXX XXXXXXXXXXXXXXXX XXXXXXXXXXXXXXXX XXXXXXXXXXXXXXXX
0700 : XXXXXXXXXXXXXXXX XXXXXXXXXXXXXXXX XXXXXXXXXXXXXXXX XXXXXXXXXXXXXXXX
0740 : XXXXXXXXXXXXXXXX XXXXXXXXXXXXXXXX XXXXXXXXXXXXXXXX XXXXXXXXXXXXXXXX
0780 : XXXXXXXXXXXXXXXX XXXXXXXXXXXXXXXX XXXXXXXXXXXXXXXX XXXXXXXXXXXXXXXX
07C0 : XXXXXXXXXXXXXXXX XXXXXXXXXXXXXXXX XXXXXXXXXXXXXXXX XXXXXXXXXXXXXXXX
0800 : XXXXXXXXXXXXXXXX XXXXXXXXXXXXXXXX XXXXXXXXXXXXXXXX XXXXXXXXXXXXXXXX
0840 : XXXXXXXXXXXXXXXX XXXXXXXXXXXXXXXX XXXXXXXXXXXXXXXX XXXXXXXXXXXXXXXX
0880 : XXXXXXXXXXXXXXXX XXXXXXXXXXXXXXXX XXXXXXXXXXXXXXXX XXXXXXXXXXXXXXXX
08C0 : XXXXXXXXXXXXXXXX XXXXXXXXXXXXXXXX XXXXXXXXXXXXXXXX XXXXXXXXXXXXXXXX
0900 : XXXXXXXXXXXXXXXX XXXXXXXXXXXXXXXX XXXXXXXXXXXXXXXX XXXXXXXXXXXXXXXX
0940 : XXXXXXXXXXXXXXXX XXXXXXXXXXXXXXXX XXXXXXXXXXXXXXXX XXXXXXXXXXXXXXXX
0980 : XXXXXXXXXXXXXXXX XXXXXXXXXXXXXXXX XXXXXXXXXXXXXXXX XXXXXXXXXXXXXXXX
09C0 : XXXXXXXXXXXXXXXX XXXXXXXXXXXXXXXX XXXXXXXXXXXXXXXX XXXXXXXXXXXXXXXX
0A00 : XXXXXXXXXXXXXXXX XXXXXXXXXXXXXXXX XXXXXXXXXXXXXXXX XXXXXXXXXXXXXXXX
0A40 : XXXXXXXXXXXXXXXX XXXXXXXXXXXXXXXX XXXXXXXXXXXXXXXX XXXXXXXXXXXXXXXX
0A80 : XXXXXXXXXXXXXXXX XXXXXXXXXXXXXXXX XXXXXXXXXXXXXXXX XXXXXXXXXXXXXXXX
0AC0 : XXXXXXXXXXXXXXXX XXXXXXXXXXXXXXXX XXXXXXXXXXXXXXXX XXXXXXXXXXXXXXXX
0B00 : XXXXXXXXXXXXXXXX XXXXXXXXXXXXXXXX XXXXXXXXXXXXXXXX XXXXXXXXXXXXXXXX
0B40 : XXXXXXXXXXXXXXXX XXXXXXXXXXXXXXXX XXXXXXXXXXXXXXXX XXXXXXXXXXXXXXXX
0B80 : XXXXXXXXXXXXXXXX XXXXXXXXXXXXXXXX XXXXXXXXXXXXXXXX XXXXXXXXXXXXXXXX
0BC0 : XXXXXXXXXXXXXXXX XXXXXXXXXXXXXXXX XXXXXXXXXXXXXXXX XXXXXXXXXXXXXXXX
0C00 : XXXXXXXXXXXXXXXX XXXXXXXXXXXXXXXX XXXXXXXXXXXXXXXX XXXXXXXXXXXXXXXX
0C40 : XXXXXXXXXXXXXXXX XXXXXXXXXXXXXXXX XXXXXXXXXXXXXXXX XXXXXXXXXXXXXXXX
0C80 : XXXXXXXXXXXXXXXX XXXXXXXXXXXXXXXX XXXXXXXXXXXXXXXX XXXXXXXXXXXXXXXX
0CC0 : XXXXXXXXXXXXXXXX XXXXXXXXXXXXXXXX XXXXXXXXXXXXXXXX XXXXXXXXXXXXXXXX
0D00 : XXXXXXXXXXXXXXXX XXXXXXXXXXXXXXXX XXXXXXXXXXXXXXXX XXXXXXXXXXXXXXXX
0D40 : XXXXXXXXXXXXXXXX XXXXXXXXXXXXXXXX XXXXXXXXXXXXXXXX XXXXXXXXXXXXXXXX
0D80 : XXXXXXXXXXXXXXXX XXXXXXXXXXXXXXXX XXXXXXXXXXXXXXXX XXXXXXXXXXXXXXXX
0DC0 : XXXXXXXXXXXXXXXX XXXXXXXXXXXXXXXX XXXXXXXXXXXXXXXX XXXXXXXXXXXXXXXX
0E00 : XXXXXXXXXXXXXXXX XXXXXXXXXXXXXXXX XXXXXXXXXXXXXXXX XXXXXXXXXXXXXXXX
0E40 : XXXXXXXXXXXXXXXX XXXXXXXXXXXXXXXX XXXXXXXXXXXXXXXX XXXXXXXXXXXXXXXX
0E80 : XXXXXXXXXXXXXXXX XXXXXXXXXXXXXXXX XXXXXXXXXXXXXXXX XXXXXXXXXXXXXXXX
0EC0 : XXXXXXXXXXXXXXXX XXXXXXXXXXXXXXXX XXXXXXXXXXXXXXXX XXXXXXXXXXXXXXXX
0F00 : XXXXXXXXXXXXXXXX XXXXXXXXXXXXXXXX XXXXXXXXXXXXXXXX XXXXXXXXXXXXXXXX
0F40 : XXXXXXXXXXXXXXXX XXXXXXXXXXXXXXXX XXXXXXXXXXXXXXXX XXXXXXXXXXXXXXXX
0F80 : XXXXXXXXXXXXXXXX XXXXXXXXXXXXXXXX XXXXXXXXXXXXXXXX XXXXXXXXXXXXXXXX
0FC0 : XXXXXXXXXXXXXXXX XXXXXXXXXXXXXXXX XXXXXXXXXXXXXXXX XXXXXXXXXXXXXXXX
1000 : XXXXXXXXXXXXXXXX XXXXXXXXXXXXXXXX XXXXXXXXXXXXXXXX XXXXXXXXXXXXXXXX
1040 : XXXXXXXXXXXXXXXX XXXXXXXXXXXXXXXX XXXXXXXXXXXXXXXX XXXXXXXXXXXXXXXX
1080 : XXXXXXXXXXXXXXXX XXXXXXXXXXXXXXXX XXXXXXXXXXXXXXXX XXXXXXXXXXXXXXXX
10C0 : XXXXXXXXXXXXXXXX XXXXXXXXXXXXXXXX XXXXXXXXXXXXXXXX XXXXXXXXXXXXXXXX
1100 : XXXXXXXXXXXXXXXX XXXXXXXXXXXXXXXX XXXXXXXXXXXXXXXX XXXXXXXXXXXXXXXX
1140 : XXXXXXXXXXXXXXXX XXXXXXXXXXXXXXXX XXXXXXXXXXXXXXXX XXXXXXXXXXXXXXXX
1180 : XXXXXXXXXXXXXXXX XXXXXXXXXXXXXXXX XXXXXXXXXXXXXXXX XXXXXXXXXXXXXXXX
11C0 : XXXXXXXXXXXXXXXX XXXXXXXXXXXXXXXX XXXXXXXXXXXXXXXX XXXXXXXXXXXXXXXX
1200 : XXXXXXXXXXXXXXXX XXXXXXXXXXXXXXXX XXXXXXXXXXXXXXXX XXXXXXXXXXXXXXXX
1240 : XXXXXXXXXXXXXXXX XXXXXXXXXXXXXXXX XXXXXXXXXXXXXXXX XXXXXXXXXXXXXXXX
1280 : XXXXXXXXXXXXXXXX XXXXXXXXXXXXXXXX XXXXXXXXXXXXXXXX XXXXXXXXXXXXXXXX
12C0 : XXXXXXXXXXXXXXXX XXXXXXXXXXXXXXXX XXXXXXXXXXXXXXXX XXXXXXXXXXXXXXXX
1300 : XXXXXXXXXXXXXXXX XXXXXXXXXXXXXXXX XXXXXXXXXXXXXXXX XXXXXXXXXXXXXXXX
1340 : XXXXXXXXXXXXXXXX XXXXXXXXXXXXXXXX XXXXXXXXXXXXXXXX XXXXXXXXXXXXXXXX
1380 : XXXXXXXXXXXXXXXX XXXXXXXXXXXXXXXX XXXXXXXXXXXXXXXX XXXXXXXXXXXXXXXX
13C0 : XXXXXXXXXXXXXXXX XXXXXXXXXXXXXXXX XXXXXXXXXXXXXXXX XXXXXXXXXXXXXXXX
1400 : XXXXXXXXXXXXXXXX XXXXXXXXXXXXXXXX XXXXXXXXXXXXXXXX XXXXXXXXXXXXXXXX
1440 : XXXXXXXXXXXXXXXX XXXXXXXXXXXXXXXX XXXXXXXXXXXXXXXX XXXXXXXXXXXXXXXX
1480 : XXXXXXXXXXXXXXXX XXXXXXXXXXXXXXXX XXXXXXXXXXXXXXXX XXXXXXXXXXXXXXXX
14C0 : XXXXXXXXXXXXXXXX XXXXXXXXXXXXXXXX XXXXXXXXXXXXXXXX XXXXXXXXXXXXXXXX
1500 : XXXXXXXXXXXXXXXX XXXXXXXXXXXXXXXX XXXXXXXXXXXXXXXX XXXXXXXXXXXXXXXX
1540 : XXXXXXXXXXXXXXXX XXXXXXXXXXXXXXXX XXXXXXXXXXXXXXXX XXXXXXXXXXXXXXXX
1580 : XXXXXXXXXXXXXXXX XXXXXXXXXXXXXXXX XXXXXXXXXXXXXXXX XXXXXXXXXXXXXXXX
15C0 : XXXXXXXXXXXXXXXX XXXXXXXXXXXXXXXX XXXXXXXXXXXXXXXX XXXXXXXXXXXXXXXX
1600 : XXXXXXXXXXXXXXXX XXXXXXXXXXXXXXXX XXXXXXXXXXXXXXXX XXXXXXXXXXXXXXXX
1640 : XXXXXXXXXXXXXXXX XXXXXXXXXXXXXXXX XXXXXXXXXXXXXXXX XXXXXXXXXXXXXXXX
1680 : XXXXXXXXXXXXXXXX XXXXXXXXXXXXXXXX XXXXXXXXXXXXXXXX XXXXXXXXXXXXXXXX
16C0 : XXXXXXXXXXXXXXXX XXXXXXXXXXXXXXXX XXXXXXXXXXXXXXXX XXXXXXXXXXXXXXXX
1700 : XXXXXXXXXXXXXXXX XXXXXXXXXXXXXXXX XXXXXXXXXXXXXXXX XXXXXXXXXXXXXXXX
1740 : XXXXXXXXXXXXXXXX XXXXXXXXXXXXXXXX XXXXXXXXXXXXXXXX XXXXXXXXXXXXXXXX
1780 : XXXXXXXXXXXXXXXX XXXXXXXXXXXXXXXX XXXXXXXXXXXXXXXX XXXXXXXXXXXXXXXX
17C0 : XXXXXXXXXXXXXXXX XXXXXXXXXXXXXXXX XXXXXXXXXXXXXXXX XXXXXXXXXXXXXXXX
1800 : XXXXXXXXXXXXXXXX XXXXXXXXXXXXXXXX XXXXXXXXXXXXXXXX XXXXXXXXXXXXXXXX
1840 : XXXXXXXXXXXXXXXX XXXXXXXXXXXXXXXX XXXXXXXXXXXXXXXX XXXXXXXXXXXXXXXX
1880 : XXXXXXXXXXXXXXXX XXXXXXXXXXXXXXXX XXXXXXXXXXXXXXXX XXXXXXXXXXXXXXXX
18C0 : XXXXXXXXXXXXXXXX XXXXXXXXXXXXXXXX XXXXXXXXXXXXXXXX XXXXXXXXXXXXXXXX
1900 : XXXXXXXXXXXXXXXX XXXXXXXXXXXXXXXX XXXXXXXXXXXXXXXX XXXXXXXXXXXXXXXX
1940 : XXXXXXXXXXXXXXXX XXXXXXXXXXXXXXXX XXXXXXXXXXXXXXXX XXXXXXXXXXXXXXXX
1980 : XXXXXXXXXXXXXXXX XXXXXXXXXXXXXXXX XXXXXXXXXXXXXXXX XXXXXXXXXXXXXXXX
19C0 : XXXXXXXXXXXXXXXX XXXXXXXXXXXXXXXX XXXXXXXXXXXXXXXX XXXXXXXXXXXXXXXX
1A00 : XXXXXXXXXXXXXXXX XXXXXXXXXXXXXXXX XXXXXXXXXXXXXXXX XXXXXXXXXXXXXXXX
1A40 : XXXXXXXXXXXXXXXX XXXXXXXXXXXXXXXX XXXXXXXXXXXXXXXX XXXXXXXXXXXXXXXX
1A80 : XXXXXXXXXXXXXXXX XXXXXXXXXXXXXXXX XXXXXXXXXXXXXXXX XXXXXXXXXXXXXXXX
1AC0 : XXXXXXXXXXXXXXXX XXXXXXXXXXXXXXXX XXXXXXXXXXXXXXXX XXXXXXXXXXXXXXXX
1B00 : XXXXXXXXXXXXXXXX XXXXXXXXXXXXXXXX XXXXXXXXXXXXXXXX XXXXXXXXXXXXXXXX
1B40 : XXXXXXXXXXXXXXXX XXXXXXXXXXXXXXXX XXXXXXXXXXXXXXXX XXXXXXXXXXXXXXXX
1B80 : XXXXXXXXXXXXXXXX XXXXXXXXXXXXXXXX XXXXXXXXXXXXXXXX XXXXXXXXXXXXXXXX
1BC0 : XXXXXXXXXXXXXXXX XXXXXXXXXXXXXXXX XXXXXXXXXXXXXXXX XXXXXXXXXXXXXXXX
1C00 : XXXXXXXXXXXXXXXX XXXXXXXXXXXXXXXX XXXXXXXXXXXXXXXX XXXXXXXXXXXXXXXX
1C40 : XXXXXXXXXXXXXXXX XXXXXXXXXXXXXXXX XXXXXXXXXXXXXXXX XXXXXXXXXXXXXXXX
1C80 : XXXXXXXXXXXXXXXX XXXXXXXXXXXXXXXX XXXXXXXXXXXXXXXX XXXXXXXXXXXXXXXX
1CC0 : XXXXXXXXXXXXXXXX XXXXXXXXXXXXXXXX XXXXXXXXXXXXXXXX XXXXXXXXXXXXXXXX
1D00 : XXXXXXXXXXXXXXXX XXXXXXXXXXXXXXXX XXXXXXXXXXXXXXXX XXXXXXXXXXXXXXXX
1D40 : XXXXXXXXXXXXXXXX XXXXXXXXXXXXXXXX XXXXXXXXXXXXXXXX XXXXXXXXXXXXXXXX
1D80 : XXXXXXXXXXXXXXXX XXXXXXXXXXXXXXXX XXXXXXXXXXXXXXXX XXXXXXXXXXXXXXXX
1DC0 : XXXXXXXXXXXXXXXX XXXXXXXXXXXXXXXX XXXXXXXXXXXXXXXX XXXXXXXXXXXXXXXX
1E00 : XXXXXXXXXXXXXXXX XXXXXXXXXXXXXXXX XXXXXXXXXXXXXXXX XXXXXXXXXXXXXXXX
1E40 : XXXXXXXXXXXXXXXX XXXXXXXXXXXXXXXX XXXXXXXXXXXXXXXX XXXXXXXXXXXXXXXX
1E80 : XXXXXXXXXXXXXXXX XXXXXXXXXXXXXXXX XXXXXXXXXXXXXXXX XXXXXXXXXXXXXXXX
1EC0 : XXXXXXXXXXXXXXXX XXXXXXXXXXXXXXXX XXXXXXXXXXXXXXXX XXXXXXXXXXXXXXXX
1F00 : XXXXXXXXXXXXXXXX XXXXXXXXXXXXXXXX XXXXXXXXXXXXXXXX XXXXXXXXXXXXXXXX
1F40 : XXXXXXXXXXXXXXXX XXXXXXXXXXXXXXXX XXXXXXXXXXXXXXXX XXXXXXXXXXXXXXXX
1F80 : XXXXXXXXXXXXXXXX XXXXXXXXXXXXXXXX XXXXXXXXXXXXXXXX XXXXXXXXXXXXXXXX
1FC0 : XXXXXXXXXXXXXXXX XXXXXXXXXXXXXXXX XXXXXXXXXXXXXXXX XXXXXXXXXXXXXXXX
2000 : XXXXXXXXXXXXXXXX XXXXXXXXXXXXXXXX XXXXXXXXXXXXXXXX XXXXXXXXXXXXXXXX
2040 : XXXXXXXXXXXXXXXX XXXXXXXXXXXXXXXX XXXXXXXXXXXXXXXX XXXXXXXXXXXXXXXX
2080 : XXXXXXXXXXXXXXXX XXXXXXXXXXXXXXXX XXXXXXXXXXXXXXXX XXXXXXXXXXXXXXXX
20C0 : XXXXXXXXXXXXXXXX XXXXXXXXXXXXXXXX XXXXXXXXXXXXXXXX XXXXXXXXXXXXXXXX
2100 : XXXXXXXXXXXXXXXX XXXXXXXXXXXXXXXX XXXXXXXXXXXXXXXX XXXXXXXXXXXXXXXX
2140 : XXXXXXXXXXXXXXXX XXXXXXXXXXXXXXXX XXXXXXXXXXXXXXXX XXXXXXXXXXXXXXXX
2180 : XXXXXXXXXXXXXXXX XXXXXXXXXXXXXXXX XXXXXXXXXXXXXXXX XXXXXXXXXXXXXXXX
21C0 : XXXXXXXXXXXXXXXX XXXXXXXXXXXXXXXX XXXXXXXXXXXXXXXX XXXXXXXXXXXXXXXX
2200 : XXXXXXXXXXXXXXXX XXXXXXXXXXXXXXXX XXXXXXXXXXXXXXXX XXXXXXXXXXXXXXXX
2240 : XXXXXXXXXXXXXXXX XXXXXXXXXXXXXXXX XXXXXXXXXXXXXXXX XXXXXXXXXXXXXXXX
2280 : XXXXXXXXXXXXXXXX XXXXXXXXXXXXXXXX XXXXXXXXXXXXXXXX XXXXXXXXXXXXXXXX
22C0 : XXXXXXXXXXXXXXXX XXXXXXXXXXXXXXXX XXXXXXXXXXXXXXXX XXXXXXXXXXXXXXXX
2300 : XXXXXXXXXXXXXXXX XXXXXXXXXXXXXXXX XXXXXXXXXXXXXXXX XXXXXXXXXXXXXXXX
2340 : XXXXXXXXXXXXXXXX XXXXXXXXXXXXXXXX XXXXXXXXXXXXXXXX XXXXXXXXXXXXXXXX
2380 : XXXXXXXXXXXXXXXX XXXXXXXXXXXXXXXX XXXXXXXXXXXXXXXX XXXXXXXXXXXXXXXX
23C0 : XXXXXXXXXXXXXXXX XXXXXXXXXXXXXXXX XXXXXXXXXXXXXXXX XXXXXXXXXXXXXXXX
2400 : XXXXXXXXXXXXXXXX XXXXXXXXXXXXXXXX XXXXXXXXXXXXXXXX XXXXXXXXXXXXXXXX
2440 : XXXXXXXXXXXXXXXX XXXXXXXXXXXXXXXX XXXXXXXXXXXXXXXX XXXXXXXXXXXXXXXX
2480 : XXXXXXXXXXXXXXXX XXXXXXXXXXXXXXXX XXXXXXXXXXXXXXXX XXXXXXXXXXXXXXXX
24C0 : XXXXXXXXXXXXXXXX XXXXXXXXXXXXXXXX XXXXXXXXXXXXXXXX XXXXXXXXXXXXXXXX
2500 : XXXXXXXXXXXXXXXX XXXXXXXXXXXXXXXX XXXXXXXXXXXXXXXX XXXXXXXXXXXXXXXX
2540 : XXXXXXXXXXXXXXXX XXXXXXXXXXXXXXXX XXXXXXXXXXXXXXXX XXXXXXXXXXXXXXXX
2580 : XXXXXXXXXXXXXXXX XXXXXXXXXXXXXXXX XXXXXXXXXXXXXXXX XXXXXXXXXXXXXXXX
25C0 : XXXXXXXXXXXXXXXX XXXXXXXXXXXXXXXX XXXXXXXXXXXXXXXX XXXXXXXXXXXXXXXX
2600 : XXXXXXXXXXXXXXXX XXXXXXXXXXXXXXXX XXXXXXXXXXXXXXXX XXXXXXXXXXXXXXXX
2640 : XXXXXXXXXXXXXXXX XXXXXXXXXXXXXXXX XXXXXXXXXXXXXXXX XXXXXXXXXXXXXXXX
2680 : XXXXXXXXXXXXXXXX XXXXXXXXXXXXXXXX XXXXXXXXXXXXXXXX XXXXXXXXXXXXXXXX
26C0 : XXXXXXXXXXXXXXXX XXXXXXXXXXXXXXXX XXXXXXXXXXXXXXXX XXXXXXXXXXXXXXXX
2700 : XXXXXXXXXXXXXXXX XXXXXXXXXXXXXXXX XXXXXXXXXXXXXXXX XXXXXXXXXXXXXXXX
2740 : XXXXXXXXXXXXXXXX XXXXXXXXXXXXXXXX XXXXXXXXXXXXXXXX XXXXXXXXXXXXXXXX
2780 : XXXXXXXXXXXXXXXX XXXXXXXXXXXXXXXX XXXXXXXXXXXXXXXX XXXXXXXXXXXXXXXX
27C0 : XXXXXXXXXXXXXXXX XXXXXXXXXXXXXXXX XXXXXXXXXXXXXXXX XXXXXXXXXXXXXXXX
2800 : XXXXXXXXXXXXXXXX XXXXXXXXXXXXXXXX XXXXXXXXXXXXXXXX XXXXXXXXXXXXXXXX
2840 : XXXXXXXXXXXXXXXX XXXXXXXXXXXXXXXX XXXXXXXXXXXXXXXX XXXXXXXXXXXXXXXX
2880 : XXXXXXXXXXXXXXXX XXXXXXXXXXXXXXXX XXXXXXXXXXXXXXXX XXXXXXXXXXXXXXXX
28C0 : XXXXXXXXXXXXXXXX XXXXXXXXXXXXXXXX XXXXXXXXXXXXXXXX XXXXXXXXXXXXXXXX
2900 : XXXXXXXXXXXXXXXX XXXXXXXXXXXXXXXX XXXXXXXXXXXXXXXX XXXXXXXXXXXXXXXX
2940 : XXXXXXXXXXXXXXXX XXXXXXXXXXXXXXXX XXXXXXXXXXXXXXXX XXXXXXXXXXXXXXXX
2980 : XXXXXXXXXXXXXXXX XXXXXXXXXXXXXXXX XXXXXXXXXXXXXXXX XXXXXXXXXXXXXXXX
29C0 : XXXXXXXXXXXXXXXX XXXXXXXXXXXXXXXX XXXXXXXXXXXXXXXX XXXXXXXXXXXXXXXX
2A00 : XXXXXXXXXXXXXXXX XXXXXXXXXXXXXXXX XXXXXXXXXXXXXXXX XXXXXXXXXXXXXXXX
2A40 : XXXXXXXXXXXXXXXX XXXXXXXXXXXXXXXX XXXXXXXXXXXXXXXX XXXXXXXXXXXXXXXX
2A80 : XXXXXXXXXXXXXXXX XXXXXXXXXXXXXXXX XXXXXXXXXXXXXXXX XXXXXXXXXXXXXXXX
2AC0 : XXXXXXXXXXXXXXXX XXXXXXXXXXXXXXXX XXXXXXXXXXXXXXXX XXXXXXXXXXXXXXXX
2B00 : XXXXXXXXXXXXXXXX XXXXXXXXXXXXXXXX XXXXXXXXXXXXXXXX XXXXXXXXXXXXXXXX
2B40 : XXXXXXXXXXXXXXXX XXXXXXXXXXXXXXXX XXXXXXXXXXXXXXXX XXXXXXXXXXXXXXXX
2B80 : XXXXXXXXXXXXXXXX XXXXXXXXXXXXXXXX XXXXXXXXXXXXXXXX XXXXXXXXXXXXXXXX
2BC0 : XXXXXXXXXXXXXXXX XXXXXXXXXXXXXXXX XXXXXXXXXXXXXXXX XXXXXXXXXXXXXXXX
2C00 : XXXXXXXXXXXXXXXX XXXXXXXXXXXXXXXX XXXXXXXXXXXXXXXX XXXXXXXXXXXXXXXX
2C40 : XXXXXXXXXXXXXXXX XXXXXXXXXXXXXXXX XXXXXXXXXXXXXXXX XXXXXXXXXXXXXXXX
2C80 : XXXXXXXXXXXXXXXX XXXXXXXXXXXXXXXX XXXXXXXXXXXXXXXX XXXXXXXXXXXXXXXX
2CC0 : XXXXXXXXXXXXXXXX XXXXXXXXXXXXXXXX XXXXXXXXXXXXXXXX XXXXXXXXXXXXXXXX
2D00 : XXXXXXXXXXXXXXXX XXXXXXXXXXXXXXXX XXXXXXXXXXXXXXXX XXXXXXXXXXXXXXXX
2D40 : XXXXXXXXXXXXXXXX XXXXXXXXXXXXXXXX XXXXXXXXXXXXXXXX XXXXXXXXXXXXXXXX
2D80 : XXXXXXXXXXXXXXXX XXXXXXXXXXXXXXXX XXXXXXXXXXXXXXXX XXXXXXXXXXXXXXXX
2DC0 : XXXXXXXXXXXXXXXX XXXXXXXXXXXXXXXX XXXXXXXXXXXXXXXX XXXXXXXXXXXXXXXX
2E00 : XXXXXXXXXXXXXXXX XXXXXXXXXXXXXXXX XXXXXXXXXXXXXXXX XXXXXXXXXXXXXXXX
2E40 : XXXXXXXXXXXXXXXX XXXXXXXXXXXXXXXX XXXXXXXXXXXXXXXX XXXXXXXXXXXXXXXX
2E80 : XXXXXXXXXXXXXXXX XXXXXXXXXXXXXXXX XXXXXXXXXXXXXXXX XXXXXXXXXXXXXXXX
2EC0 : XXXXXXXXXXXXXXXX XXXXXXXXXXXXXXXX XXXXXXXXXXXXXXXX XXXXXXXXXXXXXXXX
2F00 : XXXXXXXXXXXXXXXX XXXXXXXXXXXXXXXX XXXXXXXXXXXXXXXX XXXXXXXXXXXXXXXX
2F40 : XXXXXXXXXXXXXXXX XXXXXXXXXXXXXXXX XXXXXXXXXXXXXXXX XXXXXXXXXXXXXXXX
2F80 : XXXXXXXXXXXXXXXX XXXXXXXXXXXXXXXX XXXXXXXXXXXXXXXX XXXXXXXXXXXXXXXX
2FC0 : XXXXXXXXXXXXXXXX XXXXXXXXXXXXXXXX XXXXXXXXXXXXXXXX XXXXXXXXXXXXXXXX
3000 : XXXXXXXXXXXXXXXX XXXXXXXXXXXXXXXX XXXXXXXXXXXXXXXX XXXXXXXXXXXXXXXX
3040 : XXXXXXXXXXXXXXXX XXXXXXXXXXXXXXXX XXXXXXXXXXXXXXXX XXXXXXXXXXXXXXXX
3080 : XXXXXXXXXXXXXX-- ---------------- ---------------- ----------------
9C40 : XXXXXXXX-------- ---------------- ---------------- ----------------
0000 : -XXX-XX-XXXXXX-- ---------------- ---------------- ----------------

ALL OTHER MEMORY BLOCKS UNUSED.

PROGRAM MEMORY BYTES USED: 12445
PROGRAM MEMORY BYTES FREE: 36707


ERRORS   :     0
WARNINGS :     0 REPORTED,  3111 SUPPRESSED
MESSAGES :     1 REPORTED,     1 SUPPRESSED


